 Project1

 Timestamp is 69eb599c (Fri Apr 24 08:53:00 2026)

 Preferred load address is 0000000140000000

 Start         Length     Name                   Class
 0001:00000000 000023d2H .text                   CODE
 0001:000023e0 00000023H .text$_ZN6System7Classes15TComponentClassC1EPNS_10TMetaClassE CODE
 0001:00002410 0000000fH .text$__clang_call_terminate CODE
 0001:00002420 00000023H .text$_ZN6System7Classes15TComponentClassC2EPNS_10TMetaClassE CODE
 0001:00002450 0000001eH .text$_ZN6System15DelphiMetaClassINS_7Classes15TComponentClassEEC2EPNS_10TMetaClassE CODE
 0001:00002470 00004f7eH .text                   CODE
 0001:000073f0 0000006dH .text$_ZN3Fmx5Forms5TFormC3EPN6System7Classes10TComponentE CODE
 0001:00007460 00000027H .text$_ZNSt3__16atomicIbEC1B8ne200100Eb CODE
 0001:00007490 00000019H .text$_ZNSt3__16vectorIPN3Fmx9Objects3d7TSphereENS_9allocatorIS4_EEEC1B8ne200100Ev CODE
 0001:000074b0 00000032H .text$_ZNSt3__16atomicIbEaSB8ne200100Eb CODE
 0001:000074f0 0000001bH .text$_ZNSt3__16__math3sinB8ne200100Ef CODE
 0001:00007510 0000001bH .text$_ZNSt3__16__math3cosB8ne200100Ef CODE
 0001:00007530 00000040H .text$_ZN6System13UnicodeStringC1Ei CODE
 0001:00007570 00000023H .text$_ZNSt3__16vectorIPN3Fmx9Objects3d7TSphereENS_9allocatorIS4_EEE9push_backB8ne200100ERKS4_ CODE
 0001:000075a0 00000019H .text$_ZNKSt3__16vectorIPN3Fmx9Objects3d7TSphereENS_9allocatorIS4_EEE4sizeB8ne200100Ev CODE
 0001:000075c0 00000025H .text$_ZNSt3__16vectorIPN3Fmx9Objects3d7TSphereENS_9allocatorIS4_EEEixB8ne200100Ey CODE
 0001:000075f0 00000094H .text$_ZNSt3__16vectorIPN3Fmx9Objects3d7TSphereENS_9allocatorIS4_EEE5eraseB8ne200100ENS_11__wrap_iterIPKS4_EE CODE
 0001:00007690 00000037H .text$_ZNSt3__16vectorIPN3Fmx9Objects3d7TSphereENS_9allocatorIS4_EEE5beginB8ne200100Ev CODE
 0001:000076d0 00000023H .text$_ZNSt3__111__wrap_iterIPKPN3Fmx9Objects3d7TSphereEEC1B8ne200100IPS4_TnNS_9enable_ifIXsr4_AndINS_14is_convertibleIRKT_S6_EENS_7_OrImplIXaantcvbsr7is_sameIRS5_NS_15iterator_traitsISC_E9referenceEEE5valuenesZT1_Li0EEE7_ResultINS_7is_sameISH_SK_EENSN_ISH_RKu20__remove_reference_tISK_EEEEEEE5valueEiE4typeELi0EEERKNS0_ISC_EE CODE
 0001:00007700 00000030H .text$_ZN6System12DynamicArrayINS_3Net9Urlclient14TNameValuePairEEC1Ev CODE
 0001:00007730 00000030H .text$_ZN6System15DelphiInterfaceINS_3Net10Httpclient13IHTTPResponseEEC1Ev CODE
 0001:00007760 00000019H .text$_ZN6System15DelphiInterfaceINS_3Net10Httpclient13IHTTPResponseEED1Ev CODE
 0001:00007780 00000019H .text$_ZN6System12DynamicArrayINS_3Net9Urlclient14TNameValuePairEED1Ev CODE
 0001:000077a0 00000045H .text$_ZN6System13UnicodeStringaSEOS0_ CODE
 0001:000077f0 00000032H .text$_ZNSt3__113__atomic_baseIbLb0EE8exchangeB8ne200100EbNS_12memory_orderE CODE
 0001:00007830 00000030H .text$_ZN6System15DelphiInterfaceINS_9Threading5ITaskEEC1Ev CODE
 0001:00007860 00000019H .text$_ZN6System15DelphiInterfaceINS_9Threading5ITaskEED1Ev CODE
 0001:00007880 00000019H .text$_ZN6System15DelphiInterfaceINS_8Sysutils5TProcEED1Ev CODE
 0001:000078a0 00000059H .text$_ZN6TForm1D0Ev    CODE
 0001:00007900 00000077H .text$_ZN3Fmx5Forms5TFormC3EPN6System7Classes10TComponentEx CODE
 0001:00007980 00000027H .text$_ZNSt3__16atomicIbEC2B8ne200100Eb CODE
 0001:000079b0 00000027H .text$_ZNSt3__113__atomic_baseIbLb0EEC2B8ne200100Eb CODE
 0001:000079e0 00000027H .text$_ZNSt3__117__cxx_atomic_implIbNS_22__cxx_atomic_base_implIbEEEC1B8ne200100Eb CODE
 0001:00007a10 00000027H .text$_ZNSt3__117__cxx_atomic_implIbNS_22__cxx_atomic_base_implIbEEEC2B8ne200100Eb CODE
 0001:00007a40 00000023H .text$_ZNSt3__122__cxx_atomic_base_implIbEC2Eb CODE
 0001:00007a70 00000030H .text$_ZNSt3__16vectorIPN3Fmx9Objects3d7TSphereENS_9allocatorIS4_EEEC2B8ne200100Ev CODE
 0001:00007aa0 00000019H .text$_ZNSt3__19allocatorIPN3Fmx9Objects3d7TSphereEEC1B8ne200100Ev CODE
 0001:00007ac0 00000019H .text$_ZNSt3__19allocatorIPN3Fmx9Objects3d7TSphereEEC2B8ne200100Ev CODE
 0001:00007ae0 00000007H .text$_ZNSt3__116__non_trivial_ifILb1ENS_9allocatorIPN3Fmx9Objects3d7TSphereEEEEC2B8ne200100Ev CODE
 0001:00007af0 00000030H .text$_ZN6System13UnicodeStringC2Ei CODE
 0001:00007b20 0000007bH .text$_ZNSt3__16vectorIPN3Fmx9Objects3d7TSphereENS_9allocatorIS4_EEE12emplace_backIJRKS4_EEERS4_DpOT_ CODE
 0001:00007ba0 00000087H .text$_ZNSt3__16vectorIPN3Fmx9Objects3d7TSphereENS_9allocatorIS4_EEE22__construct_one_at_endB8ne200100IJRKS4_EEEvDpOT_ CODE
 0001:00007c30 000000e1H .text$_ZNSt3__16vectorIPN3Fmx9Objects3d7TSphereENS_9allocatorIS4_EEE24__emplace_back_slow_pathIJRKS4_EEEPS4_DpOT_ CODE
 0001:00007d20 0000002dH .text$_ZNSt3__16vectorIPN3Fmx9Objects3d7TSphereENS_9allocatorIS4_EEE21_ConstructTransactionC1B8ne200100ERS7_y CODE
 0001:00007d50 00000028H .text$_ZNSt3__116allocator_traitsINS_9allocatorIPN3Fmx9Objects3d7TSphereEEEE9constructB8ne200100IS5_JRKS5_EvTnNS_9enable_ifIXntsr15__has_constructIS6_PT_DpT0_EE5valueEiE4typeELi0EEEvRS6_SD_DpOSE_ CODE
 0001:00007d80 0000000bH .text$_ZNSt3__112__to_addressB8ne200100IPN3Fmx9Objects3d7TSphereEEEPT_S6_ CODE
 0001:00007d90 00000019H .text$_ZNSt3__16vectorIPN3Fmx9Objects3d7TSphereENS_9allocatorIS4_EEE21_ConstructTransactionD1B8ne200100Ev CODE
 0001:00007db0 00000049H .text$_ZNSt3__16vectorIPN3Fmx9Objects3d7TSphereENS_9allocatorIS4_EEE21_ConstructTransactionC2B8ne200100ERS7_y CODE
 0001:00007e00 00000023H .text$_ZNSt3__114__construct_atB8ne200100IPN3Fmx9Objects3d7TSphereEJRKS4_EPS4_EEPT_S9_DpOT0_ CODE
 0001:00007e30 00000021H .text$_ZNSt3__112construct_atB8ne200100IPN3Fmx9Objects3d7TSphereEJRKS4_EPS4_EEPT_S9_DpOT0_ CODE
 0001:00007e60 00000016H .text$_ZNSt3__16vectorIPN3Fmx9Objects3d7TSphereENS_9allocatorIS4_EEE21_ConstructTransactionD2B8ne200100Ev CODE
 0001:00007e80 0000008eH .text$_ZNKSt3__16vectorIPN3Fmx9Objects3d7TSphereENS_9allocatorIS4_EEE11__recommendB8ne200100Ey CODE
 0001:00007f10 00000037H .text$_ZNSt3__114__split_bufferIPN3Fmx9Objects3d7TSphereERNS_9allocatorIS4_EEEC1EyyS7_ CODE
 0001:00007f50 00000112H .text$_ZNSt3__16vectorIPN3Fmx9Objects3d7TSphereENS_9allocatorIS4_EEE26__swap_out_circular_bufferERNS_14__split_bufferIS4_RS6_EE CODE
 0001:00008070 00000019H .text$_ZNSt3__114__split_bufferIPN3Fmx9Objects3d7TSphereERNS_9allocatorIS4_EEED1Ev CODE
 0001:00008090 0000004eH .text$_ZNKSt3__16vectorIPN3Fmx9Objects3d7TSphereENS_9allocatorIS4_EEE8max_sizeB8ne200100Ev CODE
 0001:000080e0 00000011H .text$_ZNSt3__16vectorIPN3Fmx9Objects3d7TSphereENS_9allocatorIS4_EEE20__throw_length_errorB8ne200100Ev CODE
 0001:00008100 00000019H .text$_ZNKSt3__16vectorIPN3Fmx9Objects3d7TSphereENS_9allocatorIS4_EEE8capacityB8ne200100Ev CODE
 0001:00008120 00000028H .text$_ZNSt3__13maxB8ne200100IyEERKT_S3_S3_ CODE
 0001:00008150 00000028H .text$_ZNSt3__13minB8ne200100IyEERKT_S3_S3_ CODE
 0001:00008180 00000017H .text$_ZNSt3__116allocator_traitsINS_9allocatorIPN3Fmx9Objects3d7TSphereEEEE8max_sizeB8ne200100IS6_vTnNS_9enable_ifIXntsr14__has_max_sizeIKT_EE5valueEiE4typeELi0EEEyRKS6_ CODE
 0001:000081a0 0000000fH .text$_ZNSt3__114numeric_limitsIxE3maxB8ne200100Ev CODE
 0001:000081b0 0000004dH .text$_ZNSt3__13minB8ne200100IyNS_6__lessIvvEEEERKT_S5_S5_T0_ CODE
 0001:00008200 0000002bH .text$_ZNKSt3__16__lessIvvEclB8ne200100IyyEEbRKT_RKT0_ CODE
 0001:00008230 0000000fH .text$_ZNSt3__114numeric_limitsIyE3maxB8ne200100Ev CODE
 0001:00008240 00000008H .text$_ZNSt3__123__libcpp_numeric_limitsIyLb1EE3maxB8ne200100Ev CODE
 0001:00008250 0000000bH .text$_ZNSt3__123__libcpp_numeric_limitsIxLb1EE3maxB8ne200100Ev CODE
 0001:00008260 0000006dH .text$_ZNSt3__120__throw_length_errorB8ne200100EPKc CODE
 0001:000082d0 00000023H .text$_ZNSt12length_errorC1B8ne200100EPKc CODE
 0001:00008300 0000003aH .text$_ZNSt12length_errorC2B8ne200100EPKc CODE
 0001:00008340 0000004dH .text$_ZNSt3__13maxB8ne200100IyNS_6__lessIvvEEEERKT_S5_S5_T0_ CODE
 0001:00008390 000000acH .text$_ZNSt3__114__split_bufferIPN3Fmx9Objects3d7TSphereERNS_9allocatorIS4_EEEC2EyyS7_ CODE
 0001:00008440 00000034H .text$_ZNSt3__119__allocate_at_leastB8ne200100INS_9allocatorIPN3Fmx9Objects3d7TSphereEEEEEDaRT_y CODE
 0001:00008480 0000003aH .text$_ZNSt3__116allocator_traitsINS_9allocatorIPN3Fmx9Objects3d7TSphereEEEE17allocate_at_leastB8ne200100IS6_EENS_17allocation_resultIPS5_yEERT_y CODE
 0001:000084c0 0000004dH .text$_ZNSt3__19allocatorIPN3Fmx9Objects3d7TSphereEE17allocate_at_leastB8ne200100Ey CODE
 0001:00008510 00000049H .text$_ZNSt3__19allocatorIPN3Fmx9Objects3d7TSphereEE8allocateB8ne200100Ey CODE
 0001:00008560 00000034H .text$_ZSt28__throw_bad_array_new_lengthB8ne200100v CODE
 0001:000085a0 00000065H .text$_ZNSt3__117__libcpp_allocateB8ne200100IPN3Fmx9Objects3d7TSphereEEEPT_NS_15__element_countEy CODE
 0001:00008610 00000011H .text$_ZNSt3__124__is_overaligned_for_newB8ne200100Ey CODE
 0001:00008630 00000023H .text$_ZNSt3__121__libcpp_operator_newB8ne200100IJySt11align_val_tEEEPvDpT_ CODE
 0001:00008660 00000019H .text$_ZNSt3__121__libcpp_operator_newB8ne200100IJyEEEPvDpT_ CODE
 0001:00008680 00000007H .text$_ZNKSt3__16vectorIPN3Fmx9Objects3d7TSphereENS_9allocatorIS4_EEE17__annotate_deleteB8ne200100Ev CODE
 0001:00008690 00000059H .text$_ZNSt3__134__uninitialized_allocator_relocateB8ne200100INS_9allocatorIPN3Fmx9Objects3d7TSphereEEEPS5_EEvRT_T0_SA_SA_ CODE
 0001:000086f0 0000003bH .text$_ZNSt3__14swapB8ne200100IPPN3Fmx9Objects3d7TSphereEEENS_9enable_ifIXaasr21is_move_constructibleIT_EE5valuesr18is_move_assignableIS7_EE5valueEvE4typeERS7_SA_ CODE
 0001:00008730 00000012H .text$_ZNKSt3__16vectorIPN3Fmx9Objects3d7TSphereENS_9allocatorIS4_EEE14__annotate_newB8ne200100Ey CODE
 0001:00008750 00000068H .text$_ZNSt3__114__split_bufferIPN3Fmx9Objects3d7TSphereERNS_9allocatorIS4_EEED2Ev CODE
 0001:000087c0 0000001dH .text$_ZNSt3__114__split_bufferIPN3Fmx9Objects3d7TSphereERNS_9allocatorIS4_EEE5clearB8ne200100Ev CODE
 0001:000087e0 0000002dH .text$_ZNSt3__116allocator_traitsINS_9allocatorIPN3Fmx9Objects3d7TSphereEEEE10deallocateB8ne200100ERS6_PS5_y CODE
 0001:00008810 00000019H .text$_ZNKSt3__114__split_bufferIPN3Fmx9Objects3d7TSphereERNS_9allocatorIS4_EEE8capacityB8ne200100Ev CODE
 0001:00008830 00000028H .text$_ZNSt3__114__split_bufferIPN3Fmx9Objects3d7TSphereERNS_9allocatorIS4_EEE17__destruct_at_endB8ne200100EPS4_ CODE
 0001:00008860 0000006bH .text$_ZNSt3__114__split_bufferIPN3Fmx9Objects3d7TSphereERNS_9allocatorIS4_EEE17__destruct_at_endB8ne200100EPS4_NS_17integral_constantIbLb0EEE CODE
 0001:000088d0 0000001eH .text$_ZNSt3__116allocator_traitsINS_9allocatorIPN3Fmx9Objects3d7TSphereEEEE7destroyB8ne200100IS5_vTnNS_9enable_ifIXntsr13__has_destroyIS6_PT_EE5valueEiE4typeELi0EEEvRS6_SB_ CODE
 0001:000088f0 00000007H .text$_ZNSt3__112__destroy_atB8ne200100IPN3Fmx9Objects3d7TSphereETnNS_9enable_ifIXntsr8is_arrayIT_EE5valueEiE4typeELi0EEEvPS6_ CODE
 0001:00008900 0000002eH .text$_ZNSt3__19allocatorIPN3Fmx9Objects3d7TSphereEE10deallocateB8ne200100EPS4_y CODE
 0001:00008930 0000005cH .text$_ZNSt3__119__libcpp_deallocateB8ne200100IPN3Fmx9Objects3d7TSphereEEEvPNS_15__type_identityIT_E4typeENS_15__element_countEy CODE
 0001:00008990 00000023H .text$_ZNSt3__124__libcpp_operator_deleteB8ne200100IJPPN3Fmx9Objects3d7TSphereESt11align_val_tEEEvDpT_ CODE
 0001:000089c0 00000019H .text$_ZNSt3__124__libcpp_operator_deleteB8ne200100IJPPN3Fmx9Objects3d7TSphereEEEEvDpT_ CODE
 0001:000089e0 0000003bH .text$_ZNSt3__1miB8ne200100IPKPN3Fmx9Objects3d7TSphereES6_EEDTmicldtfp_4baseEcldtfp0_4baseEERKNS_11__wrap_iterIT_EERKNS8_IT0_EE CODE
 0001:00008a20 00000022H .text$_ZNKSt3__16vectorIPN3Fmx9Objects3d7TSphereENS_9allocatorIS4_EEE6cbeginB8ne200100Ev CODE
 0001:00008a50 00000046H .text$_ZNSt3__16vectorIPN3Fmx9Objects3d7TSphereENS_9allocatorIS4_EEE17__destruct_at_endB8ne200100EPS4_ CODE
 0001:00008aa0 00000036H .text$_ZNSt3__14moveB8ne200100IPPN3Fmx9Objects3d7TSphereES5_EET0_T_S7_S6_ CODE
 0001:00008ae0 00000027H .text$_ZNSt3__16vectorIPN3Fmx9Objects3d7TSphereENS_9allocatorIS4_EEE11__make_iterB8ne200100EPS4_ CODE
 0001:00008b10 0000000eH .text$_ZNKSt3__111__wrap_iterIPKPN3Fmx9Objects3d7TSphereEE4baseB8ne200100Ev CODE
 0001:00008b20 00000037H .text$_ZNKSt3__16vectorIPN3Fmx9Objects3d7TSphereENS_9allocatorIS4_EEE5beginB8ne200100Ev CODE
 0001:00008b60 00000027H .text$_ZNKSt3__16vectorIPN3Fmx9Objects3d7TSphereENS_9allocatorIS4_EEE11__make_iterB8ne200100EPKS4_ CODE
 0001:00008b90 0000000bH .text$_ZNSt3__16vectorIPN3Fmx9Objects3d7TSphereENS_9allocatorIS4_EEE26__add_alignment_assumptionB8ne200100IPS4_TnNS_9enable_ifIXsr10is_pointerIT_EE5valueEiE4typeELi0EEES9_SB_ CODE
 0001:00008ba0 00000023H .text$_ZNSt3__111__wrap_iterIPKPN3Fmx9Objects3d7TSphereEEC1B8ne200100ES6_ CODE
 0001:00008bd0 0000001eH .text$_ZNSt3__111__wrap_iterIPKPN3Fmx9Objects3d7TSphereEEC2B8ne200100ES6_ CODE
 0001:00008bf0 0000006dH .text$_ZNSt3__16vectorIPN3Fmx9Objects3d7TSphereENS_9allocatorIS4_EEE22__base_destruct_at_endB8ne200100EPS4_ CODE
 0001:00008c60 00000012H .text$_ZNKSt3__16vectorIPN3Fmx9Objects3d7TSphereENS_9allocatorIS4_EEE17__annotate_shrinkB8ne200100Ey CODE
 0001:00008c80 0000003eH .text$_ZNSt3__16__moveB8ne200100INS_17_ClassicAlgPolicyEPPN3Fmx9Objects3d7TSphereES6_S6_EENS_4pairIT0_T2_EES8_T1_S9_ CODE
 0001:00008cc0 000000dfH .text$_ZNSt3__124__copy_move_unwrap_itersB8ne200100INS_11__move_implINS_17_ClassicAlgPolicyEEEPPN3Fmx9Objects3d7TSphereES8_S8_TnNS_9enable_ifIXsr12__can_rewrapIT0_T2_EE5valueEiE4typeELi0EEENS_4pairISA_SB_EESA_T1_SB_ CODE
 0001:00008da0 00000034H .text$_ZNSt3__114__unwrap_rangeB8ne200100IPPN3Fmx9Objects3d7TSphereES5_EEDaT_T0_ CODE
 0001:00008de0 00000049H .text$_ZNKSt3__111__move_implINS_17_ClassicAlgPolicyEEclB8ne200100IPN3Fmx9Objects3d7TSphereES7_TnNS_9enable_ifIXsr38__can_lower_move_assignment_to_memmoveIT_T0_EE5valueEiE4typeELi0EEENS_4pairIPS9_PSA_EESE_SE_SF_ CODE
 0001:00008e30 00000019H .text$_ZNSt3__113__unwrap_iterB8ne200100IPPN3Fmx9Objects3d7TSphereENS_18__unwrap_iter_implIS5_Lb1EEETnNS_9enable_ifIXsr21is_copy_constructibleIT_EE5valueEiE4typeELi0EEEDTclsrT0_8__unwrapclsr3stdE7declvalIS9_EEEES9_ CODE
 0001:00008e50 00000034H .text$_ZNSt3__19make_pairB8ne200100IPPN3Fmx9Objects3d7TSphereES5_EENS_4pairINS_18__unwrap_referenceIu7__decayIT_EE4typeENS7_Iu7__decayIT0_EE4typeEEEOS8_OSC_ CODE
 0001:00008e90 00000023H .text$_ZNSt3__114__rewrap_rangeB8ne200100IPPN3Fmx9Objects3d7TSphereES5_S5_EET0_S6_T1_ CODE
 0001:00008ec0 00000037H .text$_ZNSt3__113__rewrap_iterB8ne200100IPPN3Fmx9Objects3d7TSphereES5_NS_18__unwrap_iter_implIS5_Lb1EEEEET_S8_T0_ CODE
 0001:00008f00 0000005cH .text$_ZNSt3__119__unwrap_range_implIPPN3Fmx9Objects3d7TSphereES5_E8__unwrapB8ne200100ES5_S5_ CODE
 0001:00008f60 0000002dH .text$_ZNSt3__14pairIPPN3Fmx9Objects3d7TSphereES5_EC1B8ne200100IS5_S5_TnNS_9enable_ifIXclsr10_CheckArgsE23__is_pair_constructibleIT_T0_EEEiE4typeELi0EEEOS9_OSA_ CODE
 0001:00008f90 00000032H .text$_ZNSt3__14pairIPPN3Fmx9Objects3d7TSphereES5_EC2B8ne200100IS5_S5_TnNS_9enable_ifIXclsr10_CheckArgsE23__is_pair_constructibleIT_T0_EEEiE4typeELi0EEEOS9_OSA_ CODE
 0001:00008fd0 00000083H .text$_ZNSt3__119__copy_trivial_implB8ne200100IPN3Fmx9Objects3d7TSphereES4_EENS_4pairIPT_PT0_EES7_S7_S9_ CODE
 0001:00009060 0000004fH .text$_ZNSt3__119__constexpr_memmoveB8ne200100IPN3Fmx9Objects3d7TSphereES4_TnNS_9enable_ifIXsr23__is_always_bitcastableIT0_T_EE5valueEiE4typeELi0EEEPS7_SA_PS6_NS_15__element_countE CODE
 0001:000090b0 00000034H .text$_ZNSt3__19make_pairB8ne200100IRPPN3Fmx9Objects3d7TSphereES5_EENS_4pairINS_18__unwrap_referenceIu7__decayIT_EE4typeENS8_Iu7__decayIT0_EE4typeEEEOS9_OSD_ CODE
 0001:000090f0 0000002dH .text$_ZNSt3__14pairIPPN3Fmx9Objects3d7TSphereES5_EC1B8ne200100IRS5_S5_TnNS_9enable_ifIXclsr10_CheckArgsE23__is_pair_constructibleIT_T0_EEEiE4typeELi0EEEOSA_OSB_ CODE
 0001:00009120 00000032H .text$_ZNSt3__14pairIPPN3Fmx9Objects3d7TSphereES5_EC2B8ne200100IRS5_S5_TnNS_9enable_ifIXclsr10_CheckArgsE23__is_pair_constructibleIT_T0_EEEiE4typeELi0EEEOSA_OSB_ CODE
 0001:00009160 00000019H .text$_ZNSt3__118__unwrap_iter_implIPPN3Fmx9Objects3d7TSphereELb1EE8__unwrapB8ne200100ES5_ CODE
 0001:00009180 00000023H .text$_ZNSt3__119__unwrap_range_implIPPN3Fmx9Objects3d7TSphereES5_E8__rewrapB8ne200100ES5_S5_ CODE
 0001:000091b0 0000004cH .text$_ZNSt3__118__unwrap_iter_implIPPN3Fmx9Objects3d7TSphereELb1EE8__rewrapB8ne200100ES5_S5_ CODE
 0001:00009200 00000023H .text$_ZNSt3__111__wrap_iterIPPN3Fmx9Objects3d7TSphereEEC1B8ne200100ES5_ CODE
 0001:00009230 0000001eH .text$_ZNSt3__111__wrap_iterIPPN3Fmx9Objects3d7TSphereEEC2B8ne200100ES5_ CODE
 0001:00009250 00000021H .text$_ZNSt3__111__wrap_iterIPKPN3Fmx9Objects3d7TSphereEEC2B8ne200100IPS4_TnNS_9enable_ifIXsr4_AndINS_14is_convertibleIRKT_S6_EENS_7_OrImplIXaantcvbsr7is_sameIRS5_NS_15iterator_traitsISC_E9referenceEEE5valuenesZT1_Li0EEE7_ResultINS_7is_sameISH_SK_EENSN_ISH_RKu20__remove_reference_tISK_EEEEEEE5valueEiE4typeELi0EEERKNS0_ISC_EE CODE
 0001:00009280 00000019H .text$_ZNSt3__16vectorIPN3Fmx9Objects3d7TSphereENS_9allocatorIS4_EEED1B8ne200100Ev CODE
 0001:000092a0 00000048H .text$_ZN3Fmx5Forms5TFormD0Ev CODE
 0001:000092f0 00000034H .text$_ZNSt3__16vectorIPN3Fmx9Objects3d7TSphereENS_9allocatorIS4_EEED2B8ne200100Ev CODE
 0001:00009330 00000023H .text$_ZNSt3__16vectorIPN3Fmx9Objects3d7TSphereENS_9allocatorIS4_EEE16__destroy_vectorC1B8ne200100ERS7_ CODE
 0001:00009360 0000006eH .text$_ZNSt3__16vectorIPN3Fmx9Objects3d7TSphereENS_9allocatorIS4_EEE16__destroy_vectorclB8ne200100Ev CODE
 0001:000093d0 0000001eH .text$_ZNSt3__16vectorIPN3Fmx9Objects3d7TSphereENS_9allocatorIS4_EEE16__destroy_vectorC2B8ne200100ERS7_ CODE
 0001:000093f0 0000003fH .text$_ZNSt3__16vectorIPN3Fmx9Objects3d7TSphereENS_9allocatorIS4_EEE5clearB8ne200100Ev CODE
 0001:00009430 000000eaH .text$_ZN6System15DelphiInterfaceINS_8Sysutils5TProcEED2Ev CODE
 0001:00009520 00000030H .text$_ZN6System15DelphiInterfaceINS_8Sysutils5TProcEEC1Ev CODE
 0001:00009550 00000023H .text$_ZN6System15DelphiInterfaceINS_8Sysutils5TProcEEC1ERKS3_ CODE
 0001:00009580 00000012H .text$_ZN6System15DelphiInterfaceINS_8Sysutils5TProcEEC2Ev CODE
 0001:000095a0 00000046H .text$_ZN6System15DelphiInterfaceINS_8Sysutils5TProcEEC2ERKS3_ CODE
 0001:000095f0 00000012H .text$_ZN6System12DynamicArrayINS_3Net9Urlclient14TNameValuePairEEC2Ev CODE
 0001:00009610 000000ddH .text$_ZN6System12DynamicArrayINS_3Net9Urlclient14TNameValuePairEED2Ev CODE
 0001:000096f0 00000023H .text$_ZN6System12DynamicArrayINS_3Net9Urlclient14TNameValuePairEEC1ERKS4_ CODE
 0001:00009720 0000003cH .text$_ZN6System12DynamicArrayINS_3Net9Urlclient14TNameValuePairEE11DecRefCountEv CODE
 0001:00009760 00000029H .text$_ZN6System12DynamicArrayINS_3Net9Urlclient14TNameValuePairEEC2ERKS4_ CODE
 0001:00009790 0000002cH .text$_ZN6System12DynamicArrayINS_3Net9Urlclient14TNameValuePairEE11IncRefCountEv CODE
 0001:000097c0 000000a5H .text$_ZN6System12DynamicArrayINS_3Net9Urlclient14TNameValuePairEE8FreeDataEv CODE
 0001:00009870 00000041H .text$_ZNK6System12DynamicArrayINS_3Net9Urlclient14TNameValuePairEE10get_lengthEv CODE
 0001:000098c0 00000019H .text$_ZN6System3Net9Urlclient14TNameValuePairD1Ev CODE
 0001:000098e0 00000012H .text$_ZNK6System12DynamicArrayINS_3Net9Urlclient14TNameValuePairEE6GetRecEv CODE
 0001:00009900 0000002cH .text$_ZN6System3Net9Urlclient14TNameValuePairD2Ev CODE
 0001:00009930 00000012H .text$_ZN6System15DelphiInterfaceINS_3Net10Httpclient13IHTTPResponseEEC2Ev CODE
 0001:00009950 000000eaH .text$_ZN6System15DelphiInterfaceINS_3Net10Httpclient13IHTTPResponseEED2Ev CODE
 0001:00009a40 00000023H .text$_ZN6System15DelphiInterfaceINS_3Net10Httpclient13IHTTPResponseEEC1ERKS4_ CODE
 0001:00009a70 00000046H .text$_ZN6System15DelphiInterfaceINS_3Net10Httpclient13IHTTPResponseEEC2ERKS4_ CODE
 0001:00009ac0 000000eaH .text$_ZN6System15DelphiInterfaceINS_9Threading5ITaskEED2Ev CODE
 0001:00009bb0 00000023H .text$_ZN6System15DelphiInterfaceINS_9Threading5ITaskEEC1ERKS3_ CODE
 0001:00009be0 00000046H .text$_ZN6System15DelphiInterfaceINS_9Threading5ITaskEEC2ERKS3_ CODE
 0001:00009c30 00000012H .text$_ZN6System15DelphiInterfaceINS_9Threading5ITaskEEC2Ev CODE
 0001:00009c50 00000031H .text$_ZNSt3__113__atomic_baseIbLb0EE5storeB8ne200100EbNS_12memory_orderE CODE
 0001:00009c90 0000006aH .text$_ZNSt3__118__cxx_atomic_storeB8ne200100IbEEvPNS_22__cxx_atomic_base_implIT_EES2_NS_12memory_orderE CODE
 0001:00009d00 000000a9H .text$_ZNSt3__121__cxx_atomic_exchangeB8ne200100IbEET_PNS_22__cxx_atomic_base_implIS1_EES1_NS_12memory_orderE CODE
 0001:00009db0 00000056H .text$_ZN6System15DelphiInterfaceINS_8Sysutils5TProcEEaSEPS2_ CODE
 0001:00009e10 00000019H .text$_ZN6System20TCppInterfacedObjectINS_8Sysutils5TProcE8IUnknownNS_10IInterfaceEE6AddRefEv CODE
 0001:00009e30 00000019H .text$_ZN6System20TCppInterfacedObjectINS_8Sysutils5TProcE8IUnknownNS_10IInterfaceEE7ReleaseEv CODE
 0001:00009e50 0000002dH .text$_ZN6System20TCppInterfacedObjectINS_8Sysutils5TProcE8IUnknownNS_10IInterfaceEE14QueryInterfaceERK5_GUIDPPv CODE
 0001:00009e80 0000002dH .text$_ZThn24_N6System20TCppInterfacedObjectINS_8Sysutils5TProcE8IUnknownNS_10IInterfaceEE14QueryInterfaceERK5_GUIDPPv CODE
 0001:00009eb0 00000013H .text$_ZThn24_N6System20TCppInterfacedObjectINS_8Sysutils5TProcE8IUnknownNS_10IInterfaceEE6AddRefEv CODE
 0001:00009ed0 00000013H .text$_ZThn24_N6System20TCppInterfacedObjectINS_8Sysutils5TProcE8IUnknownNS_10IInterfaceEE7ReleaseEv CODE
 0001:00009ef0 0000002dH .text$_ZThn32_N6System20TCppInterfacedObjectINS_8Sysutils5TProcE8IUnknownNS_10IInterfaceEE14QueryInterfaceERK5_GUIDPPv CODE
 0001:00009f20 00000013H .text$_ZThn32_N6System20TCppInterfacedObjectINS_8Sysutils5TProcE8IUnknownNS_10IInterfaceEE6AddRefEv CODE
 0001:00009f40 00000013H .text$_ZThn32_N6System20TCppInterfacedObjectINS_8Sysutils5TProcE8IUnknownNS_10IInterfaceEE7ReleaseEv CODE
 0001:00009f60 0000002dH .text$_ZThn40_N6System20TCppInterfacedObjectINS_8Sysutils5TProcE8IUnknownNS_10IInterfaceEE14QueryInterfaceERK5_GUIDPPv CODE
 0001:00009f90 00000013H .text$_ZThn40_N6System20TCppInterfacedObjectINS_8Sysutils5TProcE8IUnknownNS_10IInterfaceEE6AddRefEv CODE
 0001:00009fb0 00000013H .text$_ZThn40_N6System20TCppInterfacedObjectINS_8Sysutils5TProcE8IUnknownNS_10IInterfaceEE7ReleaseEv CODE
 0001:00009fd0 00000048H .text$_ZN6System20TCppInterfacedObjectINS_8Sysutils5TProcE8IUnknownNS_10IInterfaceEED0Ev CODE
 0001:0000a020 000000c8H .text$_ZN6System20TCppInterfacedObjectINS_8Sysutils5TProcE8IUnknownNS_10IInterfaceEEC3Ev CODE
 0001:0000a0f0 00000063H .text$_ZN6System17TInterfacedObjectC3Ev CODE
 0001:0000a160 00000030H .text$_ZN6System8Sysutils5TProcC2Ev CODE
 0001:0000a190 00000019H .text$_ZN8IUnknownC2Ev  CODE
 0001:0000a1b0 00000030H .text$_ZN6System10IInterfaceC2Ev CODE
 0001:0000a1e0 00000014H .text$_ZNK6System13UnicodeString7IsEmptyEv CODE
 0001:0000a200 00000023H .text$_ZNSt3__110unique_ptrIN6System7Classes11TStringListENS_14default_deleteIS3_EEEC1B8ne200100ILb1EvEEPS3_ CODE
 0001:0000a230 0000000eH .text$_ZNKSt3__110unique_ptrIN6System7Classes11TStringListENS_14default_deleteIS3_EEEptB8ne200100Ev CODE
 0001:0000a240 00000019H .text$_ZNSt3__110unique_ptrIN6System7Classes11TStringListENS_14default_deleteIS3_EEED1B8ne200100Ev CODE
 0001:0000a260 00000019H .text$_ZN6System15DelphiInterfaceINS_7Classes16TThreadProcedureEED1Ev CODE
 0001:0000a280 0000001eH .text$_ZNSt3__110unique_ptrIN6System7Classes11TStringListENS_14default_deleteIS3_EEEC2B8ne200100ILb1EvEEPS3_ CODE
 0001:0000a2a0 0000001dH .text$_ZNSt3__110unique_ptrIN6System7Classes11TStringListENS_14default_deleteIS3_EEED2B8ne200100Ev CODE
 0001:0000a2c0 00000045H .text$_ZNSt3__110unique_ptrIN6System7Classes11TStringListENS_14default_deleteIS3_EEE5resetB8ne200100EPS3_ CODE
 0001:0000a310 00000034H .text$_ZNKSt3__114default_deleteIN6System7Classes11TStringListEEclB8ne200100EPS3_ CODE
 0001:0000a350 00000056H .text$_ZN6System15DelphiInterfaceINS_7Classes16TThreadProcedureEEaSEPS2_ CODE
 0001:0000a3b0 00000019H .text$_ZN6System20TCppInterfacedObjectINS_7Classes16TThreadProcedureE8IUnknownNS_10IInterfaceEE6AddRefEv CODE
 0001:0000a3d0 00000019H .text$_ZN6System20TCppInterfacedObjectINS_7Classes16TThreadProcedureE8IUnknownNS_10IInterfaceEE7ReleaseEv CODE
 0001:0000a3f0 0000002dH .text$_ZN6System20TCppInterfacedObjectINS_7Classes16TThreadProcedureE8IUnknownNS_10IInterfaceEE14QueryInterfaceERK5_GUIDPPv CODE
 0001:0000a420 0000002dH .text$_ZThn24_N6System20TCppInterfacedObjectINS_7Classes16TThreadProcedureE8IUnknownNS_10IInterfaceEE14QueryInterfaceERK5_GUIDPPv CODE
 0001:0000a450 00000013H .text$_ZThn24_N6System20TCppInterfacedObjectINS_7Classes16TThreadProcedureE8IUnknownNS_10IInterfaceEE6AddRefEv CODE
 0001:0000a470 00000013H .text$_ZThn24_N6System20TCppInterfacedObjectINS_7Classes16TThreadProcedureE8IUnknownNS_10IInterfaceEE7ReleaseEv CODE
 0001:0000a490 0000002dH .text$_ZThn32_N6System20TCppInterfacedObjectINS_7Classes16TThreadProcedureE8IUnknownNS_10IInterfaceEE14QueryInterfaceERK5_GUIDPPv CODE
 0001:0000a4c0 00000013H .text$_ZThn32_N6System20TCppInterfacedObjectINS_7Classes16TThreadProcedureE8IUnknownNS_10IInterfaceEE6AddRefEv CODE
 0001:0000a4e0 00000013H .text$_ZThn32_N6System20TCppInterfacedObjectINS_7Classes16TThreadProcedureE8IUnknownNS_10IInterfaceEE7ReleaseEv CODE
 0001:0000a500 0000002dH .text$_ZThn40_N6System20TCppInterfacedObjectINS_7Classes16TThreadProcedureE8IUnknownNS_10IInterfaceEE14QueryInterfaceERK5_GUIDPPv CODE
 0001:0000a530 00000013H .text$_ZThn40_N6System20TCppInterfacedObjectINS_7Classes16TThreadProcedureE8IUnknownNS_10IInterfaceEE6AddRefEv CODE
 0001:0000a550 00000013H .text$_ZThn40_N6System20TCppInterfacedObjectINS_7Classes16TThreadProcedureE8IUnknownNS_10IInterfaceEE7ReleaseEv CODE
 0001:0000a570 00000048H .text$_ZN6System20TCppInterfacedObjectINS_7Classes16TThreadProcedureE8IUnknownNS_10IInterfaceEED0Ev CODE
 0001:0000a5c0 000000c8H .text$_ZN6System20TCppInterfacedObjectINS_7Classes16TThreadProcedureE8IUnknownNS_10IInterfaceEEC3Ev CODE
 0001:0000a690 00000030H .text$_ZN6System7Classes16TThreadProcedureC2Ev CODE
 0001:0000a6c0 00000044H .text$_ZN6System13UnicodeStringC1EOS0_ CODE
 0001:0000a710 00000034H .text$_ZN6System13UnicodeStringC2EOS0_ CODE
 0001:0000a750 00000048H .text$_ZN6System17TInterfacedObjectD0Ev CODE
 0001:0000a7a0 000000eaH .text$_ZN6System15DelphiInterfaceINS_7Classes16TThreadProcedureEED2Ev CODE
 0001:0000a890 00000030H .text$_ZN6System15DelphiInterfaceINS_7Classes16TThreadProcedureEEC1Ev CODE
 0001:0000a8c0 00000023H .text$_ZN6System15DelphiInterfaceINS_7Classes16TThreadProcedureEEC1ERKS3_ CODE
 0001:0000a8f0 00000012H .text$_ZN6System15DelphiInterfaceINS_7Classes16TThreadProcedureEEC2Ev CODE
 0001:0000a910 00000046H .text$_ZN6System15DelphiInterfaceINS_7Classes16TThreadProcedureEEC2ERKS3_ CODE
 0001:0000a960 000025d8H .text                   CODE
 0001:0000cf40 0000000bH .text$_ZN6System15DelphiInterfaceINS_10IInterfaceEEadEv CODE
 0001:0000cf50 00000046H .text$_ZN6System15DelphiInterfaceINS_10IInterfaceEED2Ev CODE
 0001:0000cfa0 00000029H .text$_ZNSt3__110lock_guardINS_5mutexEEC2B8ne200100ERS1_ CODE
 0001:0000cfd0 00000019H .text$_ZNSt3__113unordered_mapIPN6System7Typinfo9TTypeInfoEPSt9type_infoNS_4hashIS4_EENS_8equal_toIS4_EENS_9allocatorINS_4pairIKS4_S6_EEEEEC2B8ne200100Ev CODE
 0001:0000cff0 00000019H .text$_ZNSt3__113unordered_mapIPN6System7Typinfo9TTypeInfoEPSt9type_infoNS_4hashIS4_EENS_8equal_toIS4_EENS_9allocatorINS_4pairIKS4_S6_EEEEED2B8ne200100Ev CODE
 0001:0000d010 00000080H .text$_ZNSt3__113unordered_mapIPN6System7Typinfo9TTypeInfoEPSt9type_infoNS_4hashIS4_EENS_8equal_toIS4_EENS_9allocatorINS_4pairIKS4_S6_EEEEEixERSD_ CODE
 0001:0000d090 0000004aH .text$_ZN6System11AnsiStringTILt65001EEC2ERKNS_13UnicodeStringE CODE
 0001:0000d0e0 0000008bH .text$_ZNK6System11AnsiStringTILt65001EEplERKS1_ CODE
 0001:0000d170 0000004aH .text$_ZN6System11AnsiStringTILt65001EEC2EPKc CODE
 0001:0000d1c0 00000030H .text$_ZN6System11AnsiStringTILt65001EEC2Ev CODE
 0001:0000d1f0 00000045H .text$_ZN6System11AnsiStringTILt65001EEaSEOS1_ CODE
 0001:0000d240 00000019H .text$_ZN6System11AnsiStringTILt65001EED2Ev CODE
 0001:0000d260 00000030H .text$_ZN10__cxxabiv117__class_type_infoC2Ev CODE
 0001:0000d290 0000003cH .text$_ZNK6System11AnsiStringTILt65001EE5c_strEv CODE
 0001:0000d2d0 0000001cH .text$_ZNSt3__110lock_guardINS_5mutexEED2B8ne200100Ev CODE
 0001:0000d2f0 00000030H .text$_ZN10__cxxabiv116__shim_type_infoC2Ev CODE
 0001:0000d320 0000005fH .text$_ZNSt3__112__hash_tableINS_17__hash_value_typeIPN6System7Typinfo9TTypeInfoEPSt9type_infoEENS_22__unordered_map_hasherIS5_S8_NS_4hashIS5_EENS_8equal_toIS5_EELb1EEENS_21__unordered_map_equalIS5_S8_SD_SB_Lb1EEENS_9allocatorIS8_EEEC2Ev CODE
 0001:0000d380 00000024H .text$_ZNSt3__110unique_ptrIA_PNS_16__hash_node_baseIPNS_11__hash_nodeINS_17__hash_value_typeIPN6System7Typinfo9TTypeInfoEPSt9type_infoEEPvEEEENS_25__bucket_list_deallocatorINS_9allocatorISF_EEEEEC2B8ne200100ILb1EvEEv CODE
 0001:0000d3b0 00000012H .text$_ZNSt3__116__hash_node_baseIPNS_11__hash_nodeINS_17__hash_value_typeIPN6System7Typinfo9TTypeInfoEPSt9type_infoEEPvEEEC2B8ne200100Ev CODE
 0001:0000d3d0 00000019H .text$_ZNSt3__19allocatorINS_11__hash_nodeINS_17__hash_value_typeIPN6System7Typinfo9TTypeInfoEPSt9type_infoEEPvEEEC2B8ne200100Ev CODE
 0001:0000d3f0 00000007H .text$_ZNSt3__122__unordered_map_hasherIPN6System7Typinfo9TTypeInfoENS_17__hash_value_typeIS4_PSt9type_infoEENS_4hashIS4_EENS_8equal_toIS4_EELb1EEC2B8ne200100Ev CODE
 0001:0000d400 00000007H .text$_ZNSt3__121__unordered_map_equalIPN6System7Typinfo9TTypeInfoENS_17__hash_value_typeIS4_PSt9type_infoEENS_8equal_toIS4_EENS_4hashIS4_EELb1EEC2B8ne200100Ev CODE
 0001:0000d410 00000020H .text$_ZNSt3__125__bucket_list_deallocatorINS_9allocatorIPNS_16__hash_node_baseIPNS_11__hash_nodeINS_17__hash_value_typeIPN6System7Typinfo9TTypeInfoEPSt9type_infoEEPvEEEEEEEC2B8ne200100Ev CODE
 0001:0000d430 00000019H .text$_ZNSt3__19allocatorIPNS_16__hash_node_baseIPNS_11__hash_nodeINS_17__hash_value_typeIPN6System7Typinfo9TTypeInfoEPSt9type_infoEEPvEEEEEC2B8ne200100Ev CODE
 0001:0000d450 00000007H .text$_ZNSt3__116__non_trivial_ifILb1ENS_9allocatorIPNS_16__hash_node_baseIPNS_11__hash_nodeINS_17__hash_value_typeIPN6System7Typinfo9TTypeInfoEPSt9type_infoEEPvEEEEEEEC2B8ne200100Ev CODE
 0001:0000d460 00000007H .text$_ZNSt3__116__non_trivial_ifILb1ENS_9allocatorINS_11__hash_nodeINS_17__hash_value_typeIPN6System7Typinfo9TTypeInfoEPSt9type_infoEEPvEEEEEC2B8ne200100Ev CODE
 0001:0000d470 0000002cH .text$_ZNSt3__112__hash_tableINS_17__hash_value_typeIPN6System7Typinfo9TTypeInfoEPSt9type_infoEENS_22__unordered_map_hasherIS5_S8_NS_4hashIS5_EENS_8equal_toIS5_EELb1EEENS_21__unordered_map_equalIS5_S8_SD_SB_Lb1EEENS_9allocatorIS8_EEED2Ev CODE
 0001:0000d4a0 000000c0H .text$_ZNSt3__112__hash_tableINS_17__hash_value_typeIPN6System7Typinfo9TTypeInfoEPSt9type_infoEENS_22__unordered_map_hasherIS5_S8_NS_4hashIS5_EENS_8equal_toIS5_EELb1EEENS_21__unordered_map_equalIS5_S8_SD_SB_Lb1EEENS_9allocatorIS8_EEE17__deallocate_nodeEPNS_16__hash_node_baseIPNS_11__hash_nodeIS8_PvEEEE CODE
 0001:0000d560 0000001dH .text$_ZNSt3__110unique_ptrIA_PNS_16__hash_node_baseIPNS_11__hash_nodeINS_17__hash_value_typeIPN6System7Typinfo9TTypeInfoEPSt9type_infoEEPvEEEENS_25__bucket_list_deallocatorINS_9allocatorISF_EEEEED2B8ne200100Ev CODE
 0001:0000d580 0000000bH .text$_ZNSt3__112__hash_tableINS_17__hash_value_typeIPN6System7Typinfo9TTypeInfoEPSt9type_infoEENS_22__unordered_map_hasherIS5_S8_NS_4hashIS5_EENS_8equal_toIS5_EELb1EEENS_21__unordered_map_equalIS5_S8_SD_SB_Lb1EEENS_9allocatorIS8_EEE12__node_allocB8ne200100Ev CODE
 0001:0000d590 00000019H .text$_ZNSt3__116__hash_node_baseIPNS_11__hash_nodeINS_17__hash_value_typeIPN6System7Typinfo9TTypeInfoEPSt9type_infoEEPvEEE8__upcastB8ne200100Ev CODE
 0001:0000d5b0 0000001eH .text$_ZNSt3__116allocator_traitsINS_9allocatorINS_11__hash_nodeINS_17__hash_value_typeIPN6System7Typinfo9TTypeInfoEPSt9type_infoEEPvEEEEE7destroyB8ne200100INS_4pairIKS7_S9_EEvTnNS_9enable_ifIXntsr13__has_destroyISD_PT_EE5valueEiE4typeELi0EEEvRSD_SL_ CODE
 0001:0000d5d0 00000019H .text$_ZNSt3__122__hash_key_value_typesINS_17__hash_value_typeIPN6System7Typinfo9TTypeInfoEPSt9type_infoEEE9__get_ptrB8ne200100ERS8_ CODE
 0001:0000d5f0 0000000fH .text$_ZNSt3__111__hash_nodeINS_17__hash_value_typeIPN6System7Typinfo9TTypeInfoEPSt9type_infoEEPvE11__get_valueB8ne200100Ev CODE
 0001:0000d600 00000019H .text$_ZNSt3__112__destroy_atB8ne200100INS_11__hash_nodeINS_17__hash_value_typeIPN6System7Typinfo9TTypeInfoEPSt9type_infoEEPvEETnNS_9enable_ifIXntsr8is_arrayIT_EE5valueEiE4typeELi0EEEvPSD_ CODE
 0001:0000d620 0000002dH .text$_ZNSt3__116allocator_traitsINS_9allocatorINS_11__hash_nodeINS_17__hash_value_typeIPN6System7Typinfo9TTypeInfoEPSt9type_infoEEPvEEEEE10deallocateB8ne200100ERSD_PSC_y CODE
 0001:0000d650 0000000bH .text$_ZNSt3__114pointer_traitsIPNS_16__hash_node_baseIPNS_11__hash_nodeINS_17__hash_value_typeIPN6System7Typinfo9TTypeInfoEPSt9type_infoEEPvEEEEE10pointer_toB8ne200100ERSE_ CODE
 0001:0000d660 00000007H .text$_ZNSt3__112__destroy_atB8ne200100INS_4pairIKPN6System7Typinfo9TTypeInfoEPSt9type_infoEETnNS_9enable_ifIXntsr8is_arrayIT_EE5valueEiE4typeELi0EEEvPSB_ CODE
 0001:0000d670 00000019H .text$_ZNSt3__117__hash_value_typeIPN6System7Typinfo9TTypeInfoEPSt9type_infoE11__get_valueB8ne200100Ev CODE
 0001:0000d690 00000019H .text$_ZNSt3__17launderB8ne200100INS_4pairIKPN6System7Typinfo9TTypeInfoEPSt9type_infoEEEEPT_SB_ CODE
 0001:0000d6b0 0000000bH .text$_ZNSt3__19__launderB8ne200100INS_4pairIKPN6System7Typinfo9TTypeInfoEPSt9type_infoEEEEPT_SB_ CODE
 0001:0000d6c0 00000007H .text$_ZNSt3__111__hash_nodeINS_17__hash_value_typeIPN6System7Typinfo9TTypeInfoEPSt9type_infoEEPvED2B8ne200100Ev CODE
 0001:0000d6d0 0000002eH .text$_ZNSt3__19allocatorINS_11__hash_nodeINS_17__hash_value_typeIPN6System7Typinfo9TTypeInfoEPSt9type_infoEEPvEEE10deallocateB8ne200100EPSB_y CODE
 0001:0000d700 0000005cH .text$_ZNSt3__119__libcpp_deallocateB8ne200100INS_11__hash_nodeINS_17__hash_value_typeIPN6System7Typinfo9TTypeInfoEPSt9type_infoEEPvEEEEvPNS_15__type_identityIT_E4typeENS_15__element_countEy CODE
 0001:0000d760 00000023H .text$_ZNSt3__124__libcpp_operator_deleteB8ne200100IJPNS_11__hash_nodeINS_17__hash_value_typeIPN6System7Typinfo9TTypeInfoEPSt9type_infoEEPvEESt11align_val_tEEEvDpT_ CODE
 0001:0000d790 00000019H .text$_ZNSt3__124__libcpp_operator_deleteB8ne200100IJPNS_11__hash_nodeINS_17__hash_value_typeIPN6System7Typinfo9TTypeInfoEPSt9type_infoEEPvEEEEEvDpT_ CODE
 0001:0000d7b0 00000048H .text$_ZNSt3__110unique_ptrIA_PNS_16__hash_node_baseIPNS_11__hash_nodeINS_17__hash_value_typeIPN6System7Typinfo9TTypeInfoEPSt9type_infoEEPvEEEENS_25__bucket_list_deallocatorINS_9allocatorISF_EEEEE5resetB8ne200100EDn CODE
 0001:0000d800 0000004eH .text$_ZNSt3__125__bucket_list_deallocatorINS_9allocatorIPNS_16__hash_node_baseIPNS_11__hash_nodeINS_17__hash_value_typeIPN6System7Typinfo9TTypeInfoEPSt9type_infoEEPvEEEEEEEclB8ne200100EPSG_ CODE
 0001:0000d850 0000002dH .text$_ZNSt3__116allocator_traitsINS_9allocatorIPNS_16__hash_node_baseIPNS_11__hash_nodeINS_17__hash_value_typeIPN6System7Typinfo9TTypeInfoEPSt9type_infoEEPvEEEEEEE10deallocateB8ne200100ERSH_PSG_y CODE
 0001:0000d880 0000000bH .text$_ZNSt3__125__bucket_list_deallocatorINS_9allocatorIPNS_16__hash_node_baseIPNS_11__hash_nodeINS_17__hash_value_typeIPN6System7Typinfo9TTypeInfoEPSt9type_infoEEPvEEEEEEE7__allocB8ne200100Ev CODE
 0001:0000d890 0000000bH .text$_ZNSt3__125__bucket_list_deallocatorINS_9allocatorIPNS_16__hash_node_baseIPNS_11__hash_nodeINS_17__hash_value_typeIPN6System7Typinfo9TTypeInfoEPSt9type_infoEEPvEEEEEEE4sizeB8ne200100Ev CODE
 0001:0000d8a0 0000002eH .text$_ZNSt3__19allocatorIPNS_16__hash_node_baseIPNS_11__hash_nodeINS_17__hash_value_typeIPN6System7Typinfo9TTypeInfoEPSt9type_infoEEPvEEEEE10deallocateB8ne200100EPSF_y CODE
 0001:0000d8d0 0000005cH .text$_ZNSt3__119__libcpp_deallocateB8ne200100IPNS_16__hash_node_baseIPNS_11__hash_nodeINS_17__hash_value_typeIPN6System7Typinfo9TTypeInfoEPSt9type_infoEEPvEEEEEEvPNS_15__type_identityIT_E4typeENS_15__element_countEy CODE
 0001:0000d930 00000023H .text$_ZNSt3__124__libcpp_operator_deleteB8ne200100IJPPNS_16__hash_node_baseIPNS_11__hash_nodeINS_17__hash_value_typeIPN6System7Typinfo9TTypeInfoEPSt9type_infoEEPvEEEESt11align_val_tEEEvDpT_ CODE
 0001:0000d960 00000019H .text$_ZNSt3__124__libcpp_operator_deleteB8ne200100IJPPNS_16__hash_node_baseIPNS_11__hash_nodeINS_17__hash_value_typeIPN6System7Typinfo9TTypeInfoEPSt9type_infoEEPvEEEEEEEvDpT_ CODE
 0001:0000d980 00000726H .text$_ZNSt3__112__hash_tableINS_17__hash_value_typeIPN6System7Typinfo9TTypeInfoEPSt9type_infoEENS_22__unordered_map_hasherIS5_S8_NS_4hashIS5_EENS_8equal_toIS5_EELb1EEENS_21__unordered_map_equalIS5_S8_SD_SB_Lb1EEENS_9allocatorIS8_EEE25__emplace_unique_key_argsIS5_JRKNS_21piecewise_construct_tENS_5tupleIJRKS5_EEENSO_IJEEEEEENS_4pairINS_15__hash_iteratorIPNS_11__hash_nodeIS8_PvEEEEbEERKT_DpOT0_ CODE
 0001:0000e0b0 00000022H .text$_ZNSt3__116forward_as_tupleB8ne200100IJRKPN6System7Typinfo9TTypeInfoEEEENS_5tupleIJDpOT_EEESA_ CODE
 0001:0000e0e0 00000007H .text$_ZNSt3__116forward_as_tupleB8ne200100IJEEENS_5tupleIJDpOT_EEES4_ CODE
 0001:0000e0f0 0000002cH .text$_ZNKSt3__115__hash_iteratorIPNS_11__hash_nodeINS_17__hash_value_typeIPN6System7Typinfo9TTypeInfoEPSt9type_infoEEPvEEEptB8ne200100Ev CODE
 0001:0000e120 0000000bH .text$_ZNSt3__112__hash_tableINS_17__hash_value_typeIPN6System7Typinfo9TTypeInfoEPSt9type_infoEENS_22__unordered_map_hasherIS5_S8_NS_4hashIS5_EENS_8equal_toIS5_EELb1EEENS_21__unordered_map_equalIS5_S8_SD_SB_Lb1EEENS_9allocatorIS8_EEE13hash_functionB8ne200100Ev CODE
 0001:0000e130 00000026H .text$_ZNKSt3__122__unordered_map_hasherIPN6System7Typinfo9TTypeInfoENS_17__hash_value_typeIS4_PSt9type_infoEENS_4hashIS4_EENS_8equal_toIS4_EELb1EEclB8ne200100ERKS4_ CODE
 0001:0000e160 00000021H .text$_ZNKSt3__112__hash_tableINS_17__hash_value_typeIPN6System7Typinfo9TTypeInfoEPSt9type_infoEENS_22__unordered_map_hasherIS5_S8_NS_4hashIS5_EENS_8equal_toIS5_EELb1EEENS_21__unordered_map_equalIS5_S8_SD_SB_Lb1EEENS_9allocatorIS8_EEE12bucket_countB8ne200100Ev CODE
 0001:0000e190 00000079H .text$_ZNSt3__116__constrain_hashB8ne200100Eyy CODE
 0001:0000e210 00000025H .text$_ZNKSt3__110unique_ptrIA_PNS_16__hash_node_baseIPNS_11__hash_nodeINS_17__hash_value_typeIPN6System7Typinfo9TTypeInfoEPSt9type_infoEEPvEEEENS_25__bucket_list_deallocatorINS_9allocatorISF_EEEEEixB8ne200100Ey CODE
 0001:0000e240 0000000fH .text$_ZNKSt3__116__hash_node_baseIPNS_11__hash_nodeINS_17__hash_value_typeIPN6System7Typinfo9TTypeInfoEPSt9type_infoEEPvEEE6__hashB8ne200100Ev CODE
 0001:0000e250 0000000bH .text$_ZNSt3__112__hash_tableINS_17__hash_value_typeIPN6System7Typinfo9TTypeInfoEPSt9type_infoEENS_22__unordered_map_hasherIS5_S8_NS_4hashIS5_EENS_8equal_toIS5_EELb1EEENS_21__unordered_map_equalIS5_S8_SD_SB_Lb1EEENS_9allocatorIS8_EEE6key_eqB8ne200100Ev CODE
 0001:0000e260 00000040H .text$_ZNKSt3__121__unordered_map_equalIPN6System7Typinfo9TTypeInfoENS_17__hash_value_typeIS4_PSt9type_infoEENS_8equal_toIS4_EENS_4hashIS4_EELb1EEclB8ne200100ERKS8_RKS4_ CODE
 0001:0000e2a0 00000196H .text$_ZNSt3__112__hash_tableINS_17__hash_value_typeIPN6System7Typinfo9TTypeInfoEPSt9type_infoEENS_22__unordered_map_hasherIS5_S8_NS_4hashIS5_EENS_8equal_toIS5_EELb1EEENS_21__unordered_map_equalIS5_S8_SD_SB_Lb1EEENS_9allocatorIS8_EEE21__construct_node_hashIRKNS_21piecewise_construct_tEJNS_5tupleIJRKS5_EEENSO_IJEEEEEENS_10unique_ptrINS_11__hash_nodeIS8_PvEENS_22__hash_node_destructorINSH_ISW_EEEEEEyOT_DpOT0_ CODE
 0001:0000e440 0000000fH .text$_ZNSt3__112__hash_tableINS_17__hash_value_typeIPN6System7Typinfo9TTypeInfoEPSt9type_infoEENS_22__unordered_map_hasherIS5_S8_NS_4hashIS5_EENS_8equal_toIS5_EELb1EEENS_21__unordered_map_equalIS5_S8_SD_SB_Lb1EEENS_9allocatorIS8_EEE4sizeB8ne200100Ev CODE
 0001:0000e450 0000000fH .text$_ZNSt3__112__hash_tableINS_17__hash_value_typeIPN6System7Typinfo9TTypeInfoEPSt9type_infoEENS_22__unordered_map_hasherIS5_S8_NS_4hashIS5_EENS_8equal_toIS5_EELb1EEENS_21__unordered_map_equalIS5_S8_SD_SB_Lb1EEENS_9allocatorIS8_EEE15max_load_factorB8ne200100Ev CODE
 0001:0000e460 00000023H .text$_ZNSt3__112__hash_tableINS_17__hash_value_typeIPN6System7Typinfo9TTypeInfoEPSt9type_infoEENS_22__unordered_map_hasherIS5_S8_NS_4hashIS5_EENS_8equal_toIS5_EELb1EEENS_21__unordered_map_equalIS5_S8_SD_SB_Lb1EEENS_9allocatorIS8_EEE15__rehash_uniqueB8ne200100Ey CODE
 0001:0000e490 00000040H .text$_ZNSt3__116__is_hash_power2B8ne200100Ey CODE
 0001:0000e4d0 0000001bH .text$_ZNSt3__16__math4ceilB8ne200100Ef CODE
 0001:0000e4f0 00000019H .text$_ZNSt3__116__hash_node_baseIPNS_11__hash_nodeINS_17__hash_value_typeIPN6System7Typinfo9TTypeInfoEPSt9type_infoEEPvEEE5__ptrB8ne200100Ev CODE
 0001:0000e510 0000000eH .text$_ZNKSt3__110unique_ptrINS_11__hash_nodeINS_17__hash_value_typeIPN6System7Typinfo9TTypeInfoEPSt9type_infoEEPvEENS_22__hash_node_destructorINS_9allocatorISB_EEEEEptB8ne200100Ev CODE
 0001:0000e520 0000000eH .text$_ZNKSt3__110unique_ptrINS_11__hash_nodeINS_17__hash_value_typeIPN6System7Typinfo9TTypeInfoEPSt9type_infoEEPvEENS_22__hash_node_destructorINS_9allocatorISB_EEEEE3getB8ne200100Ev CODE
 0001:0000e530 00000025H .text$_ZNSt3__110unique_ptrINS_11__hash_nodeINS_17__hash_value_typeIPN6System7Typinfo9TTypeInfoEPSt9type_infoEEPvEENS_22__hash_node_destructorINS_9allocatorISB_EEEEE7releaseB8ne200100Ev CODE
 0001:0000e560 0000001dH .text$_ZNSt3__110unique_ptrINS_11__hash_nodeINS_17__hash_value_typeIPN6System7Typinfo9TTypeInfoEPSt9type_infoEEPvEENS_22__hash_node_destructorINS_9allocatorISB_EEEEED2B8ne200100Ev CODE
 0001:0000e580 0000001eH .text$_ZNSt3__115__hash_iteratorIPNS_11__hash_nodeINS_17__hash_value_typeIPN6System7Typinfo9TTypeInfoEPSt9type_infoEEPvEEEC2B8ne200100EPNS_16__hash_node_baseISC_EE CODE
 0001:0000e5a0 00000033H .text$_ZNSt3__14pairINS_15__hash_iteratorIPNS_11__hash_nodeINS_17__hash_value_typeIPN6System7Typinfo9TTypeInfoEPSt9type_infoEEPvEEEEbEC2B8ne200100ISE_RbTnNS_9enable_ifIXclsr10_CheckArgsE23__is_pair_constructibleIT_T0_EEEiE4typeELi0EEEOSJ_OSK_ CODE
 0001:0000e5e0 00000047H .text$_ZNKSt3__14hashIPN6System7Typinfo9TTypeInfoEEclB8ne200100ES4_ CODE
 0001:0000e630 000004f2H .text$_ZNKSt3__121__murmur2_or_cityhashIyLy64EEclB8ne200100EPKvy CODE
 0001:0000eb30 00000191H .text$_ZNSt3__121__murmur2_or_cityhashIyLy64EE18__hash_len_0_to_16B8ne200100EPKcy CODE
 0001:0000ecd0 0000010cH .text$_ZNSt3__121__murmur2_or_cityhashIyLy64EE19__hash_len_17_to_32B8ne200100EPKcy CODE
 0001:0000ede0 00000339H .text$_ZNSt3__121__murmur2_or_cityhashIyLy64EE19__hash_len_33_to_64B8ne200100EPKcy CODE
 0001:0000f120 0000001eH .text$_ZNSt3__110__loadwordB8ne200100IyEET_PKv CODE
 0001:0000f140 00000095H .text$_ZNSt3__121__murmur2_or_cityhashIyLy64EE13__hash_len_16B8ne200100Eyy CODE
 0001:0000f1e0 000000b0H .text$_ZNSt3__121__murmur2_or_cityhashIyLy64EE29__weak_hash_len_32_with_seedsB8ne200100EPKcyy CODE
 0001:0000f290 00000051H .text$_ZNSt3__121__murmur2_or_cityhashIyLy64EE8__rotateB8ne200100Eyi CODE
 0001:0000f2f0 0000002dH .text$_ZNSt3__14pairIyyEaSB8ne200100EOS1_ CODE
 0001:0000f320 0000003bH .text$_ZNSt3__14swapB8ne200100IyEENS_9enable_ifIXaasr21is_move_constructibleIT_EE5valuesr18is_move_assignableIS2_EE5valueEvE4typeERS2_S5_ CODE
 0001:0000f360 00000016H .text$_ZNSt3__121__murmur2_or_cityhashIyLy64EE11__shift_mixB8ne200100Ey CODE
 0001:0000f380 00000037H .text$_ZNSt3__121__murmur2_or_cityhashIyLy64EE22__rotate_by_at_least_1B8ne200100Eyi CODE
 0001:0000f3c0 0000001dH .text$_ZNSt3__110__loadwordB8ne200100IjEET_PKv CODE
 0001:0000f3e0 0000011aH .text$_ZNSt3__121__murmur2_or_cityhashIyLy64EE29__weak_hash_len_32_with_seedsB8ne200100Eyyyyyy CODE
 0001:0000f500 00000032H .text$_ZNSt3__14pairIyyEC2B8ne200100IyyTnNS_9enable_ifIXclsr10_CheckArgsE23__is_pair_constructibleIT_T0_EEEiE4typeELi0EEEOS4_OS5_ CODE
 0001:0000f540 0000000fH .text$_ZNKSt3__110unique_ptrIA_PNS_16__hash_node_baseIPNS_11__hash_nodeINS_17__hash_value_typeIPN6System7Typinfo9TTypeInfoEPSt9type_infoEEPvEEEENS_25__bucket_list_deallocatorINS_9allocatorISF_EEEEE11get_deleterB8ne200100Ev CODE
 0001:0000f550 0000000eH .text$_ZNKSt3__125__bucket_list_deallocatorINS_9allocatorIPNS_16__hash_node_baseIPNS_11__hash_nodeINS_17__hash_value_typeIPN6System7Typinfo9TTypeInfoEPSt9type_infoEEPvEEEEEEE4sizeB8ne200100Ev CODE
 0001:0000f560 0000002bH .text$_ZNKSt3__18equal_toIPN6System7Typinfo9TTypeInfoEEclB8ne200100ERKS4_S7_ CODE
 0001:0000f590 00000019H .text$_ZNKSt3__117__hash_value_typeIPN6System7Typinfo9TTypeInfoEPSt9type_infoE11__get_valueB8ne200100Ev CODE
 0001:0000f5b0 00000019H .text$_ZNSt3__17launderB8ne200100IKNS_4pairIKPN6System7Typinfo9TTypeInfoEPSt9type_infoEEEEPT_SC_ CODE
 0001:0000f5d0 0000000bH .text$_ZNSt3__19__launderB8ne200100IKNS_4pairIKPN6System7Typinfo9TTypeInfoEPSt9type_infoEEEEPT_SC_ CODE
 0001:0000f5e0 00000023H .text$_ZNSt3__116allocator_traitsINS_9allocatorINS_11__hash_nodeINS_17__hash_value_typeIPN6System7Typinfo9TTypeInfoEPSt9type_infoEEPvEEEEE8allocateB8ne200100ERSD_y CODE
 0001:0000f610 00000033H .text$_ZNSt3__122__hash_node_destructorINS_9allocatorINS_11__hash_nodeINS_17__hash_value_typeIPN6System7Typinfo9TTypeInfoEPSt9type_infoEEPvEEEEEC2B8ne200100ERSD_b CODE
 0001:0000f650 00000043H .text$_ZNSt3__110unique_ptrINS_11__hash_nodeINS_17__hash_value_typeIPN6System7Typinfo9TTypeInfoEPSt9type_infoEEPvEENS_22__hash_node_destructorINS_9allocatorISB_EEEEEC2B8ne200100ILb1EvEEPSB_NS_16__dependent_typeINS_27__unique_ptr_deleter_sfinaeISF_EEXT_EE20__good_rval_ref_typeE CODE
 0001:0000f6a0 0000002dH .text$_ZNSt3__114__construct_atB8ne200100INS_11__hash_nodeINS_17__hash_value_typeIPN6System7Typinfo9TTypeInfoEPSt9type_infoEEPvEEJDnRyEPSB_EEPT_SF_DpOT0_ CODE
 0001:0000f6d0 0000000eH .text$_ZNKSt3__110unique_ptrINS_11__hash_nodeINS_17__hash_value_typeIPN6System7Typinfo9TTypeInfoEPSt9type_infoEEPvEENS_22__hash_node_destructorINS_9allocatorISB_EEEEEdeB8ne200100Ev CODE
 0001:0000f6e0 0000003cH .text$_ZNSt3__116allocator_traitsINS_9allocatorINS_11__hash_nodeINS_17__hash_value_typeIPN6System7Typinfo9TTypeInfoEPSt9type_infoEEPvEEEEE9constructB8ne200100INS_4pairIKS7_S9_EEJRKNS_21piecewise_construct_tENS_5tupleIJRSH_EEENSM_IJEEEEvTnNS_9enable_ifIXntsr15__has_constructISD_PT_DpT0_EE5valueEiE4typeELi0EEEvRSD_SS_DpOST_ CODE
 0001:0000f720 0000000fH .text$_ZNSt3__110unique_ptrINS_11__hash_nodeINS_17__hash_value_typeIPN6System7Typinfo9TTypeInfoEPSt9type_infoEEPvEENS_22__hash_node_destructorINS_9allocatorISB_EEEEE11get_deleterB8ne200100Ev CODE
 0001:0000f730 00000049H .text$_ZNSt3__19allocatorINS_11__hash_nodeINS_17__hash_value_typeIPN6System7Typinfo9TTypeInfoEPSt9type_infoEEPvEEE8allocateB8ne200100Ey CODE
 0001:0000f780 00000017H .text$_ZNSt3__116allocator_traitsINS_9allocatorINS_11__hash_nodeINS_17__hash_value_typeIPN6System7Typinfo9TTypeInfoEPSt9type_infoEEPvEEEEE8max_sizeB8ne200100ISD_vTnNS_9enable_ifIXntsr14__has_max_sizeIKT_EE5valueEiE4typeELi0EEEyRKSD_ CODE
 0001:0000f7a0 00000065H .text$_ZNSt3__117__libcpp_allocateB8ne200100INS_11__hash_nodeINS_17__hash_value_typeIPN6System7Typinfo9TTypeInfoEPSt9type_infoEEPvEEEEPT_NS_15__element_countEy CODE
 0001:0000f810 0000003dH .text$_ZNSt3__125__compressed_pair_paddingINS_22__hash_node_destructorINS_9allocatorINS_11__hash_nodeINS_17__hash_value_typeIPN6System7Typinfo9TTypeInfoEPSt9type_infoEEPvEEEEEELb0EEC2Ev CODE
 0001:0000f850 00000038H .text$_ZNSt3__112construct_atB8ne200100INS_11__hash_nodeINS_17__hash_value_typeIPN6System7Typinfo9TTypeInfoEPSt9type_infoEEPvEEJDnRyEPSB_EEPT_SF_DpOT0_ CODE
 0001:0000f890 0000003aH .text$_ZNSt3__111__hash_nodeINS_17__hash_value_typeIPN6System7Typinfo9TTypeInfoEPSt9type_infoEEPvEC2B8ne200100EPNS_16__hash_node_baseIPSA_EEy CODE
 0001:0000f8d0 0000001eH .text$_ZNSt3__116__hash_node_baseIPNS_11__hash_nodeINS_17__hash_value_typeIPN6System7Typinfo9TTypeInfoEPSt9type_infoEEPvEEEC2B8ne200100EPSD_ CODE
 0001:0000f8f0 00000037H .text$_ZNSt3__114__construct_atB8ne200100INS_4pairIKPN6System7Typinfo9TTypeInfoEPSt9type_infoEEJRKNS_21piecewise_construct_tENS_5tupleIJRS6_EEENSD_IJEEEEPS9_EEPT_SJ_DpOT0_ CODE
 0001:0000f930 0000004cH .text$_ZNSt3__112construct_atB8ne200100INS_4pairIKPN6System7Typinfo9TTypeInfoEPSt9type_infoEEJRKNS_21piecewise_construct_tENS_5tupleIJRS6_EEENSD_IJEEEEPS9_EEPT_SJ_DpOT0_ CODE
 0001:0000f980 00000054H .text$_ZNSt3__14pairIKPN6System7Typinfo9TTypeInfoEPSt9type_infoEC2B8ne200100IJRS5_EJEEENS_21piecewise_construct_tENS_5tupleIJDpT_EEENSC_IJDpT0_EEE CODE
 0001:0000f9e0 0000005aH .text$_ZNSt3__14pairIKPN6System7Typinfo9TTypeInfoEPSt9type_infoEC2B8ne200100IJRS5_EJEJLy0EETpTnyJEEENS_21piecewise_construct_tERNS_5tupleIJDpT_EEERNSC_IJDpT0_EEENS_15__tuple_indicesIJXspT1_EEEENSL_IJXspT2_EEEE CODE
 0001:0000fa40 00000019H .text$_ZNSt3__13getB8ne200100ILy0EJRKPN6System7Typinfo9TTypeInfoEEEERNS_13tuple_elementIXT_ENS_5tupleIJDpT0_EEEE4typeERSB_ CODE
 0001:0000fa60 0000000eH .text$_ZNSt3__112__tuple_leafILy0ERKPN6System7Typinfo9TTypeInfoELb0EE3getB8ne200100Ev CODE
 0001:0000fa70 0000022dH .text$_ZNSt3__112__hash_tableINS_17__hash_value_typeIPN6System7Typinfo9TTypeInfoEPSt9type_infoEENS_22__unordered_map_hasherIS5_S8_NS_4hashIS5_EENS_8equal_toIS5_EELb1EEENS_21__unordered_map_equalIS5_S8_SD_SB_Lb1EEENS_9allocatorIS8_EEE8__rehashILb1EEEvy CODE
 0001:0000fca0 00000288H .text$_ZNSt3__112__hash_tableINS_17__hash_value_typeIPN6System7Typinfo9TTypeInfoEPSt9type_infoEENS_22__unordered_map_hasherIS5_S8_NS_4hashIS5_EENS_8equal_toIS5_EELb1EEENS_21__unordered_map_equalIS5_S8_SD_SB_Lb1EEENS_9allocatorIS8_EEE11__do_rehashILb1EEEvy CODE
 0001:0000ff30 0000004fH .text$_ZNSt3__116__next_hash_pow2B8ne200100Ey CODE
 0001:0000ff80 0000000fH .text$_ZNSt3__110unique_ptrIA_PNS_16__hash_node_baseIPNS_11__hash_nodeINS_17__hash_value_typeIPN6System7Typinfo9TTypeInfoEPSt9type_infoEEPvEEEENS_25__bucket_list_deallocatorINS_9allocatorISF_EEEEE11get_deleterB8ne200100Ev CODE
 0001:0000ff90 00000049H .text$_ZNSt3__110unique_ptrIA_PNS_16__hash_node_baseIPNS_11__hash_nodeINS_17__hash_value_typeIPN6System7Typinfo9TTypeInfoEPSt9type_infoEEPvEEEENS_25__bucket_list_deallocatorINS_9allocatorISF_EEEEE5resetB8ne200100IPSF_TnNS_9enable_ifIXsr28_CheckArrayPointerConversionIT_EE5valueEiE4typeELi0EEEvSP_ CODE
 0001:0000ffe0 00000023H .text$_ZNSt3__116allocator_traitsINS_9allocatorIPNS_16__hash_node_baseIPNS_11__hash_nodeINS_17__hash_value_typeIPN6System7Typinfo9TTypeInfoEPSt9type_infoEEPvEEEEEEE8allocateB8ne200100ERSH_y CODE
 0001:00010010 00000049H .text$_ZNSt3__19allocatorIPNS_16__hash_node_baseIPNS_11__hash_nodeINS_17__hash_value_typeIPN6System7Typinfo9TTypeInfoEPSt9type_infoEEPvEEEEE8allocateB8ne200100Ey CODE
 0001:00010060 00000017H .text$_ZNSt3__116allocator_traitsINS_9allocatorIPNS_16__hash_node_baseIPNS_11__hash_nodeINS_17__hash_value_typeIPN6System7Typinfo9TTypeInfoEPSt9type_infoEEPvEEEEEEE8max_sizeB8ne200100ISH_vTnNS_9enable_ifIXntsr14__has_max_sizeIKT_EE5valueEiE4typeELi0EEEyRKSH_ CODE
 0001:00010080 00000065H .text$_ZNSt3__117__libcpp_allocateB8ne200100IPNS_16__hash_node_baseIPNS_11__hash_nodeINS_17__hash_value_typeIPN6System7Typinfo9TTypeInfoEPSt9type_infoEEPvEEEEEEPT_NS_15__element_countEy CODE
 0001:000100f0 00000013H .text$_ZNSt3__112__libcpp_clzB8ne200100Ey CODE
 0001:00010110 00000049H .text$_ZNSt3__110unique_ptrINS_11__hash_nodeINS_17__hash_value_typeIPN6System7Typinfo9TTypeInfoEPSt9type_infoEEPvEENS_22__hash_node_destructorINS_9allocatorISB_EEEEE5resetB8ne200100EPSB_ CODE
 0001:00010160 0000008eH .text$_ZNSt3__122__hash_node_destructorINS_9allocatorINS_11__hash_nodeINS_17__hash_value_typeIPN6System7Typinfo9TTypeInfoEPSt9type_infoEEPvEEEEEclB8ne200100EPSC_ CODE
 0001:000101f0 00000040H .text$_ZNSt3__15tupleIJRKPN6System7Typinfo9TTypeInfoEEEC2B8ne200100INS_4_AndETnNS_9enable_ifIXsrT_IJNS_17integral_constantIbLb1EEENS_21is_copy_constructibleIS6_EEEE5valueEiE4typeELi0EEES6_ CODE
 0001:00010230 00000039H .text$_ZNSt3__112__tuple_implINS_15__tuple_indicesIJLy0EEEEJRKPN6System7Typinfo9TTypeInfoEEEC2B8ne200100IJLy0EEJS8_ETpTnyJEJEJS8_EEENS1_IJXspT_EEEENS_13__tuple_typesIJDpT0_EEENS1_IJXspT1_EEEENSC_IJDpT2_EEEDpOT3_ CODE
 0001:00010270 0000001eH .text$_ZNSt3__112__tuple_leafILy0ERKPN6System7Typinfo9TTypeInfoELb0EEC2B8ne200100IS6_TnNS_9enable_ifIXsr4_AndINS_17integral_constantIbXntu9__is_sameu14__remove_cvrefIT_ES7_EEEENS_16is_constructibleIS6_JSB_EEEEE5valueEiE4typeELi0EEEOSB_ CODE
 0001:00010290 0000000bH .text$_ZNSt3__114pointer_traitsIPNS_17__hash_value_typeIPN6System7Typinfo9TTypeInfoEPSt9type_infoEEE10pointer_toB8ne200100ERS8_ CODE
 0001:000102a0 00000012H .text$_ZN6System14AnsiStringBaseC2Ev CODE
 0001:000102c0 0000002cH .text$_ZN6System11AnsiStringTILt65001EE4swapERS1_ CODE
 0001:000102f0 00005916H .text                   CODE
 0001:00015c10 000000c1H .text$_ZN6System8Sysutils11ERangeErrorC3ENS_13UnicodeStringE CODE
 0001:00015ce0 00000048H .text$_ZN6System8Sysutils11ERangeErrorD0Ev CODE
 0001:00015d30 0000004aH .text$_ZN6System11WideCharLenIwEEiPKT_ CODE
 0001:00015d80 0000004aH .text$_ZN6System11WideCharLenIDsEEiPKT_ CODE
 0001:00015dd0 00000059H .text$_ZN6System11AnsiStringTILt0EEC2EPKci CODE
 0001:00015e30 000000d0H .text$_ZN6System11AnsiStringTILt0EED2Ev CODE
 0001:00015f00 00000030H .text$_ZN6System11AnsiStringTILt0EEC2Ev CODE
 0001:00015f30 0000002aH .text$_ZN6System13UnicodeStringC2ILt0EEERKNS_11AnsiStringTIXT_EEE CODE
 0001:00015f60 00000046H .text$_ZN6System15DelphiInterfaceINS_14IEnumerator__1INS_13UnicodeStringEEEEC2ERKS4_ CODE
 0001:00015fb0 000000eaH .text$_ZN6System15DelphiInterfaceINS_14IEnumerator__1INS_13UnicodeStringEEEED2Ev CODE
 0001:000160a0 00000046H .text$_ZN6System15DelphiInterfaceINS_14IEnumerable__1INS_13UnicodeStringEEEEC2ERKS4_ CODE
 0001:000160f0 000000eaH .text$_ZN6System15DelphiInterfaceINS_14IEnumerable__1INS_13UnicodeStringEEEED2Ev CODE
 0001:000161e0 000000c1H .text$_ZN6System8Sysutils9EIntErrorC3ENS_13UnicodeStringE CODE
 0001:000162b0 000000c1H .text$_ZN6System8Sysutils9EExternalC3ENS_13UnicodeStringE CODE
 0001:00016380 00000048H .text$_ZN6System8Sysutils9EIntErrorD0Ev CODE
 0001:000163d0 00000048H .text$_ZN6System8Sysutils9EExternalD0Ev CODE
 0001:00016420 00000023H .text$_ZN6System11AnsiStringTILt0EEC2ERKS1_ CODE
 0001:00016450 00000012H .text$_ZN6System15DelphiInterfaceINS_14IEnumerator__1INS_13UnicodeStringEEEEC2Ev CODE
 0001:00016470 00000012H .text$_ZN6System15DelphiInterfaceINS_14IEnumerable__1INS_13UnicodeStringEEEEC2Ev CODE
 0001:00016490 000031f6H .text                   CODE
 0001:00019690 0000004aH .text$_ZN6System8_CharLenIwEEiPKT_ CODE
 0001:000196e0 0000004aH .text$_ZN6System8_CharLenIDsEEiPKT_ CODE
 0001:00019730 00000023H .text$_ZN6System14AnsiStringBaseC2ILt0EEEONS_11AnsiStringTIXT_EEE CODE
 0001:00019760 00000046H .text$_ZNK6System14AnsiStringBase8CodePageEv CODE
 0001:000197b0 0000003aH .text$_ZNK6System14AnsiStringBaseixEi CODE
 0001:000197f0 0000469bH .text                   CODE
 0001:0001de90 0000001dH .text$_ZTWL16exception_object CODE
 0001:0001deb0 000003d0H .text                   CODE
 0002:00000000 00000008H .rdata$__mingw_fe_dfl_env DATA
 0002:00000008 00000008H .rdata$__mingw_fe_pc64_env DATA
 0002:00000010 00000008H .rdata$__mingw_fe_pc53_env DATA
 0002:00000018 00000008H .rdata$.refptr._MINGW_INSTALL_DEBUG_MATHERR DATA
 0002:00000020 00000008H .rdata$.refptr.__ImageBase DATA
 0002:00000028 00000008H .rdata$.refptr.__dyn_tls_init_callback DATA
 0002:00000030 00000008H .rdata$.refptr.__globallocalestatus DATA
 0002:00000038 00000008H .rdata$.refptr.__mingw_app_type DATA
 0002:00000040 00000008H .rdata$.refptr.__mingw_initltsdrot_force DATA
 0002:00000048 00000008H .rdata$.refptr.__mingw_initltsdyn_force DATA
 0002:00000050 00000008H .rdata$.refptr.__mingw_initltssuo_force DATA
 0002:00000058 00000008H .rdata$.refptr.__mingw_oldexcpt_handler DATA
 0002:00000060 00000008H .rdata$.refptr.__native_startup_lock DATA
 0002:00000068 00000008H .rdata$.refptr.__native_startup_state DATA
 0002:00000070 00000008H .rdata$.refptr.__xc_a   DATA
 0002:00000078 00000008H .rdata$.refptr.__xc_z   DATA
 0002:00000080 00000008H .rdata$.refptr.__xi_a   DATA
 0002:00000088 00000008H .rdata$.refptr.__xi_z   DATA
 0002:00000090 00000008H .rdata$.refptr._commode DATA
 0002:00000098 00000008H .rdata$.refptr._dowildcard DATA
 0002:000000a0 00000008H .rdata$.refptr._fmode   DATA
 0002:000000a8 00000008H .rdata$.refptr._hInstance DATA
 0002:000000b0 00000008H .rdata$.refptr._newmode DATA
 0002:000000b8 000059f1H .rdata                  DATA
 0002:00005ab0 00000008H .rdata$.refptr.Form1    DATA
 0002:00005ab8 00000008H .rdata$.refptr._ZTRN6System8Sysutils9ExceptionE DATA
 0002:00005ac0 00000008H .rdata$.refptr._ZTV6TForm1 DATA
 0002:00005ac8 00000008H .rdata$.refptr._ZTVN6System8Sysutils9ExceptionE DATA
 0002:00005ad0 00002a10H .rdata                  DATA
 0002:000084e0 00000004H .rdata$_ZN6System7Uitypes14TAlphaColorRec4NullE DATA
 0002:000084e4 00000004H .rdata$_ZN6System7Uitypes14TAlphaColorRec5BlackE DATA
 0002:000084e8 00000004H .rdata$_ZN6System7Uitypes14TAlphaColorRec7SkyblueE DATA
 0002:000084f0 00000032H .rdata$_ZTR6TForm1      DATA
 0002:00008528 00000018H .rdata$_ZTISt12length_error DATA
 0002:00008540 00000011H .rdata$_ZTSSt12length_error DATA
 0002:00008558 00000018H .rdata$_ZTISt11logic_error DATA
 0002:00008570 00000010H .rdata$_ZTSSt11logic_error DATA
 0002:00008580 00000010H .rdata$_ZTISt9exception DATA
 0002:00008590 0000000dH .rdata$_ZTSSt9exception DATA
 0002:000085a0 00000018H .rdata$_ZTISt20bad_array_new_length DATA
 0002:000085b8 00000019H .rdata$_ZTSSt20bad_array_new_length DATA
 0002:000085d8 00000018H .rdata$_ZTISt9bad_alloc DATA
 0002:000085f0 0000000dH .rdata$_ZTSSt9bad_alloc DATA
 0002:00008600 00000190H .rdata$_ZTVN6System20TCppInterfacedObjectINS_8Sysutils5TProcE8IUnknownNS_10IInterfaceEEE DATA
 0002:00008790 00000046H .rdata$_ZTRN6System20TCppInterfacedObjectINS_8Sysutils5TProcE8IUnknownNS_10IInterfaceEEE DATA
 0002:000087e0 0000003fH .rdata$_ZTRN6System13InvokeWrapperINS_8Sysutils5TProcEZN6TForm124AtualizarTelemetriaAsyncEvE3$_0MS4_KFvvEEE DATA
 0002:00008820 00000035H .rdata$_ZTR8IUnknown    DATA
 0002:00008860 00000037H .rdata$_ZTRN6System10IInterfaceE DATA
 0002:000088a0 00000032H .rdata$_ZTRN6System8Sysutils5TProcE DATA
 0002:000088d8 00000030H .rdata$_ZTVN6System8Sysutils5TProcE DATA
 0002:00008908 00000018H .rdata$_ZTIN6System8Sysutils5TProcE DATA
 0002:00008920 00000019H .rdata$_ZTSN6System8Sysutils5TProcE DATA
 0002:00008940 00000018H .rdata$_ZTIN6System10IInterfaceE DATA
 0002:00008958 00000016H .rdata$_ZTSN6System10IInterfaceE DATA
 0002:00008970 00000010H .rdata$_ZTI8IUnknown    DATA
 0002:00008980 0000000aH .rdata$_ZTS8IUnknown    DATA
 0002:00008990 00000028H .rdata$_ZTV8IUnknown    DATA
 0002:000089b8 00000028H .rdata$_ZTVN6System10IInterfaceE DATA
 0002:000089e0 00000198H .rdata$_ZTVN6System20TCppInterfacedObjectINS_7Classes16TThreadProcedureE8IUnknownNS_10IInterfaceEEE DATA
 0002:00008b80 00000046H .rdata$_ZTRN6System20TCppInterfacedObjectINS_7Classes16TThreadProcedureE8IUnknownNS_10IInterfaceEEE DATA
 0002:00008bd0 0000003fH .rdata$_ZTRN6System13InvokeWrapperINS_7Classes16TThreadProcedureEZZN6TForm124AtualizarTelemetriaAsyncEvENK3$_0clEvEUlvE_MS5_KFvvEEE DATA
 0002:00008c10 0000003dH .rdata$_ZTRN6System7Classes16TThreadProcedureE DATA
 0002:00008c50 00000030H .rdata$_ZTVN6System7Classes16TThreadProcedureE DATA
 0002:00008c80 00000018H .rdata$_ZTIN6System7Classes16TThreadProcedureE DATA
 0002:00008c98 00000024H .rdata$_ZTSN6System7Classes16TThreadProcedureE DATA
 0002:00008cbc 00000004H .rdata$_ZN6System7Uitypes14TAlphaColorRec6YellowE DATA
 0002:00008cc0 00000004H .rdata$_ZN6System7Uitypes14TAlphaColorRec3RedE DATA
 0002:00008cc8 00000008H .rdata$.refptr._ZN6System10_init_instE DATA
 0002:00008cd0 00000008H .rdata$.refptr._ZTVN3Fmx15Materialsources20TLightMaterialSourceE DATA
 0002:00008cd8 00000008H .rdata$.refptr._ZTVN3Fmx8Graphics7TBitmapE DATA
 0002:00008ce0 00000008H .rdata$.refptr._ZTVN3Fmx9Objects3d7TSphereE DATA
 0002:00008ce8 00000008H .rdata$.refptr._ZTVN6System3Net19Httpclientcomponent14TNetHTTPClientE DATA
 0002:00008cf0 00000008H .rdata$.refptr._ZTVN6System7Classes11TStringListE DATA
 0002:00008cf8 00000008H .rdata$.refptr._ZTVN6System7Classes13TStringStreamE DATA
 0002:00008d00 00000014H .rdata                  DATA
 0002:00008d18 00000008H .rdata$.refptr.__imp___winitenv DATA
 0002:00008d20 00000048H .rdata                  DATA
 0002:00008d68 00000008H .rdata$.refptr._CRT_MT  DATA
 0002:00008d70 00000008H .rdata$.refptr.__CTOR_LIST__ DATA
 0002:00008d78 0000026dH .rdata                  DATA
 0002:00008fe8 00000008H .rdata$.refptr.__RUNTIME_PSEUDO_RELOC_LIST_END__ DATA
 0002:00008ff0 00000008H .rdata$.refptr.__RUNTIME_PSEUDO_RELOC_LIST__ DATA
 0002:00008ff8 00000008H .rdata$.refptr._mngr    DATA
 0002:00009000 00000008H .rdata$.refptr._mngr_set DATA
 0002:00009008 000001b2H .rdata                  DATA
 0002:000091ba 00000001H .rdata$_ZNSt3__119piecewise_constructE DATA
 0002:000091c0 00000008H .rdata$.refptr._ZTRN6System8Sysutils11ERangeErrorE DATA
 0002:000091c8 00000008H .rdata$.refptr._ZTVN6System8Sysutils11ERangeErrorE DATA
 0002:000091d0 000055c0H .rdata                  DATA
 0002:0000e790 00000008H .rdata$.refptr.__EMBT_INIT_LIST_BEGIN__ DATA
 0002:0000e798 00000008H .rdata$.refptr.__EMBT_INIT_LIST_END__ DATA
 0002:0000e7a0 00000008H .rdata$.refptr.__isDLL  DATA
 0002:0000e7a8 00000008H .rdata$.refptr.__isGUI  DATA
 0002:0000e7b0 00000008H .rdata$.refptr.__isVCLPackage DATA
 0002:0000e7b8 000003c8H .rdata                  DATA
 0002:0000ec58 00000010H .00cfg                  DATA
 0002:0000ec68 00000008H .CRT$XCA                DATA
 0002:0000ec70 00000008H .CRT$XCAA               DATA
 0002:0000ec78 00000008H .CRT$XCZ                DATA
 0002:0000ec80 00000008H .CRT$XDA                DATA
 0002:0000ec88 00000008H .CRT$XDZ                DATA
 0002:0000ec90 00000008H .CRT$XIA                DATA
 0002:0000ec98 00000008H .CRT$XIA0               DATA
 0002:0000eca0 00000008H .CRT$XIAA               DATA
 0002:0000eca8 00000008H .CRT$XIZ                DATA
 0002:0000ecb0 00000008H .CRT$XLA                DATA
 0002:0000ecb8 00000008H .CRT$XLC                DATA
 0002:0000ecc0 00000008H .CRT$XLD                DATA
 0002:0000ecc8 00000008H .CRT$XLZ                DATA
 0002:0000ecd8 00000008H .ctors.65435            DATA
 0002:0000ecf0 00000008H .dtors.65435            DATA
 0002:0001c334 00000258H .xdata                  DATA
 0002:0001c58c 00000008H .xdata$_ZN6System7Classes15TComponentClassC1EPNS_10TMetaClassE DATA
 0002:0001c594 00000008H .xdata$__clang_call_terminate DATA
 0002:0001c59c 00000008H .xdata$_ZN6System7Classes15TComponentClassC2EPNS_10TMetaClassE DATA
 0002:0001c5a4 00000008H .xdata$_ZN6System15DelphiMetaClassINS_7Classes15TComponentClassEEC2EPNS_10TMetaClassE DATA
 0002:0001c5ac 000005dcH .xdata                  DATA
 0002:0001cb88 00000020H .xdata$_ZN6System13UnicodeStringaSEOS0_ DATA
 0002:0001cba8 0000001cH .xdata$_ZNSt3__16vectorIPN3Fmx9Objects3d7TSphereENS_9allocatorIS4_EEE22__construct_one_at_endB8ne200100IJRKS4_EEEvDpOT_ DATA
 0002:0001cbc4 00000020H .xdata$_ZNSt3__16vectorIPN3Fmx9Objects3d7TSphereENS_9allocatorIS4_EEE24__emplace_back_slow_pathIJRKS4_EEEPS4_DpOT_ DATA
 0002:0001cbe4 00000020H .xdata$_ZNKSt3__16vectorIPN3Fmx9Objects3d7TSphereENS_9allocatorIS4_EEE8max_sizeB8ne200100Ev DATA
 0002:0001cc04 0000001cH .xdata$_ZNSt3__120__throw_length_errorB8ne200100EPKc DATA
 0002:0001cc20 00000020H .xdata$_ZNSt3__114__split_bufferIPN3Fmx9Objects3d7TSphereERNS_9allocatorIS4_EEED2Ev DATA
 0002:0001cc40 00000020H .xdata$_ZNSt3__114__split_bufferIPN3Fmx9Objects3d7TSphereERNS_9allocatorIS4_EEE17__destruct_at_endB8ne200100EPS4_NS_17integral_constantIbLb0EEE DATA
 0002:0001cc60 00000020H .xdata$_ZNSt3__16vectorIPN3Fmx9Objects3d7TSphereENS_9allocatorIS4_EEE22__base_destruct_at_endB8ne200100EPS4_ DATA
 0002:0001cc80 00000020H .xdata$_ZNSt3__113__rewrap_iterB8ne200100IPPN3Fmx9Objects3d7TSphereES5_NS_18__unwrap_iter_implIS5_Lb1EEEEET_S8_T0_ DATA
 0002:0001cca0 00000020H .xdata$_ZNSt3__16vectorIPN3Fmx9Objects3d7TSphereENS_9allocatorIS4_EEED2B8ne200100Ev DATA
 0002:0001ccc0 00000024H .xdata$_ZN6System15DelphiInterfaceINS_8Sysutils5TProcEED2Ev DATA
 0002:0001cce4 00000020H .xdata$_ZN6System12DynamicArrayINS_3Net9Urlclient14TNameValuePairEED2Ev DATA
 0002:0001cd04 00000024H .xdata$_ZN6System15DelphiInterfaceINS_3Net10Httpclient13IHTTPResponseEED2Ev DATA
 0002:0001cd28 00000024H .xdata$_ZN6System15DelphiInterfaceINS_9Threading5ITaskEED2Ev DATA
 0002:0001cd4c 00000020H .xdata$_ZN6System13UnicodeStringC2EOS0_ DATA
 0002:0001cd6c 00000024H .xdata$_ZN6System15DelphiInterfaceINS_7Classes16TThreadProcedureEED2Ev DATA
 0002:0001cd90 00000008H .xdata$_ZN3Fmx5Forms5TFormC3EPN6System7Classes10TComponentE DATA
 0002:0001cd98 00000008H .xdata$_ZNSt3__16atomicIbEC1B8ne200100Eb DATA
 0002:0001cda0 00000008H .xdata$_ZNSt3__16vectorIPN3Fmx9Objects3d7TSphereENS_9allocatorIS4_EEEC1B8ne200100Ev DATA
 0002:0001cda8 00000008H .xdata$_ZNSt3__16atomicIbEaSB8ne200100Eb DATA
 0002:0001cdb0 00000008H .xdata$_ZNSt3__16__math3sinB8ne200100Ef DATA
 0002:0001cdb8 00000008H .xdata$_ZNSt3__16__math3cosB8ne200100Ef DATA
 0002:0001cdc0 00000008H .xdata$_ZN6System13UnicodeStringC1Ei DATA
 0002:0001cdc8 00000008H .xdata$_ZNSt3__16vectorIPN3Fmx9Objects3d7TSphereENS_9allocatorIS4_EEE9push_backB8ne200100ERKS4_ DATA
 0002:0001cdd0 00000008H .xdata$_ZNKSt3__16vectorIPN3Fmx9Objects3d7TSphereENS_9allocatorIS4_EEE4sizeB8ne200100Ev DATA
 0002:0001cdd8 00000008H .xdata$_ZNSt3__16vectorIPN3Fmx9Objects3d7TSphereENS_9allocatorIS4_EEEixB8ne200100Ey DATA
 0002:0001cde0 00000008H .xdata$_ZNSt3__16vectorIPN3Fmx9Objects3d7TSphereENS_9allocatorIS4_EEE5eraseB8ne200100ENS_11__wrap_iterIPKS4_EE DATA
 0002:0001cde8 00000008H .xdata$_ZNSt3__16vectorIPN3Fmx9Objects3d7TSphereENS_9allocatorIS4_EEE5beginB8ne200100Ev DATA
 0002:0001cdf0 00000008H .xdata$_ZNSt3__111__wrap_iterIPKPN3Fmx9Objects3d7TSphereEEC1B8ne200100IPS4_TnNS_9enable_ifIXsr4_AndINS_14is_convertibleIRKT_S6_EENS_7_OrImplIXaantcvbsr7is_sameIRS5_NS_15iterator_traitsISC_E9referenceEEE5valuenesZT1_Li0EEE7_ResultINS_7is_sameISH_SK_EENSN_ISH_RKu20__remove_reference_tISK_EEEEEEE5valueEiE4typeELi0EEERKNS0_ISC_EE DATA
 0002:0001cdf8 00000008H .xdata$_ZN6System12DynamicArrayINS_3Net9Urlclient14TNameValuePairEEC1Ev DATA
 0002:0001ce00 00000008H .xdata$_ZN6System15DelphiInterfaceINS_3Net10Httpclient13IHTTPResponseEEC1Ev DATA
 0002:0001ce08 00000008H .xdata$_ZN6System15DelphiInterfaceINS_3Net10Httpclient13IHTTPResponseEED1Ev DATA
 0002:0001ce10 00000008H .xdata$_ZN6System12DynamicArrayINS_3Net9Urlclient14TNameValuePairEED1Ev DATA
 0002:0001ce18 00000020H .xdata$_ZN6System13UnicodeStringaSEOS0_ DATA
 0002:0001ce38 00000008H .xdata$_ZNSt3__113__atomic_baseIbLb0EE8exchangeB8ne200100EbNS_12memory_orderE DATA
 0002:0001ce40 00000008H .xdata$_ZN6System15DelphiInterfaceINS_9Threading5ITaskEEC1Ev DATA
 0002:0001ce48 00000008H .xdata$_ZN6System15DelphiInterfaceINS_9Threading5ITaskEED1Ev DATA
 0002:0001ce50 00000008H .xdata$_ZN6System15DelphiInterfaceINS_8Sysutils5TProcEED1Ev DATA
 0002:0001ce58 00000008H .xdata$_ZN6TForm1D0Ev   DATA
 0002:0001ce60 00000008H .xdata$_ZN3Fmx5Forms5TFormC3EPN6System7Classes10TComponentEx DATA
 0002:0001ce68 00000008H .xdata$_ZNSt3__16atomicIbEC2B8ne200100Eb DATA
 0002:0001ce70 00000008H .xdata$_ZNSt3__113__atomic_baseIbLb0EEC2B8ne200100Eb DATA
 0002:0001ce78 00000008H .xdata$_ZNSt3__117__cxx_atomic_implIbNS_22__cxx_atomic_base_implIbEEEC1B8ne200100Eb DATA
 0002:0001ce80 00000008H .xdata$_ZNSt3__117__cxx_atomic_implIbNS_22__cxx_atomic_base_implIbEEEC2B8ne200100Eb DATA
 0002:0001ce88 00000008H .xdata$_ZNSt3__122__cxx_atomic_base_implIbEC2Eb DATA
 0002:0001ce90 00000008H .xdata$_ZNSt3__16vectorIPN3Fmx9Objects3d7TSphereENS_9allocatorIS4_EEEC2B8ne200100Ev DATA
 0002:0001ce98 00000008H .xdata$_ZNSt3__19allocatorIPN3Fmx9Objects3d7TSphereEEC1B8ne200100Ev DATA
 0002:0001cea0 00000008H .xdata$_ZNSt3__19allocatorIPN3Fmx9Objects3d7TSphereEEC2B8ne200100Ev DATA
 0002:0001cea8 00000008H .xdata$_ZNSt3__116__non_trivial_ifILb1ENS_9allocatorIPN3Fmx9Objects3d7TSphereEEEEC2B8ne200100Ev DATA
 0002:0001ceb0 00000008H .xdata$_ZN6System13UnicodeStringC2Ei DATA
 0002:0001ceb8 00000008H .xdata$_ZNSt3__16vectorIPN3Fmx9Objects3d7TSphereENS_9allocatorIS4_EEE12emplace_backIJRKS4_EEERS4_DpOT_ DATA
 0002:0001cec0 0000001cH .xdata$_ZNSt3__16vectorIPN3Fmx9Objects3d7TSphereENS_9allocatorIS4_EEE22__construct_one_at_endB8ne200100IJRKS4_EEEvDpOT_ DATA
 0002:0001cedc 00000020H .xdata$_ZNSt3__16vectorIPN3Fmx9Objects3d7TSphereENS_9allocatorIS4_EEE24__emplace_back_slow_pathIJRKS4_EEEPS4_DpOT_ DATA
 0002:0001cefc 00000008H .xdata$_ZNSt3__16vectorIPN3Fmx9Objects3d7TSphereENS_9allocatorIS4_EEE21_ConstructTransactionC1B8ne200100ERS7_y DATA
 0002:0001cf04 00000008H .xdata$_ZNSt3__116allocator_traitsINS_9allocatorIPN3Fmx9Objects3d7TSphereEEEE9constructB8ne200100IS5_JRKS5_EvTnNS_9enable_ifIXntsr15__has_constructIS6_PT_DpT0_EE5valueEiE4typeELi0EEEvRS6_SD_DpOSE_ DATA
 0002:0001cf0c 00000008H .xdata$_ZNSt3__112__to_addressB8ne200100IPN3Fmx9Objects3d7TSphereEEEPT_S6_ DATA
 0002:0001cf14 00000008H .xdata$_ZNSt3__16vectorIPN3Fmx9Objects3d7TSphereENS_9allocatorIS4_EEE21_ConstructTransactionD1B8ne200100Ev DATA
 0002:0001cf1c 00000008H .xdata$_ZNSt3__16vectorIPN3Fmx9Objects3d7TSphereENS_9allocatorIS4_EEE21_ConstructTransactionC2B8ne200100ERS7_y DATA
 0002:0001cf24 00000008H .xdata$_ZNSt3__114__construct_atB8ne200100IPN3Fmx9Objects3d7TSphereEJRKS4_EPS4_EEPT_S9_DpOT0_ DATA
 0002:0001cf2c 00000008H .xdata$_ZNSt3__112construct_atB8ne200100IPN3Fmx9Objects3d7TSphereEJRKS4_EPS4_EEPT_S9_DpOT0_ DATA
 0002:0001cf34 00000008H .xdata$_ZNSt3__16vectorIPN3Fmx9Objects3d7TSphereENS_9allocatorIS4_EEE21_ConstructTransactionD2B8ne200100Ev DATA
 0002:0001cf3c 00000008H .xdata$_ZNKSt3__16vectorIPN3Fmx9Objects3d7TSphereENS_9allocatorIS4_EEE11__recommendB8ne200100Ey DATA
 0002:0001cf44 00000008H .xdata$_ZNSt3__114__split_bufferIPN3Fmx9Objects3d7TSphereERNS_9allocatorIS4_EEEC1EyyS7_ DATA
 0002:0001cf4c 00000008H .xdata$_ZNSt3__16vectorIPN3Fmx9Objects3d7TSphereENS_9allocatorIS4_EEE26__swap_out_circular_bufferERNS_14__split_bufferIS4_RS6_EE DATA
 0002:0001cf54 00000008H .xdata$_ZNSt3__114__split_bufferIPN3Fmx9Objects3d7TSphereERNS_9allocatorIS4_EEED1Ev DATA
 0002:0001cf5c 00000020H .xdata$_ZNKSt3__16vectorIPN3Fmx9Objects3d7TSphereENS_9allocatorIS4_EEE8max_sizeB8ne200100Ev DATA
 0002:0001cf7c 00000008H .xdata$_ZNSt3__16vectorIPN3Fmx9Objects3d7TSphereENS_9allocatorIS4_EEE20__throw_length_errorB8ne200100Ev DATA
 0002:0001cf84 00000008H .xdata$_ZNKSt3__16vectorIPN3Fmx9Objects3d7TSphereENS_9allocatorIS4_EEE8capacityB8ne200100Ev DATA
 0002:0001cf8c 00000008H .xdata$_ZNSt3__13maxB8ne200100IyEERKT_S3_S3_ DATA
 0002:0001cf94 00000008H .xdata$_ZNSt3__13minB8ne200100IyEERKT_S3_S3_ DATA
 0002:0001cf9c 00000008H .xdata$_ZNSt3__116allocator_traitsINS_9allocatorIPN3Fmx9Objects3d7TSphereEEEE8max_sizeB8ne200100IS6_vTnNS_9enable_ifIXntsr14__has_max_sizeIKT_EE5valueEiE4typeELi0EEEyRKS6_ DATA
 0002:0001cfa4 00000008H .xdata$_ZNSt3__114numeric_limitsIxE3maxB8ne200100Ev DATA
 0002:0001cfac 00000008H .xdata$_ZNSt3__13minB8ne200100IyNS_6__lessIvvEEEERKT_S5_S5_T0_ DATA
 0002:0001cfb4 00000008H .xdata$_ZNKSt3__16__lessIvvEclB8ne200100IyyEEbRKT_RKT0_ DATA
 0002:0001cfbc 00000008H .xdata$_ZNSt3__114numeric_limitsIyE3maxB8ne200100Ev DATA
 0002:0001cfc4 0000001cH .xdata$_ZNSt3__120__throw_length_errorB8ne200100EPKc DATA
 0002:0001cfe0 00000008H .xdata$_ZNSt12length_errorC1B8ne200100EPKc DATA
 0002:0001cfe8 00000008H .xdata$_ZNSt12length_errorC2B8ne200100EPKc DATA
 0002:0001cff0 00000008H .xdata$_ZNSt3__13maxB8ne200100IyNS_6__lessIvvEEEERKT_S5_S5_T0_ DATA
 0002:0001cff8 00000008H .xdata$_ZNSt3__114__split_bufferIPN3Fmx9Objects3d7TSphereERNS_9allocatorIS4_EEEC2EyyS7_ DATA
 0002:0001d000 00000008H .xdata$_ZNSt3__119__allocate_at_leastB8ne200100INS_9allocatorIPN3Fmx9Objects3d7TSphereEEEEEDaRT_y DATA
 0002:0001d008 00000008H .xdata$_ZNSt3__116allocator_traitsINS_9allocatorIPN3Fmx9Objects3d7TSphereEEEE17allocate_at_leastB8ne200100IS6_EENS_17allocation_resultIPS5_yEERT_y DATA
 0002:0001d010 00000008H .xdata$_ZNSt3__19allocatorIPN3Fmx9Objects3d7TSphereEE17allocate_at_leastB8ne200100Ey DATA
 0002:0001d018 00000008H .xdata$_ZNSt3__19allocatorIPN3Fmx9Objects3d7TSphereEE8allocateB8ne200100Ey DATA
 0002:0001d020 00000008H .xdata$_ZSt28__throw_bad_array_new_lengthB8ne200100v DATA
 0002:0001d028 00000008H .xdata$_ZNSt3__117__libcpp_allocateB8ne200100IPN3Fmx9Objects3d7TSphereEEEPT_NS_15__element_countEy DATA
 0002:0001d030 00000008H .xdata$_ZNSt3__124__is_overaligned_for_newB8ne200100Ey DATA
 0002:0001d038 00000008H .xdata$_ZNSt3__121__libcpp_operator_newB8ne200100IJySt11align_val_tEEEPvDpT_ DATA
 0002:0001d040 00000008H .xdata$_ZNSt3__121__libcpp_operator_newB8ne200100IJyEEEPvDpT_ DATA
 0002:0001d048 00000008H .xdata$_ZNKSt3__16vectorIPN3Fmx9Objects3d7TSphereENS_9allocatorIS4_EEE17__annotate_deleteB8ne200100Ev DATA
 0002:0001d050 00000008H .xdata$_ZNSt3__134__uninitialized_allocator_relocateB8ne200100INS_9allocatorIPN3Fmx9Objects3d7TSphereEEEPS5_EEvRT_T0_SA_SA_ DATA
 0002:0001d058 00000008H .xdata$_ZNSt3__14swapB8ne200100IPPN3Fmx9Objects3d7TSphereEEENS_9enable_ifIXaasr21is_move_constructibleIT_EE5valuesr18is_move_assignableIS7_EE5valueEvE4typeERS7_SA_ DATA
 0002:0001d060 00000008H .xdata$_ZNKSt3__16vectorIPN3Fmx9Objects3d7TSphereENS_9allocatorIS4_EEE14__annotate_newB8ne200100Ey DATA
 0002:0001d068 00000020H .xdata$_ZNSt3__114__split_bufferIPN3Fmx9Objects3d7TSphereERNS_9allocatorIS4_EEED2Ev DATA
 0002:0001d088 00000008H .xdata$_ZNSt3__114__split_bufferIPN3Fmx9Objects3d7TSphereERNS_9allocatorIS4_EEE5clearB8ne200100Ev DATA
 0002:0001d090 00000008H .xdata$_ZNSt3__116allocator_traitsINS_9allocatorIPN3Fmx9Objects3d7TSphereEEEE10deallocateB8ne200100ERS6_PS5_y DATA
 0002:0001d098 00000008H .xdata$_ZNKSt3__114__split_bufferIPN3Fmx9Objects3d7TSphereERNS_9allocatorIS4_EEE8capacityB8ne200100Ev DATA
 0002:0001d0a0 00000008H .xdata$_ZNSt3__114__split_bufferIPN3Fmx9Objects3d7TSphereERNS_9allocatorIS4_EEE17__destruct_at_endB8ne200100EPS4_ DATA
 0002:0001d0a8 00000020H .xdata$_ZNSt3__114__split_bufferIPN3Fmx9Objects3d7TSphereERNS_9allocatorIS4_EEE17__destruct_at_endB8ne200100EPS4_NS_17integral_constantIbLb0EEE DATA
 0002:0001d0c8 00000008H .xdata$_ZNSt3__116allocator_traitsINS_9allocatorIPN3Fmx9Objects3d7TSphereEEEE7destroyB8ne200100IS5_vTnNS_9enable_ifIXntsr13__has_destroyIS6_PT_EE5valueEiE4typeELi0EEEvRS6_SB_ DATA
 0002:0001d0d0 00000008H .xdata$_ZNSt3__112__destroy_atB8ne200100IPN3Fmx9Objects3d7TSphereETnNS_9enable_ifIXntsr8is_arrayIT_EE5valueEiE4typeELi0EEEvPS6_ DATA
 0002:0001d0d8 00000008H .xdata$_ZNSt3__19allocatorIPN3Fmx9Objects3d7TSphereEE10deallocateB8ne200100EPS4_y DATA
 0002:0001d0e0 00000008H .xdata$_ZNSt3__119__libcpp_deallocateB8ne200100IPN3Fmx9Objects3d7TSphereEEEvPNS_15__type_identityIT_E4typeENS_15__element_countEy DATA
 0002:0001d0e8 00000008H .xdata$_ZNSt3__124__libcpp_operator_deleteB8ne200100IJPPN3Fmx9Objects3d7TSphereESt11align_val_tEEEvDpT_ DATA
 0002:0001d0f0 00000008H .xdata$_ZNSt3__124__libcpp_operator_deleteB8ne200100IJPPN3Fmx9Objects3d7TSphereEEEEvDpT_ DATA
 0002:0001d0f8 00000008H .xdata$_ZNSt3__1miB8ne200100IPKPN3Fmx9Objects3d7TSphereES6_EEDTmicldtfp_4baseEcldtfp0_4baseEERKNS_11__wrap_iterIT_EERKNS8_IT0_EE DATA
 0002:0001d100 00000008H .xdata$_ZNKSt3__16vectorIPN3Fmx9Objects3d7TSphereENS_9allocatorIS4_EEE6cbeginB8ne200100Ev DATA
 0002:0001d108 00000008H .xdata$_ZNSt3__16vectorIPN3Fmx9Objects3d7TSphereENS_9allocatorIS4_EEE17__destruct_at_endB8ne200100EPS4_ DATA
 0002:0001d110 00000008H .xdata$_ZNSt3__14moveB8ne200100IPPN3Fmx9Objects3d7TSphereES5_EET0_T_S7_S6_ DATA
 0002:0001d118 00000008H .xdata$_ZNSt3__16vectorIPN3Fmx9Objects3d7TSphereENS_9allocatorIS4_EEE11__make_iterB8ne200100EPS4_ DATA
 0002:0001d120 00000008H .xdata$_ZNKSt3__111__wrap_iterIPKPN3Fmx9Objects3d7TSphereEE4baseB8ne200100Ev DATA
 0002:0001d128 00000008H .xdata$_ZNKSt3__16vectorIPN3Fmx9Objects3d7TSphereENS_9allocatorIS4_EEE5beginB8ne200100Ev DATA
 0002:0001d130 00000008H .xdata$_ZNKSt3__16vectorIPN3Fmx9Objects3d7TSphereENS_9allocatorIS4_EEE11__make_iterB8ne200100EPKS4_ DATA
 0002:0001d138 00000008H .xdata$_ZNSt3__16vectorIPN3Fmx9Objects3d7TSphereENS_9allocatorIS4_EEE26__add_alignment_assumptionB8ne200100IPS4_TnNS_9enable_ifIXsr10is_pointerIT_EE5valueEiE4typeELi0EEES9_SB_ DATA
 0002:0001d140 00000008H .xdata$_ZNSt3__111__wrap_iterIPKPN3Fmx9Objects3d7TSphereEEC1B8ne200100ES6_ DATA
 0002:0001d148 00000008H .xdata$_ZNSt3__111__wrap_iterIPKPN3Fmx9Objects3d7TSphereEEC2B8ne200100ES6_ DATA
 0002:0001d150 00000020H .xdata$_ZNSt3__16vectorIPN3Fmx9Objects3d7TSphereENS_9allocatorIS4_EEE22__base_destruct_at_endB8ne200100EPS4_ DATA
 0002:0001d170 00000008H .xdata$_ZNKSt3__16vectorIPN3Fmx9Objects3d7TSphereENS_9allocatorIS4_EEE17__annotate_shrinkB8ne200100Ey DATA
 0002:0001d178 00000008H .xdata$_ZNSt3__16__moveB8ne200100INS_17_ClassicAlgPolicyEPPN3Fmx9Objects3d7TSphereES6_S6_EENS_4pairIT0_T2_EES8_T1_S9_ DATA
 0002:0001d180 00000008H .xdata$_ZNSt3__124__copy_move_unwrap_itersB8ne200100INS_11__move_implINS_17_ClassicAlgPolicyEEEPPN3Fmx9Objects3d7TSphereES8_S8_TnNS_9enable_ifIXsr12__can_rewrapIT0_T2_EE5valueEiE4typeELi0EEENS_4pairISA_SB_EESA_T1_SB_ DATA
 0002:0001d188 00000008H .xdata$_ZNSt3__114__unwrap_rangeB8ne200100IPPN3Fmx9Objects3d7TSphereES5_EEDaT_T0_ DATA
 0002:0001d190 00000008H .xdata$_ZNKSt3__111__move_implINS_17_ClassicAlgPolicyEEclB8ne200100IPN3Fmx9Objects3d7TSphereES7_TnNS_9enable_ifIXsr38__can_lower_move_assignment_to_memmoveIT_T0_EE5valueEiE4typeELi0EEENS_4pairIPS9_PSA_EESE_SE_SF_ DATA
 0002:0001d198 00000008H .xdata$_ZNSt3__113__unwrap_iterB8ne200100IPPN3Fmx9Objects3d7TSphereENS_18__unwrap_iter_implIS5_Lb1EEETnNS_9enable_ifIXsr21is_copy_constructibleIT_EE5valueEiE4typeELi0EEEDTclsrT0_8__unwrapclsr3stdE7declvalIS9_EEEES9_ DATA
 0002:0001d1a0 00000008H .xdata$_ZNSt3__19make_pairB8ne200100IPPN3Fmx9Objects3d7TSphereES5_EENS_4pairINS_18__unwrap_referenceIu7__decayIT_EE4typeENS7_Iu7__decayIT0_EE4typeEEEOS8_OSC_ DATA
 0002:0001d1a8 00000008H .xdata$_ZNSt3__114__rewrap_rangeB8ne200100IPPN3Fmx9Objects3d7TSphereES5_S5_EET0_S6_T1_ DATA
 0002:0001d1b0 00000020H .xdata$_ZNSt3__113__rewrap_iterB8ne200100IPPN3Fmx9Objects3d7TSphereES5_NS_18__unwrap_iter_implIS5_Lb1EEEEET_S8_T0_ DATA
 0002:0001d1d0 00000008H .xdata$_ZNSt3__119__unwrap_range_implIPPN3Fmx9Objects3d7TSphereES5_E8__unwrapB8ne200100ES5_S5_ DATA
 0002:0001d1d8 00000008H .xdata$_ZNSt3__14pairIPPN3Fmx9Objects3d7TSphereES5_EC1B8ne200100IS5_S5_TnNS_9enable_ifIXclsr10_CheckArgsE23__is_pair_constructibleIT_T0_EEEiE4typeELi0EEEOS9_OSA_ DATA
 0002:0001d1e0 00000008H .xdata$_ZNSt3__14pairIPPN3Fmx9Objects3d7TSphereES5_EC2B8ne200100IS5_S5_TnNS_9enable_ifIXclsr10_CheckArgsE23__is_pair_constructibleIT_T0_EEEiE4typeELi0EEEOS9_OSA_ DATA
 0002:0001d1e8 00000008H .xdata$_ZNSt3__119__copy_trivial_implB8ne200100IPN3Fmx9Objects3d7TSphereES4_EENS_4pairIPT_PT0_EES7_S7_S9_ DATA
 0002:0001d1f0 00000008H .xdata$_ZNSt3__119__constexpr_memmoveB8ne200100IPN3Fmx9Objects3d7TSphereES4_TnNS_9enable_ifIXsr23__is_always_bitcastableIT0_T_EE5valueEiE4typeELi0EEEPS7_SA_PS6_NS_15__element_countE DATA
 0002:0001d1f8 00000008H .xdata$_ZNSt3__19make_pairB8ne200100IRPPN3Fmx9Objects3d7TSphereES5_EENS_4pairINS_18__unwrap_referenceIu7__decayIT_EE4typeENS8_Iu7__decayIT0_EE4typeEEEOS9_OSD_ DATA
 0002:0001d200 00000008H .xdata$_ZNSt3__14pairIPPN3Fmx9Objects3d7TSphereES5_EC1B8ne200100IRS5_S5_TnNS_9enable_ifIXclsr10_CheckArgsE23__is_pair_constructibleIT_T0_EEEiE4typeELi0EEEOSA_OSB_ DATA
 0002:0001d208 00000008H .xdata$_ZNSt3__14pairIPPN3Fmx9Objects3d7TSphereES5_EC2B8ne200100IRS5_S5_TnNS_9enable_ifIXclsr10_CheckArgsE23__is_pair_constructibleIT_T0_EEEiE4typeELi0EEEOSA_OSB_ DATA
 0002:0001d210 00000008H .xdata$_ZNSt3__118__unwrap_iter_implIPPN3Fmx9Objects3d7TSphereELb1EE8__unwrapB8ne200100ES5_ DATA
 0002:0001d218 00000008H .xdata$_ZNSt3__119__unwrap_range_implIPPN3Fmx9Objects3d7TSphereES5_E8__rewrapB8ne200100ES5_S5_ DATA
 0002:0001d220 00000008H .xdata$_ZNSt3__118__unwrap_iter_implIPPN3Fmx9Objects3d7TSphereELb1EE8__rewrapB8ne200100ES5_S5_ DATA
 0002:0001d228 00000008H .xdata$_ZNSt3__111__wrap_iterIPPN3Fmx9Objects3d7TSphereEEC1B8ne200100ES5_ DATA
 0002:0001d230 00000008H .xdata$_ZNSt3__111__wrap_iterIPPN3Fmx9Objects3d7TSphereEEC2B8ne200100ES5_ DATA
 0002:0001d238 00000008H .xdata$_ZNSt3__111__wrap_iterIPKPN3Fmx9Objects3d7TSphereEEC2B8ne200100IPS4_TnNS_9enable_ifIXsr4_AndINS_14is_convertibleIRKT_S6_EENS_7_OrImplIXaantcvbsr7is_sameIRS5_NS_15iterator_traitsISC_E9referenceEEE5valuenesZT1_Li0EEE7_ResultINS_7is_sameISH_SK_EENSN_ISH_RKu20__remove_reference_tISK_EEEEEEE5valueEiE4typeELi0EEERKNS0_ISC_EE DATA
 0002:0001d240 00000008H .xdata$_ZNSt3__16vectorIPN3Fmx9Objects3d7TSphereENS_9allocatorIS4_EEED1B8ne200100Ev DATA
 0002:0001d248 00000008H .xdata$_ZN3Fmx5Forms5TFormD0Ev DATA
 0002:0001d250 00000020H .xdata$_ZNSt3__16vectorIPN3Fmx9Objects3d7TSphereENS_9allocatorIS4_EEED2B8ne200100Ev DATA
 0002:0001d270 00000008H .xdata$_ZNSt3__16vectorIPN3Fmx9Objects3d7TSphereENS_9allocatorIS4_EEE16__destroy_vectorC1B8ne200100ERS7_ DATA
 0002:0001d278 00000008H .xdata$_ZNSt3__16vectorIPN3Fmx9Objects3d7TSphereENS_9allocatorIS4_EEE16__destroy_vectorclB8ne200100Ev DATA
 0002:0001d280 00000008H .xdata$_ZNSt3__16vectorIPN3Fmx9Objects3d7TSphereENS_9allocatorIS4_EEE16__destroy_vectorC2B8ne200100ERS7_ DATA
 0002:0001d288 00000008H .xdata$_ZNSt3__16vectorIPN3Fmx9Objects3d7TSphereENS_9allocatorIS4_EEE5clearB8ne200100Ev DATA
 0002:0001d290 00000024H .xdata$_ZN6System15DelphiInterfaceINS_8Sysutils5TProcEED2Ev DATA
 0002:0001d2b4 00000008H .xdata$_ZN6System15DelphiInterfaceINS_8Sysutils5TProcEEC1Ev DATA
 0002:0001d2bc 00000008H .xdata$_ZN6System15DelphiInterfaceINS_8Sysutils5TProcEEC1ERKS3_ DATA
 0002:0001d2c4 00000008H .xdata$_ZN6System15DelphiInterfaceINS_8Sysutils5TProcEEC2Ev DATA
 0002:0001d2cc 00000008H .xdata$_ZN6System15DelphiInterfaceINS_8Sysutils5TProcEEC2ERKS3_ DATA
 0002:0001d2d4 00000008H .xdata$_ZN6System12DynamicArrayINS_3Net9Urlclient14TNameValuePairEEC2Ev DATA
 0002:0001d2dc 00000020H .xdata$_ZN6System12DynamicArrayINS_3Net9Urlclient14TNameValuePairEED2Ev DATA
 0002:0001d2fc 00000008H .xdata$_ZN6System12DynamicArrayINS_3Net9Urlclient14TNameValuePairEEC1ERKS4_ DATA
 0002:0001d304 00000008H .xdata$_ZN6System12DynamicArrayINS_3Net9Urlclient14TNameValuePairEE11DecRefCountEv DATA
 0002:0001d30c 00000008H .xdata$_ZN6System12DynamicArrayINS_3Net9Urlclient14TNameValuePairEEC2ERKS4_ DATA
 0002:0001d314 00000008H .xdata$_ZN6System12DynamicArrayINS_3Net9Urlclient14TNameValuePairEE11IncRefCountEv DATA
 0002:0001d31c 00000008H .xdata$_ZN6System12DynamicArrayINS_3Net9Urlclient14TNameValuePairEE8FreeDataEv DATA
 0002:0001d324 00000008H .xdata$_ZNK6System12DynamicArrayINS_3Net9Urlclient14TNameValuePairEE10get_lengthEv DATA
 0002:0001d32c 00000008H .xdata$_ZN6System3Net9Urlclient14TNameValuePairD1Ev DATA
 0002:0001d334 00000008H .xdata$_ZNK6System12DynamicArrayINS_3Net9Urlclient14TNameValuePairEE6GetRecEv DATA
 0002:0001d33c 00000008H .xdata$_ZN6System3Net9Urlclient14TNameValuePairD2Ev DATA
 0002:0001d344 00000008H .xdata$_ZN6System15DelphiInterfaceINS_3Net10Httpclient13IHTTPResponseEEC2Ev DATA
 0002:0001d34c 00000024H .xdata$_ZN6System15DelphiInterfaceINS_3Net10Httpclient13IHTTPResponseEED2Ev DATA
 0002:0001d370 00000008H .xdata$_ZN6System15DelphiInterfaceINS_3Net10Httpclient13IHTTPResponseEEC1ERKS4_ DATA
 0002:0001d378 00000008H .xdata$_ZN6System15DelphiInterfaceINS_3Net10Httpclient13IHTTPResponseEEC2ERKS4_ DATA
 0002:0001d380 00000024H .xdata$_ZN6System15DelphiInterfaceINS_9Threading5ITaskEED2Ev DATA
 0002:0001d3a4 00000008H .xdata$_ZN6System15DelphiInterfaceINS_9Threading5ITaskEEC1ERKS3_ DATA
 0002:0001d3ac 00000008H .xdata$_ZN6System15DelphiInterfaceINS_9Threading5ITaskEEC2ERKS3_ DATA
 0002:0001d3b4 00000008H .xdata$_ZN6System15DelphiInterfaceINS_9Threading5ITaskEEC2Ev DATA
 0002:0001d3bc 00000008H .xdata$_ZNSt3__113__atomic_baseIbLb0EE5storeB8ne200100EbNS_12memory_orderE DATA
 0002:0001d3c4 00000008H .xdata$_ZNSt3__118__cxx_atomic_storeB8ne200100IbEEvPNS_22__cxx_atomic_base_implIT_EES2_NS_12memory_orderE DATA
 0002:0001d3cc 00000008H .xdata$_ZNSt3__121__cxx_atomic_exchangeB8ne200100IbEET_PNS_22__cxx_atomic_base_implIS1_EES1_NS_12memory_orderE DATA
 0002:0001d3d4 00000008H .xdata$_ZN6System15DelphiInterfaceINS_8Sysutils5TProcEEaSEPS2_ DATA
 0002:0001d3dc 00000008H .xdata$_ZN6System20TCppInterfacedObjectINS_8Sysutils5TProcE8IUnknownNS_10IInterfaceEE6AddRefEv DATA
 0002:0001d3e4 00000008H .xdata$_ZN6System20TCppInterfacedObjectINS_8Sysutils5TProcE8IUnknownNS_10IInterfaceEE7ReleaseEv DATA
 0002:0001d3ec 00000008H .xdata$_ZN6System20TCppInterfacedObjectINS_8Sysutils5TProcE8IUnknownNS_10IInterfaceEE14QueryInterfaceERK5_GUIDPPv DATA
 0002:0001d3f4 00000008H .xdata$_ZThn24_N6System20TCppInterfacedObjectINS_8Sysutils5TProcE8IUnknownNS_10IInterfaceEE14QueryInterfaceERK5_GUIDPPv DATA
 0002:0001d3fc 00000008H .xdata$_ZThn24_N6System20TCppInterfacedObjectINS_8Sysutils5TProcE8IUnknownNS_10IInterfaceEE6AddRefEv DATA
 0002:0001d404 00000008H .xdata$_ZThn24_N6System20TCppInterfacedObjectINS_8Sysutils5TProcE8IUnknownNS_10IInterfaceEE7ReleaseEv DATA
 0002:0001d40c 00000008H .xdata$_ZThn32_N6System20TCppInterfacedObjectINS_8Sysutils5TProcE8IUnknownNS_10IInterfaceEE14QueryInterfaceERK5_GUIDPPv DATA
 0002:0001d414 00000008H .xdata$_ZThn32_N6System20TCppInterfacedObjectINS_8Sysutils5TProcE8IUnknownNS_10IInterfaceEE6AddRefEv DATA
 0002:0001d41c 00000008H .xdata$_ZThn32_N6System20TCppInterfacedObjectINS_8Sysutils5TProcE8IUnknownNS_10IInterfaceEE7ReleaseEv DATA
 0002:0001d424 00000008H .xdata$_ZThn40_N6System20TCppInterfacedObjectINS_8Sysutils5TProcE8IUnknownNS_10IInterfaceEE14QueryInterfaceERK5_GUIDPPv DATA
 0002:0001d42c 00000008H .xdata$_ZThn40_N6System20TCppInterfacedObjectINS_8Sysutils5TProcE8IUnknownNS_10IInterfaceEE6AddRefEv DATA
 0002:0001d434 00000008H .xdata$_ZThn40_N6System20TCppInterfacedObjectINS_8Sysutils5TProcE8IUnknownNS_10IInterfaceEE7ReleaseEv DATA
 0002:0001d43c 00000008H .xdata$_ZN6System20TCppInterfacedObjectINS_8Sysutils5TProcE8IUnknownNS_10IInterfaceEED0Ev DATA
 0002:0001d444 00000008H .xdata$_ZN6System20TCppInterfacedObjectINS_8Sysutils5TProcE8IUnknownNS_10IInterfaceEEC3Ev DATA
 0002:0001d44c 00000008H .xdata$_ZN6System17TInterfacedObjectC3Ev DATA
 0002:0001d454 00000008H .xdata$_ZN6System8Sysutils5TProcC2Ev DATA
 0002:0001d45c 00000008H .xdata$_ZN8IUnknownC2Ev DATA
 0002:0001d464 00000008H .xdata$_ZN6System10IInterfaceC2Ev DATA
 0002:0001d46c 00000008H .xdata$_ZNK6System13UnicodeString7IsEmptyEv DATA
 0002:0001d474 00000008H .xdata$_ZNSt3__110unique_ptrIN6System7Classes11TStringListENS_14default_deleteIS3_EEEC1B8ne200100ILb1EvEEPS3_ DATA
 0002:0001d47c 00000008H .xdata$_ZNKSt3__110unique_ptrIN6System7Classes11TStringListENS_14default_deleteIS3_EEEptB8ne200100Ev DATA
 0002:0001d484 00000008H .xdata$_ZNSt3__110unique_ptrIN6System7Classes11TStringListENS_14default_deleteIS3_EEED1B8ne200100Ev DATA
 0002:0001d48c 00000008H .xdata$_ZN6System15DelphiInterfaceINS_7Classes16TThreadProcedureEED1Ev DATA
 0002:0001d494 00000008H .xdata$_ZNSt3__110unique_ptrIN6System7Classes11TStringListENS_14default_deleteIS3_EEEC2B8ne200100ILb1EvEEPS3_ DATA
 0002:0001d49c 00000008H .xdata$_ZNSt3__110unique_ptrIN6System7Classes11TStringListENS_14default_deleteIS3_EEED2B8ne200100Ev DATA
 0002:0001d4a4 00000008H .xdata$_ZNSt3__110unique_ptrIN6System7Classes11TStringListENS_14default_deleteIS3_EEE5resetB8ne200100EPS3_ DATA
 0002:0001d4ac 00000008H .xdata$_ZNKSt3__114default_deleteIN6System7Classes11TStringListEEclB8ne200100EPS3_ DATA
 0002:0001d4b4 00000008H .xdata$_ZN6System15DelphiInterfaceINS_7Classes16TThreadProcedureEEaSEPS2_ DATA
 0002:0001d4bc 00000008H .xdata$_ZN6System20TCppInterfacedObjectINS_7Classes16TThreadProcedureE8IUnknownNS_10IInterfaceEE6AddRefEv DATA
 0002:0001d4c4 00000008H .xdata$_ZN6System20TCppInterfacedObjectINS_7Classes16TThreadProcedureE8IUnknownNS_10IInterfaceEE7ReleaseEv DATA
 0002:0001d4cc 00000008H .xdata$_ZN6System20TCppInterfacedObjectINS_7Classes16TThreadProcedureE8IUnknownNS_10IInterfaceEE14QueryInterfaceERK5_GUIDPPv DATA
 0002:0001d4d4 00000008H .xdata$_ZThn24_N6System20TCppInterfacedObjectINS_7Classes16TThreadProcedureE8IUnknownNS_10IInterfaceEE14QueryInterfaceERK5_GUIDPPv DATA
 0002:0001d4dc 00000008H .xdata$_ZThn24_N6System20TCppInterfacedObjectINS_7Classes16TThreadProcedureE8IUnknownNS_10IInterfaceEE6AddRefEv DATA
 0002:0001d4e4 00000008H .xdata$_ZThn24_N6System20TCppInterfacedObjectINS_7Classes16TThreadProcedureE8IUnknownNS_10IInterfaceEE7ReleaseEv DATA
 0002:0001d4ec 00000008H .xdata$_ZThn32_N6System20TCppInterfacedObjectINS_7Classes16TThreadProcedureE8IUnknownNS_10IInterfaceEE14QueryInterfaceERK5_GUIDPPv DATA
 0002:0001d4f4 00000008H .xdata$_ZThn32_N6System20TCppInterfacedObjectINS_7Classes16TThreadProcedureE8IUnknownNS_10IInterfaceEE6AddRefEv DATA
 0002:0001d4fc 00000008H .xdata$_ZThn32_N6System20TCppInterfacedObjectINS_7Classes16TThreadProcedureE8IUnknownNS_10IInterfaceEE7ReleaseEv DATA
 0002:0001d504 00000008H .xdata$_ZThn40_N6System20TCppInterfacedObjectINS_7Classes16TThreadProcedureE8IUnknownNS_10IInterfaceEE14QueryInterfaceERK5_GUIDPPv DATA
 0002:0001d50c 00000008H .xdata$_ZThn40_N6System20TCppInterfacedObjectINS_7Classes16TThreadProcedureE8IUnknownNS_10IInterfaceEE6AddRefEv DATA
 0002:0001d514 00000008H .xdata$_ZThn40_N6System20TCppInterfacedObjectINS_7Classes16TThreadProcedureE8IUnknownNS_10IInterfaceEE7ReleaseEv DATA
 0002:0001d51c 00000008H .xdata$_ZN6System20TCppInterfacedObjectINS_7Classes16TThreadProcedureE8IUnknownNS_10IInterfaceEED0Ev DATA
 0002:0001d524 00000008H .xdata$_ZN6System20TCppInterfacedObjectINS_7Classes16TThreadProcedureE8IUnknownNS_10IInterfaceEEC3Ev DATA
 0002:0001d52c 00000008H .xdata$_ZN6System7Classes16TThreadProcedureC2Ev DATA
 0002:0001d534 00000008H .xdata$_ZN6System13UnicodeStringC1EOS0_ DATA
 0002:0001d53c 00000020H .xdata$_ZN6System13UnicodeStringC2EOS0_ DATA
 0002:0001d55c 00000008H .xdata$_ZN6System17TInterfacedObjectD0Ev DATA
 0002:0001d564 00000024H .xdata$_ZN6System15DelphiInterfaceINS_7Classes16TThreadProcedureEED2Ev DATA
 0002:0001d588 00000008H .xdata$_ZN6System15DelphiInterfaceINS_7Classes16TThreadProcedureEEC1Ev DATA
 0002:0001d590 00000008H .xdata$_ZN6System15DelphiInterfaceINS_7Classes16TThreadProcedureEEC1ERKS3_ DATA
 0002:0001d598 00000008H .xdata$_ZN6System15DelphiInterfaceINS_7Classes16TThreadProcedureEEC2Ev DATA
 0002:0001d5a0 00000008H .xdata$_ZN6System15DelphiInterfaceINS_7Classes16TThreadProcedureEEC2ERKS3_ DATA
 0002:0001d5a8 00000370H .xdata                  DATA
 0002:0001d918 00000020H .xdata$_ZN6System15DelphiInterfaceINS_10IInterfaceEED2Ev DATA
 0002:0001d938 00000018H .xdata$_ZNK6System11AnsiStringTILt65001EEplERKS1_ DATA
 0002:0001d950 00000020H .xdata$_ZN6System11AnsiStringTILt65001EEaSEOS1_ DATA
 0002:0001d970 00000020H .xdata$_ZNSt3__112__hash_tableINS_17__hash_value_typeIPN6System7Typinfo9TTypeInfoEPSt9type_infoEENS_22__unordered_map_hasherIS5_S8_NS_4hashIS5_EENS_8equal_toIS5_EELb1EEENS_21__unordered_map_equalIS5_S8_SD_SB_Lb1EEENS_9allocatorIS8_EEE17__deallocate_nodeEPNS_16__hash_node_baseIPNS_11__hash_nodeIS8_PvEEEE DATA
 0002:0001d990 00000024H .xdata$_ZNSt3__112__hash_tableINS_17__hash_value_typeIPN6System7Typinfo9TTypeInfoEPSt9type_infoEENS_22__unordered_map_hasherIS5_S8_NS_4hashIS5_EENS_8equal_toIS5_EELb1EEENS_21__unordered_map_equalIS5_S8_SD_SB_Lb1EEENS_9allocatorIS8_EEE25__emplace_unique_key_argsIS5_JRKNS_21piecewise_construct_tENS_5tupleIJRKS5_EEENSO_IJEEEEEENS_4pairINS_15__hash_iteratorIPNS_11__hash_nodeIS8_PvEEEEbEERKT_DpOT0_ DATA
 0002:0001d9b4 00000020H .xdata$_ZNSt3__112__hash_tableINS_17__hash_value_typeIPN6System7Typinfo9TTypeInfoEPSt9type_infoEENS_22__unordered_map_hasherIS5_S8_NS_4hashIS5_EENS_8equal_toIS5_EELb1EEENS_21__unordered_map_equalIS5_S8_SD_SB_Lb1EEENS_9allocatorIS8_EEE21__construct_node_hashIRKNS_21piecewise_construct_tEJNS_5tupleIJRKS5_EEENSO_IJEEEEEENS_10unique_ptrINS_11__hash_nodeIS8_PvEENS_22__hash_node_destructorINSH_ISW_EEEEEEyOT_DpOT0_ DATA
 0002:0001d9d4 00000020H .xdata$_ZNKSt3__14hashIPN6System7Typinfo9TTypeInfoEEclB8ne200100ES4_ DATA
 0002:0001d9f4 00000020H .xdata$_ZNSt3__14pairIKPN6System7Typinfo9TTypeInfoEPSt9type_infoEC2B8ne200100IJRS5_EJEEENS_21piecewise_construct_tENS_5tupleIJDpT_EEENSC_IJDpT0_EEE DATA
 0002:0001da14 00000020H .xdata$_ZNSt3__122__hash_node_destructorINS_9allocatorINS_11__hash_nodeINS_17__hash_value_typeIPN6System7Typinfo9TTypeInfoEPSt9type_infoEEPvEEEEEclB8ne200100EPSC_ DATA
 0002:0001da34 00000008H .xdata$_ZN6System15DelphiInterfaceINS_10IInterfaceEEadEv DATA
 0002:0001da3c 00000020H .xdata$_ZN6System15DelphiInterfaceINS_10IInterfaceEED2Ev DATA
 0002:0001da5c 00000008H .xdata$_ZNSt3__110lock_guardINS_5mutexEEC2B8ne200100ERS1_ DATA
 0002:0001da64 00000008H .xdata$_ZNSt3__113unordered_mapIPN6System7Typinfo9TTypeInfoEPSt9type_infoNS_4hashIS4_EENS_8equal_toIS4_EENS_9allocatorINS_4pairIKS4_S6_EEEEEC2B8ne200100Ev DATA
 0002:0001da6c 00000008H .xdata$_ZNSt3__113unordered_mapIPN6System7Typinfo9TTypeInfoEPSt9type_infoNS_4hashIS4_EENS_8equal_toIS4_EENS_9allocatorINS_4pairIKS4_S6_EEEEED2B8ne200100Ev DATA
 0002:0001da74 00000008H .xdata$_ZNSt3__113unordered_mapIPN6System7Typinfo9TTypeInfoEPSt9type_infoNS_4hashIS4_EENS_8equal_toIS4_EENS_9allocatorINS_4pairIKS4_S6_EEEEEixERSD_ DATA
 0002:0001da7c 00000008H .xdata$_ZN6System11AnsiStringTILt65001EEC2ERKNS_13UnicodeStringE DATA
 0002:0001da84 00000018H .xdata$_ZNK6System11AnsiStringTILt65001EEplERKS1_ DATA
 0002:0001da9c 00000008H .xdata$_ZN6System11AnsiStringTILt65001EEC2EPKc DATA
 0002:0001daa4 00000008H .xdata$_ZN6System11AnsiStringTILt65001EEC2Ev DATA
 0002:0001daac 00000020H .xdata$_ZN6System11AnsiStringTILt65001EEaSEOS1_ DATA
 0002:0001dacc 00000008H .xdata$_ZN6System11AnsiStringTILt65001EED2Ev DATA
 0002:0001dad4 00000008H .xdata$_ZN10__cxxabiv117__class_type_infoC2Ev DATA
 0002:0001dadc 00000008H .xdata$_ZNK6System11AnsiStringTILt65001EE5c_strEv DATA
 0002:0001dae4 00000008H .xdata$_ZNSt3__110lock_guardINS_5mutexEED2B8ne200100Ev DATA
 0002:0001daec 00000008H .xdata$_ZN10__cxxabiv116__shim_type_infoC2Ev DATA
 0002:0001daf4 00000008H .xdata$_ZNSt3__112__hash_tableINS_17__hash_value_typeIPN6System7Typinfo9TTypeInfoEPSt9type_infoEENS_22__unordered_map_hasherIS5_S8_NS_4hashIS5_EENS_8equal_toIS5_EELb1EEENS_21__unordered_map_equalIS5_S8_SD_SB_Lb1EEENS_9allocatorIS8_EEEC2Ev DATA
 0002:0001dafc 00000008H .xdata$_ZNSt3__110unique_ptrIA_PNS_16__hash_node_baseIPNS_11__hash_nodeINS_17__hash_value_typeIPN6System7Typinfo9TTypeInfoEPSt9type_infoEEPvEEEENS_25__bucket_list_deallocatorINS_9allocatorISF_EEEEEC2B8ne200100ILb1EvEEv DATA
 0002:0001db04 00000008H .xdata$_ZNSt3__116__hash_node_baseIPNS_11__hash_nodeINS_17__hash_value_typeIPN6System7Typinfo9TTypeInfoEPSt9type_infoEEPvEEEC2B8ne200100Ev DATA
 0002:0001db0c 00000008H .xdata$_ZNSt3__19allocatorINS_11__hash_nodeINS_17__hash_value_typeIPN6System7Typinfo9TTypeInfoEPSt9type_infoEEPvEEEC2B8ne200100Ev DATA
 0002:0001db14 00000008H .xdata$_ZNSt3__122__unordered_map_hasherIPN6System7Typinfo9TTypeInfoENS_17__hash_value_typeIS4_PSt9type_infoEENS_4hashIS4_EENS_8equal_toIS4_EELb1EEC2B8ne200100Ev DATA
 0002:0001db1c 00000008H .xdata$_ZNSt3__121__unordered_map_equalIPN6System7Typinfo9TTypeInfoENS_17__hash_value_typeIS4_PSt9type_infoEENS_8equal_toIS4_EENS_4hashIS4_EELb1EEC2B8ne200100Ev DATA
 0002:0001db24 00000008H .xdata$_ZNSt3__125__bucket_list_deallocatorINS_9allocatorIPNS_16__hash_node_baseIPNS_11__hash_nodeINS_17__hash_value_typeIPN6System7Typinfo9TTypeInfoEPSt9type_infoEEPvEEEEEEEC2B8ne200100Ev DATA
 0002:0001db2c 00000008H .xdata$_ZNSt3__19allocatorIPNS_16__hash_node_baseIPNS_11__hash_nodeINS_17__hash_value_typeIPN6System7Typinfo9TTypeInfoEPSt9type_infoEEPvEEEEEC2B8ne200100Ev DATA
 0002:0001db34 00000008H .xdata$_ZNSt3__116__non_trivial_ifILb1ENS_9allocatorIPNS_16__hash_node_baseIPNS_11__hash_nodeINS_17__hash_value_typeIPN6System7Typinfo9TTypeInfoEPSt9type_infoEEPvEEEEEEEC2B8ne200100Ev DATA
 0002:0001db3c 00000008H .xdata$_ZNSt3__116__non_trivial_ifILb1ENS_9allocatorINS_11__hash_nodeINS_17__hash_value_typeIPN6System7Typinfo9TTypeInfoEPSt9type_infoEEPvEEEEEC2B8ne200100Ev DATA
 0002:0001db44 00000008H .xdata$_ZNSt3__112__hash_tableINS_17__hash_value_typeIPN6System7Typinfo9TTypeInfoEPSt9type_infoEENS_22__unordered_map_hasherIS5_S8_NS_4hashIS5_EENS_8equal_toIS5_EELb1EEENS_21__unordered_map_equalIS5_S8_SD_SB_Lb1EEENS_9allocatorIS8_EEED2Ev DATA
 0002:0001db4c 00000020H .xdata$_ZNSt3__112__hash_tableINS_17__hash_value_typeIPN6System7Typinfo9TTypeInfoEPSt9type_infoEENS_22__unordered_map_hasherIS5_S8_NS_4hashIS5_EENS_8equal_toIS5_EELb1EEENS_21__unordered_map_equalIS5_S8_SD_SB_Lb1EEENS_9allocatorIS8_EEE17__deallocate_nodeEPNS_16__hash_node_baseIPNS_11__hash_nodeIS8_PvEEEE DATA
 0002:0001db6c 00000008H .xdata$_ZNSt3__110unique_ptrIA_PNS_16__hash_node_baseIPNS_11__hash_nodeINS_17__hash_value_typeIPN6System7Typinfo9TTypeInfoEPSt9type_infoEEPvEEEENS_25__bucket_list_deallocatorINS_9allocatorISF_EEEEED2B8ne200100Ev DATA
 0002:0001db74 00000008H .xdata$_ZNSt3__112__hash_tableINS_17__hash_value_typeIPN6System7Typinfo9TTypeInfoEPSt9type_infoEENS_22__unordered_map_hasherIS5_S8_NS_4hashIS5_EENS_8equal_toIS5_EELb1EEENS_21__unordered_map_equalIS5_S8_SD_SB_Lb1EEENS_9allocatorIS8_EEE12__node_allocB8ne200100Ev DATA
 0002:0001db7c 00000008H .xdata$_ZNSt3__116__hash_node_baseIPNS_11__hash_nodeINS_17__hash_value_typeIPN6System7Typinfo9TTypeInfoEPSt9type_infoEEPvEEE8__upcastB8ne200100Ev DATA
 0002:0001db84 00000008H .xdata$_ZNSt3__116allocator_traitsINS_9allocatorINS_11__hash_nodeINS_17__hash_value_typeIPN6System7Typinfo9TTypeInfoEPSt9type_infoEEPvEEEEE7destroyB8ne200100INS_4pairIKS7_S9_EEvTnNS_9enable_ifIXntsr13__has_destroyISD_PT_EE5valueEiE4typeELi0EEEvRSD_SL_ DATA
 0002:0001db8c 00000008H .xdata$_ZNSt3__122__hash_key_value_typesINS_17__hash_value_typeIPN6System7Typinfo9TTypeInfoEPSt9type_infoEEE9__get_ptrB8ne200100ERS8_ DATA
 0002:0001db94 00000008H .xdata$_ZNSt3__111__hash_nodeINS_17__hash_value_typeIPN6System7Typinfo9TTypeInfoEPSt9type_infoEEPvE11__get_valueB8ne200100Ev DATA
 0002:0001db9c 00000008H .xdata$_ZNSt3__112__destroy_atB8ne200100INS_11__hash_nodeINS_17__hash_value_typeIPN6System7Typinfo9TTypeInfoEPSt9type_infoEEPvEETnNS_9enable_ifIXntsr8is_arrayIT_EE5valueEiE4typeELi0EEEvPSD_ DATA
 0002:0001dba4 00000008H .xdata$_ZNSt3__116allocator_traitsINS_9allocatorINS_11__hash_nodeINS_17__hash_value_typeIPN6System7Typinfo9TTypeInfoEPSt9type_infoEEPvEEEEE10deallocateB8ne200100ERSD_PSC_y DATA
 0002:0001dbac 00000008H .xdata$_ZNSt3__114pointer_traitsIPNS_16__hash_node_baseIPNS_11__hash_nodeINS_17__hash_value_typeIPN6System7Typinfo9TTypeInfoEPSt9type_infoEEPvEEEEE10pointer_toB8ne200100ERSE_ DATA
 0002:0001dbb4 00000008H .xdata$_ZNSt3__112__destroy_atB8ne200100INS_4pairIKPN6System7Typinfo9TTypeInfoEPSt9type_infoEETnNS_9enable_ifIXntsr8is_arrayIT_EE5valueEiE4typeELi0EEEvPSB_ DATA
 0002:0001dbbc 00000008H .xdata$_ZNSt3__117__hash_value_typeIPN6System7Typinfo9TTypeInfoEPSt9type_infoE11__get_valueB8ne200100Ev DATA
 0002:0001dbc4 00000008H .xdata$_ZNSt3__17launderB8ne200100INS_4pairIKPN6System7Typinfo9TTypeInfoEPSt9type_infoEEEEPT_SB_ DATA
 0002:0001dbcc 00000008H .xdata$_ZNSt3__19__launderB8ne200100INS_4pairIKPN6System7Typinfo9TTypeInfoEPSt9type_infoEEEEPT_SB_ DATA
 0002:0001dbd4 00000008H .xdata$_ZNSt3__111__hash_nodeINS_17__hash_value_typeIPN6System7Typinfo9TTypeInfoEPSt9type_infoEEPvED2B8ne200100Ev DATA
 0002:0001dbdc 00000008H .xdata$_ZNSt3__19allocatorINS_11__hash_nodeINS_17__hash_value_typeIPN6System7Typinfo9TTypeInfoEPSt9type_infoEEPvEEE10deallocateB8ne200100EPSB_y DATA
 0002:0001dbe4 00000008H .xdata$_ZNSt3__119__libcpp_deallocateB8ne200100INS_11__hash_nodeINS_17__hash_value_typeIPN6System7Typinfo9TTypeInfoEPSt9type_infoEEPvEEEEvPNS_15__type_identityIT_E4typeENS_15__element_countEy DATA
 0002:0001dbec 00000008H .xdata$_ZNSt3__124__libcpp_operator_deleteB8ne200100IJPNS_11__hash_nodeINS_17__hash_value_typeIPN6System7Typinfo9TTypeInfoEPSt9type_infoEEPvEESt11align_val_tEEEvDpT_ DATA
 0002:0001dbf4 00000008H .xdata$_ZNSt3__124__libcpp_operator_deleteB8ne200100IJPNS_11__hash_nodeINS_17__hash_value_typeIPN6System7Typinfo9TTypeInfoEPSt9type_infoEEPvEEEEEvDpT_ DATA
 0002:0001dbfc 00000008H .xdata$_ZNSt3__110unique_ptrIA_PNS_16__hash_node_baseIPNS_11__hash_nodeINS_17__hash_value_typeIPN6System7Typinfo9TTypeInfoEPSt9type_infoEEPvEEEENS_25__bucket_list_deallocatorINS_9allocatorISF_EEEEE5resetB8ne200100EDn DATA
 0002:0001dc04 00000008H .xdata$_ZNSt3__125__bucket_list_deallocatorINS_9allocatorIPNS_16__hash_node_baseIPNS_11__hash_nodeINS_17__hash_value_typeIPN6System7Typinfo9TTypeInfoEPSt9type_infoEEPvEEEEEEEclB8ne200100EPSG_ DATA
 0002:0001dc0c 00000008H .xdata$_ZNSt3__116allocator_traitsINS_9allocatorIPNS_16__hash_node_baseIPNS_11__hash_nodeINS_17__hash_value_typeIPN6System7Typinfo9TTypeInfoEPSt9type_infoEEPvEEEEEEE10deallocateB8ne200100ERSH_PSG_y DATA
 0002:0001dc14 00000008H .xdata$_ZNSt3__125__bucket_list_deallocatorINS_9allocatorIPNS_16__hash_node_baseIPNS_11__hash_nodeINS_17__hash_value_typeIPN6System7Typinfo9TTypeInfoEPSt9type_infoEEPvEEEEEEE7__allocB8ne200100Ev DATA
 0002:0001dc1c 00000008H .xdata$_ZNSt3__125__bucket_list_deallocatorINS_9allocatorIPNS_16__hash_node_baseIPNS_11__hash_nodeINS_17__hash_value_typeIPN6System7Typinfo9TTypeInfoEPSt9type_infoEEPvEEEEEEE4sizeB8ne200100Ev DATA
 0002:0001dc24 00000008H .xdata$_ZNSt3__19allocatorIPNS_16__hash_node_baseIPNS_11__hash_nodeINS_17__hash_value_typeIPN6System7Typinfo9TTypeInfoEPSt9type_infoEEPvEEEEE10deallocateB8ne200100EPSF_y DATA
 0002:0001dc2c 00000008H .xdata$_ZNSt3__119__libcpp_deallocateB8ne200100IPNS_16__hash_node_baseIPNS_11__hash_nodeINS_17__hash_value_typeIPN6System7Typinfo9TTypeInfoEPSt9type_infoEEPvEEEEEEvPNS_15__type_identityIT_E4typeENS_15__element_countEy DATA
 0002:0001dc34 00000008H .xdata$_ZNSt3__124__libcpp_operator_deleteB8ne200100IJPPNS_16__hash_node_baseIPNS_11__hash_nodeINS_17__hash_value_typeIPN6System7Typinfo9TTypeInfoEPSt9type_infoEEPvEEEESt11align_val_tEEEvDpT_ DATA
 0002:0001dc3c 00000008H .xdata$_ZNSt3__124__libcpp_operator_deleteB8ne200100IJPPNS_16__hash_node_baseIPNS_11__hash_nodeINS_17__hash_value_typeIPN6System7Typinfo9TTypeInfoEPSt9type_infoEEPvEEEEEEEvDpT_ DATA
 0002:0001dc44 00000024H .xdata$_ZNSt3__112__hash_tableINS_17__hash_value_typeIPN6System7Typinfo9TTypeInfoEPSt9type_infoEENS_22__unordered_map_hasherIS5_S8_NS_4hashIS5_EENS_8equal_toIS5_EELb1EEENS_21__unordered_map_equalIS5_S8_SD_SB_Lb1EEENS_9allocatorIS8_EEE25__emplace_unique_key_argsIS5_JRKNS_21piecewise_construct_tENS_5tupleIJRKS5_EEENSO_IJEEEEEENS_4pairINS_15__hash_iteratorIPNS_11__hash_nodeIS8_PvEEEEbEERKT_DpOT0_ DATA
 0002:0001dc68 00000008H .xdata$_ZNSt3__116forward_as_tupleB8ne200100IJRKPN6System7Typinfo9TTypeInfoEEEENS_5tupleIJDpOT_EEESA_ DATA
 0002:0001dc70 00000008H .xdata$_ZNSt3__116forward_as_tupleB8ne200100IJEEENS_5tupleIJDpOT_EEES4_ DATA
 0002:0001dc78 00000008H .xdata$_ZNKSt3__115__hash_iteratorIPNS_11__hash_nodeINS_17__hash_value_typeIPN6System7Typinfo9TTypeInfoEPSt9type_infoEEPvEEEptB8ne200100Ev DATA
 0002:0001dc80 00000008H .xdata$_ZNSt3__112__hash_tableINS_17__hash_value_typeIPN6System7Typinfo9TTypeInfoEPSt9type_infoEENS_22__unordered_map_hasherIS5_S8_NS_4hashIS5_EENS_8equal_toIS5_EELb1EEENS_21__unordered_map_equalIS5_S8_SD_SB_Lb1EEENS_9allocatorIS8_EEE13hash_functionB8ne200100Ev DATA
 0002:0001dc88 00000008H .xdata$_ZNKSt3__122__unordered_map_hasherIPN6System7Typinfo9TTypeInfoENS_17__hash_value_typeIS4_PSt9type_infoEENS_4hashIS4_EENS_8equal_toIS4_EELb1EEclB8ne200100ERKS4_ DATA
 0002:0001dc90 00000008H .xdata$_ZNKSt3__112__hash_tableINS_17__hash_value_typeIPN6System7Typinfo9TTypeInfoEPSt9type_infoEENS_22__unordered_map_hasherIS5_S8_NS_4hashIS5_EENS_8equal_toIS5_EELb1EEENS_21__unordered_map_equalIS5_S8_SD_SB_Lb1EEENS_9allocatorIS8_EEE12bucket_countB8ne200100Ev DATA
 0002:0001dc98 00000008H .xdata$_ZNSt3__116__constrain_hashB8ne200100Eyy DATA
 0002:0001dca0 00000008H .xdata$_ZNKSt3__110unique_ptrIA_PNS_16__hash_node_baseIPNS_11__hash_nodeINS_17__hash_value_typeIPN6System7Typinfo9TTypeInfoEPSt9type_infoEEPvEEEENS_25__bucket_list_deallocatorINS_9allocatorISF_EEEEEixB8ne200100Ey DATA
 0002:0001dca8 00000008H .xdata$_ZNKSt3__116__hash_node_baseIPNS_11__hash_nodeINS_17__hash_value_typeIPN6System7Typinfo9TTypeInfoEPSt9type_infoEEPvEEE6__hashB8ne200100Ev DATA
 0002:0001dcb0 00000008H .xdata$_ZNSt3__112__hash_tableINS_17__hash_value_typeIPN6System7Typinfo9TTypeInfoEPSt9type_infoEENS_22__unordered_map_hasherIS5_S8_NS_4hashIS5_EENS_8equal_toIS5_EELb1EEENS_21__unordered_map_equalIS5_S8_SD_SB_Lb1EEENS_9allocatorIS8_EEE6key_eqB8ne200100Ev DATA
 0002:0001dcb8 00000008H .xdata$_ZNKSt3__121__unordered_map_equalIPN6System7Typinfo9TTypeInfoENS_17__hash_value_typeIS4_PSt9type_infoEENS_8equal_toIS4_EENS_4hashIS4_EELb1EEclB8ne200100ERKS8_RKS4_ DATA
 0002:0001dcc0 00000020H .xdata$_ZNSt3__112__hash_tableINS_17__hash_value_typeIPN6System7Typinfo9TTypeInfoEPSt9type_infoEENS_22__unordered_map_hasherIS5_S8_NS_4hashIS5_EENS_8equal_toIS5_EELb1EEENS_21__unordered_map_equalIS5_S8_SD_SB_Lb1EEENS_9allocatorIS8_EEE21__construct_node_hashIRKNS_21piecewise_construct_tEJNS_5tupleIJRKS5_EEENSO_IJEEEEEENS_10unique_ptrINS_11__hash_nodeIS8_PvEENS_22__hash_node_destructorINSH_ISW_EEEEEEyOT_DpOT0_ DATA
 0002:0001dce0 00000008H .xdata$_ZNSt3__112__hash_tableINS_17__hash_value_typeIPN6System7Typinfo9TTypeInfoEPSt9type_infoEENS_22__unordered_map_hasherIS5_S8_NS_4hashIS5_EENS_8equal_toIS5_EELb1EEENS_21__unordered_map_equalIS5_S8_SD_SB_Lb1EEENS_9allocatorIS8_EEE4sizeB8ne200100Ev DATA
 0002:0001dce8 00000008H .xdata$_ZNSt3__112__hash_tableINS_17__hash_value_typeIPN6System7Typinfo9TTypeInfoEPSt9type_infoEENS_22__unordered_map_hasherIS5_S8_NS_4hashIS5_EENS_8equal_toIS5_EELb1EEENS_21__unordered_map_equalIS5_S8_SD_SB_Lb1EEENS_9allocatorIS8_EEE15max_load_factorB8ne200100Ev DATA
 0002:0001dcf0 00000008H .xdata$_ZNSt3__112__hash_tableINS_17__hash_value_typeIPN6System7Typinfo9TTypeInfoEPSt9type_infoEENS_22__unordered_map_hasherIS5_S8_NS_4hashIS5_EENS_8equal_toIS5_EELb1EEENS_21__unordered_map_equalIS5_S8_SD_SB_Lb1EEENS_9allocatorIS8_EEE15__rehash_uniqueB8ne200100Ey DATA
 0002:0001dcf8 00000008H .xdata$_ZNSt3__116__is_hash_power2B8ne200100Ey DATA
 0002:0001dd00 00000008H .xdata$_ZNSt3__16__math4ceilB8ne200100Ef DATA
 0002:0001dd08 00000008H .xdata$_ZNSt3__116__hash_node_baseIPNS_11__hash_nodeINS_17__hash_value_typeIPN6System7Typinfo9TTypeInfoEPSt9type_infoEEPvEEE5__ptrB8ne200100Ev DATA
 0002:0001dd10 00000008H .xdata$_ZNKSt3__110unique_ptrINS_11__hash_nodeINS_17__hash_value_typeIPN6System7Typinfo9TTypeInfoEPSt9type_infoEEPvEENS_22__hash_node_destructorINS_9allocatorISB_EEEEEptB8ne200100Ev DATA
 0002:0001dd18 00000008H .xdata$_ZNKSt3__110unique_ptrINS_11__hash_nodeINS_17__hash_value_typeIPN6System7Typinfo9TTypeInfoEPSt9type_infoEEPvEENS_22__hash_node_destructorINS_9allocatorISB_EEEEE3getB8ne200100Ev DATA
 0002:0001dd20 00000008H .xdata$_ZNSt3__110unique_ptrINS_11__hash_nodeINS_17__hash_value_typeIPN6System7Typinfo9TTypeInfoEPSt9type_infoEEPvEENS_22__hash_node_destructorINS_9allocatorISB_EEEEE7releaseB8ne200100Ev DATA
 0002:0001dd28 00000008H .xdata$_ZNSt3__110unique_ptrINS_11__hash_nodeINS_17__hash_value_typeIPN6System7Typinfo9TTypeInfoEPSt9type_infoEEPvEENS_22__hash_node_destructorINS_9allocatorISB_EEEEED2B8ne200100Ev DATA
 0002:0001dd30 00000008H .xdata$_ZNSt3__115__hash_iteratorIPNS_11__hash_nodeINS_17__hash_value_typeIPN6System7Typinfo9TTypeInfoEPSt9type_infoEEPvEEEC2B8ne200100EPNS_16__hash_node_baseISC_EE DATA
 0002:0001dd38 00000008H .xdata$_ZNSt3__14pairINS_15__hash_iteratorIPNS_11__hash_nodeINS_17__hash_value_typeIPN6System7Typinfo9TTypeInfoEPSt9type_infoEEPvEEEEbEC2B8ne200100ISE_RbTnNS_9enable_ifIXclsr10_CheckArgsE23__is_pair_constructibleIT_T0_EEEiE4typeELi0EEEOSJ_OSK_ DATA
 0002:0001dd40 00000020H .xdata$_ZNKSt3__14hashIPN6System7Typinfo9TTypeInfoEEclB8ne200100ES4_ DATA
 0002:0001dd60 00000008H .xdata$_ZNKSt3__121__murmur2_or_cityhashIyLy64EEclB8ne200100EPKvy DATA
 0002:0001dd68 00000008H .xdata$_ZNSt3__121__murmur2_or_cityhashIyLy64EE18__hash_len_0_to_16B8ne200100EPKcy DATA
 0002:0001dd70 00000008H .xdata$_ZNSt3__121__murmur2_or_cityhashIyLy64EE19__hash_len_17_to_32B8ne200100EPKcy DATA
 0002:0001dd78 00000008H .xdata$_ZNSt3__121__murmur2_or_cityhashIyLy64EE19__hash_len_33_to_64B8ne200100EPKcy DATA
 0002:0001dd80 00000008H .xdata$_ZNSt3__110__loadwordB8ne200100IyEET_PKv DATA
 0002:0001dd88 00000008H .xdata$_ZNSt3__121__murmur2_or_cityhashIyLy64EE13__hash_len_16B8ne200100Eyy DATA
 0002:0001dd90 00000008H .xdata$_ZNSt3__121__murmur2_or_cityhashIyLy64EE29__weak_hash_len_32_with_seedsB8ne200100EPKcyy DATA
 0002:0001dd98 00000008H .xdata$_ZNSt3__121__murmur2_or_cityhashIyLy64EE8__rotateB8ne200100Eyi DATA
 0002:0001dda0 00000008H .xdata$_ZNSt3__14pairIyyEaSB8ne200100EOS1_ DATA
 0002:0001dda8 00000008H .xdata$_ZNSt3__14swapB8ne200100IyEENS_9enable_ifIXaasr21is_move_constructibleIT_EE5valuesr18is_move_assignableIS2_EE5valueEvE4typeERS2_S5_ DATA
 0002:0001ddb0 00000008H .xdata$_ZNSt3__121__murmur2_or_cityhashIyLy64EE11__shift_mixB8ne200100Ey DATA
 0002:0001ddb8 00000008H .xdata$_ZNSt3__121__murmur2_or_cityhashIyLy64EE22__rotate_by_at_least_1B8ne200100Eyi DATA
 0002:0001ddc0 00000008H .xdata$_ZNSt3__110__loadwordB8ne200100IjEET_PKv DATA
 0002:0001ddc8 00000008H .xdata$_ZNSt3__121__murmur2_or_cityhashIyLy64EE29__weak_hash_len_32_with_seedsB8ne200100Eyyyyyy DATA
 0002:0001ddd0 00000008H .xdata$_ZNSt3__14pairIyyEC2B8ne200100IyyTnNS_9enable_ifIXclsr10_CheckArgsE23__is_pair_constructibleIT_T0_EEEiE4typeELi0EEEOS4_OS5_ DATA
 0002:0001ddd8 00000008H .xdata$_ZNKSt3__110unique_ptrIA_PNS_16__hash_node_baseIPNS_11__hash_nodeINS_17__hash_value_typeIPN6System7Typinfo9TTypeInfoEPSt9type_infoEEPvEEEENS_25__bucket_list_deallocatorINS_9allocatorISF_EEEEE11get_deleterB8ne200100Ev DATA
 0002:0001dde0 00000008H .xdata$_ZNKSt3__125__bucket_list_deallocatorINS_9allocatorIPNS_16__hash_node_baseIPNS_11__hash_nodeINS_17__hash_value_typeIPN6System7Typinfo9TTypeInfoEPSt9type_infoEEPvEEEEEEE4sizeB8ne200100Ev DATA
 0002:0001dde8 00000008H .xdata$_ZNKSt3__18equal_toIPN6System7Typinfo9TTypeInfoEEclB8ne200100ERKS4_S7_ DATA
 0002:0001ddf0 00000008H .xdata$_ZNKSt3__117__hash_value_typeIPN6System7Typinfo9TTypeInfoEPSt9type_infoE11__get_valueB8ne200100Ev DATA
 0002:0001ddf8 00000008H .xdata$_ZNSt3__17launderB8ne200100IKNS_4pairIKPN6System7Typinfo9TTypeInfoEPSt9type_infoEEEEPT_SC_ DATA
 0002:0001de00 00000008H .xdata$_ZNSt3__19__launderB8ne200100IKNS_4pairIKPN6System7Typinfo9TTypeInfoEPSt9type_infoEEEEPT_SC_ DATA
 0002:0001de08 00000008H .xdata$_ZNSt3__116allocator_traitsINS_9allocatorINS_11__hash_nodeINS_17__hash_value_typeIPN6System7Typinfo9TTypeInfoEPSt9type_infoEEPvEEEEE8allocateB8ne200100ERSD_y DATA
 0002:0001de10 00000008H .xdata$_ZNSt3__122__hash_node_destructorINS_9allocatorINS_11__hash_nodeINS_17__hash_value_typeIPN6System7Typinfo9TTypeInfoEPSt9type_infoEEPvEEEEEC2B8ne200100ERSD_b DATA
 0002:0001de18 00000008H .xdata$_ZNSt3__110unique_ptrINS_11__hash_nodeINS_17__hash_value_typeIPN6System7Typinfo9TTypeInfoEPSt9type_infoEEPvEENS_22__hash_node_destructorINS_9allocatorISB_EEEEEC2B8ne200100ILb1EvEEPSB_NS_16__dependent_typeINS_27__unique_ptr_deleter_sfinaeISF_EEXT_EE20__good_rval_ref_typeE DATA
 0002:0001de20 00000008H .xdata$_ZNSt3__114__construct_atB8ne200100INS_11__hash_nodeINS_17__hash_value_typeIPN6System7Typinfo9TTypeInfoEPSt9type_infoEEPvEEJDnRyEPSB_EEPT_SF_DpOT0_ DATA
 0002:0001de28 00000008H .xdata$_ZNKSt3__110unique_ptrINS_11__hash_nodeINS_17__hash_value_typeIPN6System7Typinfo9TTypeInfoEPSt9type_infoEEPvEENS_22__hash_node_destructorINS_9allocatorISB_EEEEEdeB8ne200100Ev DATA
 0002:0001de30 00000008H .xdata$_ZNSt3__116allocator_traitsINS_9allocatorINS_11__hash_nodeINS_17__hash_value_typeIPN6System7Typinfo9TTypeInfoEPSt9type_infoEEPvEEEEE9constructB8ne200100INS_4pairIKS7_S9_EEJRKNS_21piecewise_construct_tENS_5tupleIJRSH_EEENSM_IJEEEEvTnNS_9enable_ifIXntsr15__has_constructISD_PT_DpT0_EE5valueEiE4typeELi0EEEvRSD_SS_DpOST_ DATA
 0002:0001de38 00000008H .xdata$_ZNSt3__110unique_ptrINS_11__hash_nodeINS_17__hash_value_typeIPN6System7Typinfo9TTypeInfoEPSt9type_infoEEPvEENS_22__hash_node_destructorINS_9allocatorISB_EEEEE11get_deleterB8ne200100Ev DATA
 0002:0001de40 00000008H .xdata$_ZNSt3__19allocatorINS_11__hash_nodeINS_17__hash_value_typeIPN6System7Typinfo9TTypeInfoEPSt9type_infoEEPvEEE8allocateB8ne200100Ey DATA
 0002:0001de48 00000008H .xdata$_ZNSt3__116allocator_traitsINS_9allocatorINS_11__hash_nodeINS_17__hash_value_typeIPN6System7Typinfo9TTypeInfoEPSt9type_infoEEPvEEEEE8max_sizeB8ne200100ISD_vTnNS_9enable_ifIXntsr14__has_max_sizeIKT_EE5valueEiE4typeELi0EEEyRKSD_ DATA
 0002:0001de50 00000008H .xdata$_ZNSt3__117__libcpp_allocateB8ne200100INS_11__hash_nodeINS_17__hash_value_typeIPN6System7Typinfo9TTypeInfoEPSt9type_infoEEPvEEEEPT_NS_15__element_countEy DATA
 0002:0001de58 00000008H .xdata$_ZNSt3__125__compressed_pair_paddingINS_22__hash_node_destructorINS_9allocatorINS_11__hash_nodeINS_17__hash_value_typeIPN6System7Typinfo9TTypeInfoEPSt9type_infoEEPvEEEEEELb0EEC2Ev DATA
 0002:0001de60 00000008H .xdata$_ZNSt3__112construct_atB8ne200100INS_11__hash_nodeINS_17__hash_value_typeIPN6System7Typinfo9TTypeInfoEPSt9type_infoEEPvEEJDnRyEPSB_EEPT_SF_DpOT0_ DATA
 0002:0001de68 00000008H .xdata$_ZNSt3__111__hash_nodeINS_17__hash_value_typeIPN6System7Typinfo9TTypeInfoEPSt9type_infoEEPvEC2B8ne200100EPNS_16__hash_node_baseIPSA_EEy DATA
 0002:0001de70 00000008H .xdata$_ZNSt3__116__hash_node_baseIPNS_11__hash_nodeINS_17__hash_value_typeIPN6System7Typinfo9TTypeInfoEPSt9type_infoEEPvEEEC2B8ne200100EPSD_ DATA
 0002:0001de78 00000008H .xdata$_ZNSt3__114__construct_atB8ne200100INS_4pairIKPN6System7Typinfo9TTypeInfoEPSt9type_infoEEJRKNS_21piecewise_construct_tENS_5tupleIJRS6_EEENSD_IJEEEEPS9_EEPT_SJ_DpOT0_ DATA
 0002:0001de80 00000008H .xdata$_ZNSt3__112construct_atB8ne200100INS_4pairIKPN6System7Typinfo9TTypeInfoEPSt9type_infoEEJRKNS_21piecewise_construct_tENS_5tupleIJRS6_EEENSD_IJEEEEPS9_EEPT_SJ_DpOT0_ DATA
 0002:0001de88 00000020H .xdata$_ZNSt3__14pairIKPN6System7Typinfo9TTypeInfoEPSt9type_infoEC2B8ne200100IJRS5_EJEEENS_21piecewise_construct_tENS_5tupleIJDpT_EEENSC_IJDpT0_EEE DATA
 0002:0001dea8 00000008H .xdata$_ZNSt3__14pairIKPN6System7Typinfo9TTypeInfoEPSt9type_infoEC2B8ne200100IJRS5_EJEJLy0EETpTnyJEEENS_21piecewise_construct_tERNS_5tupleIJDpT_EEERNSC_IJDpT0_EEENS_15__tuple_indicesIJXspT1_EEEENSL_IJXspT2_EEEE DATA
 0002:0001deb0 00000008H .xdata$_ZNSt3__13getB8ne200100ILy0EJRKPN6System7Typinfo9TTypeInfoEEEERNS_13tuple_elementIXT_ENS_5tupleIJDpT0_EEEE4typeERSB_ DATA
 0002:0001deb8 00000008H .xdata$_ZNSt3__112__tuple_leafILy0ERKPN6System7Typinfo9TTypeInfoELb0EE3getB8ne200100Ev DATA
 0002:0001dec0 00000008H .xdata$_ZNSt3__112__hash_tableINS_17__hash_value_typeIPN6System7Typinfo9TTypeInfoEPSt9type_infoEENS_22__unordered_map_hasherIS5_S8_NS_4hashIS5_EENS_8equal_toIS5_EELb1EEENS_21__unordered_map_equalIS5_S8_SD_SB_Lb1EEENS_9allocatorIS8_EEE8__rehashILb1EEEvy DATA
 0002:0001dec8 00000008H .xdata$_ZNSt3__112__hash_tableINS_17__hash_value_typeIPN6System7Typinfo9TTypeInfoEPSt9type_infoEENS_22__unordered_map_hasherIS5_S8_NS_4hashIS5_EENS_8equal_toIS5_EELb1EEENS_21__unordered_map_equalIS5_S8_SD_SB_Lb1EEENS_9allocatorIS8_EEE11__do_rehashILb1EEEvy DATA
 0002:0001ded0 00000008H .xdata$_ZNSt3__116__next_hash_pow2B8ne200100Ey DATA
 0002:0001ded8 00000008H .xdata$_ZNSt3__110unique_ptrIA_PNS_16__hash_node_baseIPNS_11__hash_nodeINS_17__hash_value_typeIPN6System7Typinfo9TTypeInfoEPSt9type_infoEEPvEEEENS_25__bucket_list_deallocatorINS_9allocatorISF_EEEEE11get_deleterB8ne200100Ev DATA
 0002:0001dee0 00000008H .xdata$_ZNSt3__110unique_ptrIA_PNS_16__hash_node_baseIPNS_11__hash_nodeINS_17__hash_value_typeIPN6System7Typinfo9TTypeInfoEPSt9type_infoEEPvEEEENS_25__bucket_list_deallocatorINS_9allocatorISF_EEEEE5resetB8ne200100IPSF_TnNS_9enable_ifIXsr28_CheckArrayPointerConversionIT_EE5valueEiE4typeELi0EEEvSP_ DATA
 0002:0001dee8 00000008H .xdata$_ZNSt3__116allocator_traitsINS_9allocatorIPNS_16__hash_node_baseIPNS_11__hash_nodeINS_17__hash_value_typeIPN6System7Typinfo9TTypeInfoEPSt9type_infoEEPvEEEEEEE8allocateB8ne200100ERSH_y DATA
 0002:0001def0 00000008H .xdata$_ZNSt3__19allocatorIPNS_16__hash_node_baseIPNS_11__hash_nodeINS_17__hash_value_typeIPN6System7Typinfo9TTypeInfoEPSt9type_infoEEPvEEEEE8allocateB8ne200100Ey DATA
 0002:0001def8 00000008H .xdata$_ZNSt3__116allocator_traitsINS_9allocatorIPNS_16__hash_node_baseIPNS_11__hash_nodeINS_17__hash_value_typeIPN6System7Typinfo9TTypeInfoEPSt9type_infoEEPvEEEEEEE8max_sizeB8ne200100ISH_vTnNS_9enable_ifIXntsr14__has_max_sizeIKT_EE5valueEiE4typeELi0EEEyRKSH_ DATA
 0002:0001df00 00000008H .xdata$_ZNSt3__117__libcpp_allocateB8ne200100IPNS_16__hash_node_baseIPNS_11__hash_nodeINS_17__hash_value_typeIPN6System7Typinfo9TTypeInfoEPSt9type_infoEEPvEEEEEEPT_NS_15__element_countEy DATA
 0002:0001df08 00000008H .xdata$_ZNSt3__112__libcpp_clzB8ne200100Ey DATA
 0002:0001df10 00000008H .xdata$_ZNSt3__110unique_ptrINS_11__hash_nodeINS_17__hash_value_typeIPN6System7Typinfo9TTypeInfoEPSt9type_infoEEPvEENS_22__hash_node_destructorINS_9allocatorISB_EEEEE5resetB8ne200100EPSB_ DATA
 0002:0001df18 00000020H .xdata$_ZNSt3__122__hash_node_destructorINS_9allocatorINS_11__hash_nodeINS_17__hash_value_typeIPN6System7Typinfo9TTypeInfoEPSt9type_infoEEPvEEEEEclB8ne200100EPSC_ DATA
 0002:0001df38 00000008H .xdata$_ZNSt3__15tupleIJRKPN6System7Typinfo9TTypeInfoEEEC2B8ne200100INS_4_AndETnNS_9enable_ifIXsrT_IJNS_17integral_constantIbLb1EEENS_21is_copy_constructibleIS6_EEEE5valueEiE4typeELi0EEES6_ DATA
 0002:0001df40 00000008H .xdata$_ZNSt3__112__tuple_implINS_15__tuple_indicesIJLy0EEEEJRKPN6System7Typinfo9TTypeInfoEEEC2B8ne200100IJLy0EEJS8_ETpTnyJEJEJS8_EEENS1_IJXspT_EEEENS_13__tuple_typesIJDpT0_EEENS1_IJXspT1_EEEENSC_IJDpT2_EEEDpOT3_ DATA
 0002:0001df48 00000008H .xdata$_ZNSt3__112__tuple_leafILy0ERKPN6System7Typinfo9TTypeInfoELb0EEC2B8ne200100IS6_TnNS_9enable_ifIXsr4_AndINS_17integral_constantIbXntu9__is_sameu14__remove_cvrefIT_ES7_EEEENS_16is_constructibleIS6_JSB_EEEEE5valueEiE4typeELi0EEEOSB_ DATA
 0002:0001df50 00000008H .xdata$_ZNSt3__114pointer_traitsIPNS_17__hash_value_typeIPN6System7Typinfo9TTypeInfoEPSt9type_infoEEE10pointer_toB8ne200100ERS8_ DATA
 0002:0001df58 00000008H .xdata$_ZN6System14AnsiStringBaseC2Ev DATA
 0002:0001df60 00000008H .xdata$_ZN6System11AnsiStringTILt65001EE4swapERS1_ DATA
 0002:0001df68 00000b4cH .xdata                  DATA
 0002:0001eab4 00000020H .xdata$_ZN6System8Sysutils11ERangeErrorC3ENS_13UnicodeStringE DATA
 0002:0001ead4 00000020H .xdata$_ZN6System11AnsiStringTILt0EED2Ev DATA
 0002:0001eaf4 00000020H .xdata$_ZN6System13UnicodeStringaSEOS0_ DATA
 0002:0001eb14 00000024H .xdata$_ZN6System15DelphiInterfaceINS_14IEnumerator__1INS_13UnicodeStringEEEED2Ev DATA
 0002:0001eb38 00000024H .xdata$_ZN6System15DelphiInterfaceINS_14IEnumerable__1INS_13UnicodeStringEEEED2Ev DATA
 0002:0001eb5c 00000020H .xdata$_ZN6System8Sysutils9EIntErrorC3ENS_13UnicodeStringE DATA
 0002:0001eb7c 00000020H .xdata$_ZN6System8Sysutils9EExternalC3ENS_13UnicodeStringE DATA
 0002:0001eb9c 00000020H .xdata$_ZN6System8Sysutils11ERangeErrorC3ENS_13UnicodeStringE DATA
 0002:0001ebbc 00000008H .xdata$_ZN6System8Sysutils11ERangeErrorD0Ev DATA
 0002:0001ebc4 00000008H .xdata$_ZN6System11WideCharLenIwEEiPKT_ DATA
 0002:0001ebcc 00000008H .xdata$_ZN6System11WideCharLenIDsEEiPKT_ DATA
 0002:0001ebd4 00000008H .xdata$_ZN6System11AnsiStringTILt0EEC2EPKci DATA
 0002:0001ebdc 00000020H .xdata$_ZN6System11AnsiStringTILt0EED2Ev DATA
 0002:0001ebfc 00000008H .xdata$_ZN6System11AnsiStringTILt0EEC2Ev DATA
 0002:0001ec04 00000008H .xdata$_ZN6System13UnicodeStringC2ILt0EEERKNS_11AnsiStringTIXT_EEE DATA
 0002:0001ec0c 00000008H .xdata$_ZN6System15DelphiInterfaceINS_14IEnumerator__1INS_13UnicodeStringEEEEC2ERKS4_ DATA
 0002:0001ec14 00000024H .xdata$_ZN6System15DelphiInterfaceINS_14IEnumerator__1INS_13UnicodeStringEEEED2Ev DATA
 0002:0001ec38 00000008H .xdata$_ZN6System15DelphiInterfaceINS_14IEnumerable__1INS_13UnicodeStringEEEEC2ERKS4_ DATA
 0002:0001ec40 00000024H .xdata$_ZN6System15DelphiInterfaceINS_14IEnumerable__1INS_13UnicodeStringEEEED2Ev DATA
 0002:0001ec64 00000020H .xdata$_ZN6System8Sysutils9EIntErrorC3ENS_13UnicodeStringE DATA
 0002:0001ec84 00000020H .xdata$_ZN6System8Sysutils9EExternalC3ENS_13UnicodeStringE DATA
 0002:0001eca4 00000008H .xdata$_ZN6System8Sysutils9EIntErrorD0Ev DATA
 0002:0001ecac 00000008H .xdata$_ZN6System8Sysutils9EExternalD0Ev DATA
 0002:0001ecb4 00000008H .xdata$_ZN6System11AnsiStringTILt0EEC2ERKS1_ DATA
 0002:0001ecbc 00000008H .xdata$_ZN6System15DelphiInterfaceINS_14IEnumerator__1INS_13UnicodeStringEEEEC2Ev DATA
 0002:0001ecc4 00000008H .xdata$_ZN6System15DelphiInterfaceINS_14IEnumerable__1INS_13UnicodeStringEEEEC2Ev DATA
 0002:0001eccc 00000584H .xdata                  DATA
 0002:0001f250 00000020H .xdata$_ZN6System8Sysutils11ERangeErrorC3ENS_13UnicodeStringE DATA
 0002:0001f270 00000020H .xdata$_ZN6System11AnsiStringTILt0EED2Ev DATA
 0002:0001f290 00000020H .xdata$_ZN6System8Sysutils9EIntErrorC3ENS_13UnicodeStringE DATA
 0002:0001f2b0 00000020H .xdata$_ZN6System8Sysutils9EExternalC3ENS_13UnicodeStringE DATA
 0002:0001f2d0 00000008H .xdata$_ZN6System8_CharLenIwEEiPKT_ DATA
 0002:0001f2d8 00000008H .xdata$_ZN6System8_CharLenIDsEEiPKT_ DATA
 0002:0001f2e0 00000008H .xdata$_ZN6System14AnsiStringBaseC2ILt0EEEONS_11AnsiStringTIXT_EEE DATA
 0002:0001f2e8 00000008H .xdata$_ZNK6System14AnsiStringBase8CodePageEv DATA
 0002:0001f2f0 00000008H .xdata$_ZNK6System14AnsiStringBaseixEi DATA
 0002:0001f2f8 00000fe8H .xdata                  DATA
 0004:00000000 000001d0H .data                   DATA
 0004:000001d0 00000210H .bss                    DATA
 0004:000003e0 00000008H .bss$_ZGVZN6System11AnsiStringTILt0EED1EvE13__force_inst1 DATA
 0004:000003e8 00000008H .bss$_ZGVZN6System11AnsiStringTILt0EED1EvE13__force_inst2 DATA
 0004:000003f0 00000008H .bss$_ZGVZN6System12DynamicArrayINS_3Net9Urlclient14TNameValuePairEED1EvE13__force_inst1 DATA
 0004:000003f8 00000008H .bss$_ZGVZN6System12DynamicArrayINS_3Net9Urlclient14TNameValuePairEED1EvE13__force_inst2 DATA
 0004:00000400 00000008H .bss$_ZGVZN6System15DelphiInterfaceINS_14IEnumerable__1INS_13UnicodeStringEEEED1EvE13__force_inst1 DATA
 0004:00000408 00000008H .bss$_ZGVZN6System15DelphiInterfaceINS_14IEnumerable__1INS_13UnicodeStringEEEED1EvE13__force_inst2 DATA
 0004:00000410 00000008H .bss$_ZGVZN6System15DelphiInterfaceINS_14IEnumerator__1INS_13UnicodeStringEEEED1EvE13__force_inst1 DATA
 0004:00000418 00000008H .bss$_ZGVZN6System15DelphiInterfaceINS_14IEnumerator__1INS_13UnicodeStringEEEED1EvE13__force_inst2 DATA
 0004:00000420 00000008H .bss$_ZGVZN6System15DelphiInterfaceINS_3Net10Httpclient13IHTTPResponseEED1EvE13__force_inst1 DATA
 0004:00000428 00000008H .bss$_ZGVZN6System15DelphiInterfaceINS_3Net10Httpclient13IHTTPResponseEED1EvE13__force_inst2 DATA
 0004:00000430 00000008H .bss$_ZGVZN6System15DelphiInterfaceINS_7Classes16TThreadProcedureEED1EvE13__force_inst1 DATA
 0004:00000438 00000008H .bss$_ZGVZN6System15DelphiInterfaceINS_7Classes16TThreadProcedureEED1EvE13__force_inst2 DATA
 0004:00000440 00000008H .bss$_ZGVZN6System15DelphiInterfaceINS_8Sysutils5TProcEED1EvE13__force_inst1 DATA
 0004:00000448 00000008H .bss$_ZGVZN6System15DelphiInterfaceINS_8Sysutils5TProcEED1EvE13__force_inst2 DATA
 0004:00000450 00000008H .bss$_ZGVZN6System15DelphiInterfaceINS_9Threading5ITaskEED1EvE13__force_inst1 DATA
 0004:00000458 00000008H .bss$_ZGVZN6System15DelphiInterfaceINS_9Threading5ITaskEED1EvE13__force_inst2 DATA
 0004:00000460 00000008H .bss$_ZZN6System11AnsiStringTILt0EED1EvE13__force_inst1 DATA
 0004:00000468 00000008H .bss$_ZZN6System11AnsiStringTILt0EED1EvE13__force_inst2 DATA
 0004:00000470 00000008H .bss$_ZZN6System12DynamicArrayINS_3Net9Urlclient14TNameValuePairEED1EvE13__force_inst1 DATA
 0004:00000478 00000008H .bss$_ZZN6System12DynamicArrayINS_3Net9Urlclient14TNameValuePairEED1EvE13__force_inst2 DATA
 0004:00000480 00000008H .bss$_ZZN6System15DelphiInterfaceINS_14IEnumerable__1INS_13UnicodeStringEEEED1EvE13__force_inst1 DATA
 0004:00000488 00000008H .bss$_ZZN6System15DelphiInterfaceINS_14IEnumerable__1INS_13UnicodeStringEEEED1EvE13__force_inst2 DATA
 0004:00000490 00000008H .bss$_ZZN6System15DelphiInterfaceINS_14IEnumerator__1INS_13UnicodeStringEEEED1EvE13__force_inst1 DATA
 0004:00000498 00000008H .bss$_ZZN6System15DelphiInterfaceINS_14IEnumerator__1INS_13UnicodeStringEEEED1EvE13__force_inst2 DATA
 0004:000004a0 00000008H .bss$_ZZN6System15DelphiInterfaceINS_3Net10Httpclient13IHTTPResponseEED1EvE13__force_inst1 DATA
 0004:000004a8 00000008H .bss$_ZZN6System15DelphiInterfaceINS_3Net10Httpclient13IHTTPResponseEED1EvE13__force_inst2 DATA
 0004:000004b0 00000008H .bss$_ZZN6System15DelphiInterfaceINS_7Classes16TThreadProcedureEED1EvE13__force_inst1 DATA
 0004:000004b8 00000008H .bss$_ZZN6System15DelphiInterfaceINS_7Classes16TThreadProcedureEED1EvE13__force_inst2 DATA
 0004:000004c0 00000008H .bss$_ZZN6System15DelphiInterfaceINS_8Sysutils5TProcEED1EvE13__force_inst1 DATA
 0004:000004c8 00000008H .bss$_ZZN6System15DelphiInterfaceINS_8Sysutils5TProcEED1EvE13__force_inst2 DATA
 0004:000004d0 00000008H .bss$_ZZN6System15DelphiInterfaceINS_9Threading5ITaskEED1EvE13__force_inst1 DATA
 0004:000004d8 00000008H .bss$_ZZN6System15DelphiInterfaceINS_9Threading5ITaskEED1EvE13__force_inst2 DATA
 0005:00000000 00000228H .pdata                  DATA
 0005:00000228 0000000cH .pdata$_ZN6System7Classes15TComponentClassC1EPNS_10TMetaClassE DATA
 0005:00000234 0000000cH .pdata$__clang_call_terminate DATA
 0005:00000240 0000000cH .pdata$_ZN6System7Classes15TComponentClassC2EPNS_10TMetaClassE DATA
 0005:0000024c 0000000cH .pdata$_ZN6System15DelphiMetaClassINS_7Classes15TComponentClassEEC2EPNS_10TMetaClassE DATA
 0005:00000258 00000288H .pdata                  DATA
 0005:000004e0 0000000cH .pdata$_ZN3Fmx5Forms5TFormC3EPN6System7Classes10TComponentE DATA
 0005:000004ec 0000000cH .pdata$_ZNSt3__16atomicIbEC1B8ne200100Eb DATA
 0005:000004f8 0000000cH .pdata$_ZNSt3__16vectorIPN3Fmx9Objects3d7TSphereENS_9allocatorIS4_EEEC1B8ne200100Ev DATA
 0005:00000504 0000000cH .pdata$_ZNSt3__16atomicIbEaSB8ne200100Eb DATA
 0005:00000510 0000000cH .pdata$_ZNSt3__16__math3sinB8ne200100Ef DATA
 0005:0000051c 0000000cH .pdata$_ZNSt3__16__math3cosB8ne200100Ef DATA
 0005:00000528 0000000cH .pdata$_ZN6System13UnicodeStringC1Ei DATA
 0005:00000534 0000000cH .pdata$_ZNSt3__16vectorIPN3Fmx9Objects3d7TSphereENS_9allocatorIS4_EEE9push_backB8ne200100ERKS4_ DATA
 0005:00000540 0000000cH .pdata$_ZNKSt3__16vectorIPN3Fmx9Objects3d7TSphereENS_9allocatorIS4_EEE4sizeB8ne200100Ev DATA
 0005:0000054c 0000000cH .pdata$_ZNSt3__16vectorIPN3Fmx9Objects3d7TSphereENS_9allocatorIS4_EEEixB8ne200100Ey DATA
 0005:00000558 0000000cH .pdata$_ZNSt3__16vectorIPN3Fmx9Objects3d7TSphereENS_9allocatorIS4_EEE5eraseB8ne200100ENS_11__wrap_iterIPKS4_EE DATA
 0005:00000564 0000000cH .pdata$_ZNSt3__16vectorIPN3Fmx9Objects3d7TSphereENS_9allocatorIS4_EEE5beginB8ne200100Ev DATA
 0005:00000570 0000000cH .pdata$_ZNSt3__111__wrap_iterIPKPN3Fmx9Objects3d7TSphereEEC1B8ne200100IPS4_TnNS_9enable_ifIXsr4_AndINS_14is_convertibleIRKT_S6_EENS_7_OrImplIXaantcvbsr7is_sameIRS5_NS_15iterator_traitsISC_E9referenceEEE5valuenesZT1_Li0EEE7_ResultINS_7is_sameISH_SK_EENSN_ISH_RKu20__remove_reference_tISK_EEEEEEE5valueEiE4typeELi0EEERKNS0_ISC_EE DATA
 0005:0000057c 0000000cH .pdata$_ZN6System12DynamicArrayINS_3Net9Urlclient14TNameValuePairEEC1Ev DATA
 0005:00000588 0000000cH .pdata$_ZN6System15DelphiInterfaceINS_3Net10Httpclient13IHTTPResponseEEC1Ev DATA
 0005:00000594 0000000cH .pdata$_ZN6System15DelphiInterfaceINS_3Net10Httpclient13IHTTPResponseEED1Ev DATA
 0005:000005a0 0000000cH .pdata$_ZN6System12DynamicArrayINS_3Net9Urlclient14TNameValuePairEED1Ev DATA
 0005:000005ac 0000000cH .pdata$_ZN6System13UnicodeStringaSEOS0_ DATA
 0005:000005b8 0000000cH .pdata$_ZNSt3__113__atomic_baseIbLb0EE8exchangeB8ne200100EbNS_12memory_orderE DATA
 0005:000005c4 0000000cH .pdata$_ZN6System15DelphiInterfaceINS_9Threading5ITaskEEC1Ev DATA
 0005:000005d0 0000000cH .pdata$_ZN6System15DelphiInterfaceINS_9Threading5ITaskEED1Ev DATA
 0005:000005dc 0000000cH .pdata$_ZN6System15DelphiInterfaceINS_8Sysutils5TProcEED1Ev DATA
 0005:000005e8 0000000cH .pdata$_ZN6TForm1D0Ev   DATA
 0005:000005f4 0000000cH .pdata$_ZN3Fmx5Forms5TFormC3EPN6System7Classes10TComponentEx DATA
 0005:00000600 0000000cH .pdata$_ZNSt3__16atomicIbEC2B8ne200100Eb DATA
 0005:0000060c 0000000cH .pdata$_ZNSt3__113__atomic_baseIbLb0EEC2B8ne200100Eb DATA
 0005:00000618 0000000cH .pdata$_ZNSt3__117__cxx_atomic_implIbNS_22__cxx_atomic_base_implIbEEEC1B8ne200100Eb DATA
 0005:00000624 0000000cH .pdata$_ZNSt3__117__cxx_atomic_implIbNS_22__cxx_atomic_base_implIbEEEC2B8ne200100Eb DATA
 0005:00000630 0000000cH .pdata$_ZNSt3__122__cxx_atomic_base_implIbEC2Eb DATA
 0005:0000063c 0000000cH .pdata$_ZNSt3__16vectorIPN3Fmx9Objects3d7TSphereENS_9allocatorIS4_EEEC2B8ne200100Ev DATA
 0005:00000648 0000000cH .pdata$_ZNSt3__19allocatorIPN3Fmx9Objects3d7TSphereEEC1B8ne200100Ev DATA
 0005:00000654 0000000cH .pdata$_ZNSt3__19allocatorIPN3Fmx9Objects3d7TSphereEEC2B8ne200100Ev DATA
 0005:00000660 0000000cH .pdata$_ZNSt3__116__non_trivial_ifILb1ENS_9allocatorIPN3Fmx9Objects3d7TSphereEEEEC2B8ne200100Ev DATA
 0005:0000066c 0000000cH .pdata$_ZN6System13UnicodeStringC2Ei DATA
 0005:00000678 0000000cH .pdata$_ZNSt3__16vectorIPN3Fmx9Objects3d7TSphereENS_9allocatorIS4_EEE12emplace_backIJRKS4_EEERS4_DpOT_ DATA
 0005:00000684 0000000cH .pdata$_ZNSt3__16vectorIPN3Fmx9Objects3d7TSphereENS_9allocatorIS4_EEE22__construct_one_at_endB8ne200100IJRKS4_EEEvDpOT_ DATA
 0005:00000690 0000000cH .pdata$_ZNSt3__16vectorIPN3Fmx9Objects3d7TSphereENS_9allocatorIS4_EEE24__emplace_back_slow_pathIJRKS4_EEEPS4_DpOT_ DATA
 0005:0000069c 0000000cH .pdata$_ZNSt3__16vectorIPN3Fmx9Objects3d7TSphereENS_9allocatorIS4_EEE21_ConstructTransactionC1B8ne200100ERS7_y DATA
 0005:000006a8 0000000cH .pdata$_ZNSt3__116allocator_traitsINS_9allocatorIPN3Fmx9Objects3d7TSphereEEEE9constructB8ne200100IS5_JRKS5_EvTnNS_9enable_ifIXntsr15__has_constructIS6_PT_DpT0_EE5valueEiE4typeELi0EEEvRS6_SD_DpOSE_ DATA
 0005:000006b4 0000000cH .pdata$_ZNSt3__112__to_addressB8ne200100IPN3Fmx9Objects3d7TSphereEEEPT_S6_ DATA
 0005:000006c0 0000000cH .pdata$_ZNSt3__16vectorIPN3Fmx9Objects3d7TSphereENS_9allocatorIS4_EEE21_ConstructTransactionD1B8ne200100Ev DATA
 0005:000006cc 0000000cH .pdata$_ZNSt3__16vectorIPN3Fmx9Objects3d7TSphereENS_9allocatorIS4_EEE21_ConstructTransactionC2B8ne200100ERS7_y DATA
 0005:000006d8 0000000cH .pdata$_ZNSt3__114__construct_atB8ne200100IPN3Fmx9Objects3d7TSphereEJRKS4_EPS4_EEPT_S9_DpOT0_ DATA
 0005:000006e4 0000000cH .pdata$_ZNSt3__112construct_atB8ne200100IPN3Fmx9Objects3d7TSphereEJRKS4_EPS4_EEPT_S9_DpOT0_ DATA
 0005:000006f0 0000000cH .pdata$_ZNSt3__16vectorIPN3Fmx9Objects3d7TSphereENS_9allocatorIS4_EEE21_ConstructTransactionD2B8ne200100Ev DATA
 0005:000006fc 0000000cH .pdata$_ZNKSt3__16vectorIPN3Fmx9Objects3d7TSphereENS_9allocatorIS4_EEE11__recommendB8ne200100Ey DATA
 0005:00000708 0000000cH .pdata$_ZNSt3__114__split_bufferIPN3Fmx9Objects3d7TSphereERNS_9allocatorIS4_EEEC1EyyS7_ DATA
 0005:00000714 0000000cH .pdata$_ZNSt3__16vectorIPN3Fmx9Objects3d7TSphereENS_9allocatorIS4_EEE26__swap_out_circular_bufferERNS_14__split_bufferIS4_RS6_EE DATA
 0005:00000720 0000000cH .pdata$_ZNSt3__114__split_bufferIPN3Fmx9Objects3d7TSphereERNS_9allocatorIS4_EEED1Ev DATA
 0005:0000072c 0000000cH .pdata$_ZNKSt3__16vectorIPN3Fmx9Objects3d7TSphereENS_9allocatorIS4_EEE8max_sizeB8ne200100Ev DATA
 0005:00000738 0000000cH .pdata$_ZNSt3__16vectorIPN3Fmx9Objects3d7TSphereENS_9allocatorIS4_EEE20__throw_length_errorB8ne200100Ev DATA
 0005:00000744 0000000cH .pdata$_ZNKSt3__16vectorIPN3Fmx9Objects3d7TSphereENS_9allocatorIS4_EEE8capacityB8ne200100Ev DATA
 0005:00000750 0000000cH .pdata$_ZNSt3__13maxB8ne200100IyEERKT_S3_S3_ DATA
 0005:0000075c 0000000cH .pdata$_ZNSt3__13minB8ne200100IyEERKT_S3_S3_ DATA
 0005:00000768 0000000cH .pdata$_ZNSt3__116allocator_traitsINS_9allocatorIPN3Fmx9Objects3d7TSphereEEEE8max_sizeB8ne200100IS6_vTnNS_9enable_ifIXntsr14__has_max_sizeIKT_EE5valueEiE4typeELi0EEEyRKS6_ DATA
 0005:00000774 0000000cH .pdata$_ZNSt3__114numeric_limitsIxE3maxB8ne200100Ev DATA
 0005:00000780 0000000cH .pdata$_ZNSt3__13minB8ne200100IyNS_6__lessIvvEEEERKT_S5_S5_T0_ DATA
 0005:0000078c 0000000cH .pdata$_ZNKSt3__16__lessIvvEclB8ne200100IyyEEbRKT_RKT0_ DATA
 0005:00000798 0000000cH .pdata$_ZNSt3__114numeric_limitsIyE3maxB8ne200100Ev DATA
 0005:000007a4 0000000cH .pdata$_ZNSt3__120__throw_length_errorB8ne200100EPKc DATA
 0005:000007b0 0000000cH .pdata$_ZNSt12length_errorC1B8ne200100EPKc DATA
 0005:000007bc 0000000cH .pdata$_ZNSt12length_errorC2B8ne200100EPKc DATA
 0005:000007c8 0000000cH .pdata$_ZNSt3__13maxB8ne200100IyNS_6__lessIvvEEEERKT_S5_S5_T0_ DATA
 0005:000007d4 0000000cH .pdata$_ZNSt3__114__split_bufferIPN3Fmx9Objects3d7TSphereERNS_9allocatorIS4_EEEC2EyyS7_ DATA
 0005:000007e0 0000000cH .pdata$_ZNSt3__119__allocate_at_leastB8ne200100INS_9allocatorIPN3Fmx9Objects3d7TSphereEEEEEDaRT_y DATA
 0005:000007ec 0000000cH .pdata$_ZNSt3__116allocator_traitsINS_9allocatorIPN3Fmx9Objects3d7TSphereEEEE17allocate_at_leastB8ne200100IS6_EENS_17allocation_resultIPS5_yEERT_y DATA
 0005:000007f8 0000000cH .pdata$_ZNSt3__19allocatorIPN3Fmx9Objects3d7TSphereEE17allocate_at_leastB8ne200100Ey DATA
 0005:00000804 0000000cH .pdata$_ZNSt3__19allocatorIPN3Fmx9Objects3d7TSphereEE8allocateB8ne200100Ey DATA
 0005:00000810 0000000cH .pdata$_ZSt28__throw_bad_array_new_lengthB8ne200100v DATA
 0005:0000081c 0000000cH .pdata$_ZNSt3__117__libcpp_allocateB8ne200100IPN3Fmx9Objects3d7TSphereEEEPT_NS_15__element_countEy DATA
 0005:00000828 0000000cH .pdata$_ZNSt3__124__is_overaligned_for_newB8ne200100Ey DATA
 0005:00000834 0000000cH .pdata$_ZNSt3__121__libcpp_operator_newB8ne200100IJySt11align_val_tEEEPvDpT_ DATA
 0005:00000840 0000000cH .pdata$_ZNSt3__121__libcpp_operator_newB8ne200100IJyEEEPvDpT_ DATA
 0005:0000084c 0000000cH .pdata$_ZNKSt3__16vectorIPN3Fmx9Objects3d7TSphereENS_9allocatorIS4_EEE17__annotate_deleteB8ne200100Ev DATA
 0005:00000858 0000000cH .pdata$_ZNSt3__134__uninitialized_allocator_relocateB8ne200100INS_9allocatorIPN3Fmx9Objects3d7TSphereEEEPS5_EEvRT_T0_SA_SA_ DATA
 0005:00000864 0000000cH .pdata$_ZNSt3__14swapB8ne200100IPPN3Fmx9Objects3d7TSphereEEENS_9enable_ifIXaasr21is_move_constructibleIT_EE5valuesr18is_move_assignableIS7_EE5valueEvE4typeERS7_SA_ DATA
 0005:00000870 0000000cH .pdata$_ZNKSt3__16vectorIPN3Fmx9Objects3d7TSphereENS_9allocatorIS4_EEE14__annotate_newB8ne200100Ey DATA
 0005:0000087c 0000000cH .pdata$_ZNSt3__114__split_bufferIPN3Fmx9Objects3d7TSphereERNS_9allocatorIS4_EEED2Ev DATA
 0005:00000888 0000000cH .pdata$_ZNSt3__114__split_bufferIPN3Fmx9Objects3d7TSphereERNS_9allocatorIS4_EEE5clearB8ne200100Ev DATA
 0005:00000894 0000000cH .pdata$_ZNSt3__116allocator_traitsINS_9allocatorIPN3Fmx9Objects3d7TSphereEEEE10deallocateB8ne200100ERS6_PS5_y DATA
 0005:000008a0 0000000cH .pdata$_ZNKSt3__114__split_bufferIPN3Fmx9Objects3d7TSphereERNS_9allocatorIS4_EEE8capacityB8ne200100Ev DATA
 0005:000008ac 0000000cH .pdata$_ZNSt3__114__split_bufferIPN3Fmx9Objects3d7TSphereERNS_9allocatorIS4_EEE17__destruct_at_endB8ne200100EPS4_ DATA
 0005:000008b8 0000000cH .pdata$_ZNSt3__114__split_bufferIPN3Fmx9Objects3d7TSphereERNS_9allocatorIS4_EEE17__destruct_at_endB8ne200100EPS4_NS_17integral_constantIbLb0EEE DATA
 0005:000008c4 0000000cH .pdata$_ZNSt3__116allocator_traitsINS_9allocatorIPN3Fmx9Objects3d7TSphereEEEE7destroyB8ne200100IS5_vTnNS_9enable_ifIXntsr13__has_destroyIS6_PT_EE5valueEiE4typeELi0EEEvRS6_SB_ DATA
 0005:000008d0 0000000cH .pdata$_ZNSt3__112__destroy_atB8ne200100IPN3Fmx9Objects3d7TSphereETnNS_9enable_ifIXntsr8is_arrayIT_EE5valueEiE4typeELi0EEEvPS6_ DATA
 0005:000008dc 0000000cH .pdata$_ZNSt3__19allocatorIPN3Fmx9Objects3d7TSphereEE10deallocateB8ne200100EPS4_y DATA
 0005:000008e8 0000000cH .pdata$_ZNSt3__119__libcpp_deallocateB8ne200100IPN3Fmx9Objects3d7TSphereEEEvPNS_15__type_identityIT_E4typeENS_15__element_countEy DATA
 0005:000008f4 0000000cH .pdata$_ZNSt3__124__libcpp_operator_deleteB8ne200100IJPPN3Fmx9Objects3d7TSphereESt11align_val_tEEEvDpT_ DATA
 0005:00000900 0000000cH .pdata$_ZNSt3__124__libcpp_operator_deleteB8ne200100IJPPN3Fmx9Objects3d7TSphereEEEEvDpT_ DATA
 0005:0000090c 0000000cH .pdata$_ZNSt3__1miB8ne200100IPKPN3Fmx9Objects3d7TSphereES6_EEDTmicldtfp_4baseEcldtfp0_4baseEERKNS_11__wrap_iterIT_EERKNS8_IT0_EE DATA
 0005:00000918 0000000cH .pdata$_ZNKSt3__16vectorIPN3Fmx9Objects3d7TSphereENS_9allocatorIS4_EEE6cbeginB8ne200100Ev DATA
 0005:00000924 0000000cH .pdata$_ZNSt3__16vectorIPN3Fmx9Objects3d7TSphereENS_9allocatorIS4_EEE17__destruct_at_endB8ne200100EPS4_ DATA
 0005:00000930 0000000cH .pdata$_ZNSt3__14moveB8ne200100IPPN3Fmx9Objects3d7TSphereES5_EET0_T_S7_S6_ DATA
 0005:0000093c 0000000cH .pdata$_ZNSt3__16vectorIPN3Fmx9Objects3d7TSphereENS_9allocatorIS4_EEE11__make_iterB8ne200100EPS4_ DATA
 0005:00000948 0000000cH .pdata$_ZNKSt3__111__wrap_iterIPKPN3Fmx9Objects3d7TSphereEE4baseB8ne200100Ev DATA
 0005:00000954 0000000cH .pdata$_ZNKSt3__16vectorIPN3Fmx9Objects3d7TSphereENS_9allocatorIS4_EEE5beginB8ne200100Ev DATA
 0005:00000960 0000000cH .pdata$_ZNKSt3__16vectorIPN3Fmx9Objects3d7TSphereENS_9allocatorIS4_EEE11__make_iterB8ne200100EPKS4_ DATA
 0005:0000096c 0000000cH .pdata$_ZNSt3__16vectorIPN3Fmx9Objects3d7TSphereENS_9allocatorIS4_EEE26__add_alignment_assumptionB8ne200100IPS4_TnNS_9enable_ifIXsr10is_pointerIT_EE5valueEiE4typeELi0EEES9_SB_ DATA
 0005:00000978 0000000cH .pdata$_ZNSt3__111__wrap_iterIPKPN3Fmx9Objects3d7TSphereEEC1B8ne200100ES6_ DATA
 0005:00000984 0000000cH .pdata$_ZNSt3__111__wrap_iterIPKPN3Fmx9Objects3d7TSphereEEC2B8ne200100ES6_ DATA
 0005:00000990 0000000cH .pdata$_ZNSt3__16vectorIPN3Fmx9Objects3d7TSphereENS_9allocatorIS4_EEE22__base_destruct_at_endB8ne200100EPS4_ DATA
 0005:0000099c 0000000cH .pdata$_ZNKSt3__16vectorIPN3Fmx9Objects3d7TSphereENS_9allocatorIS4_EEE17__annotate_shrinkB8ne200100Ey DATA
 0005:000009a8 0000000cH .pdata$_ZNSt3__16__moveB8ne200100INS_17_ClassicAlgPolicyEPPN3Fmx9Objects3d7TSphereES6_S6_EENS_4pairIT0_T2_EES8_T1_S9_ DATA
 0005:000009b4 0000000cH .pdata$_ZNSt3__124__copy_move_unwrap_itersB8ne200100INS_11__move_implINS_17_ClassicAlgPolicyEEEPPN3Fmx9Objects3d7TSphereES8_S8_TnNS_9enable_ifIXsr12__can_rewrapIT0_T2_EE5valueEiE4typeELi0EEENS_4pairISA_SB_EESA_T1_SB_ DATA
 0005:000009c0 0000000cH .pdata$_ZNSt3__114__unwrap_rangeB8ne200100IPPN3Fmx9Objects3d7TSphereES5_EEDaT_T0_ DATA
 0005:000009cc 0000000cH .pdata$_ZNKSt3__111__move_implINS_17_ClassicAlgPolicyEEclB8ne200100IPN3Fmx9Objects3d7TSphereES7_TnNS_9enable_ifIXsr38__can_lower_move_assignment_to_memmoveIT_T0_EE5valueEiE4typeELi0EEENS_4pairIPS9_PSA_EESE_SE_SF_ DATA
 0005:000009d8 0000000cH .pdata$_ZNSt3__113__unwrap_iterB8ne200100IPPN3Fmx9Objects3d7TSphereENS_18__unwrap_iter_implIS5_Lb1EEETnNS_9enable_ifIXsr21is_copy_constructibleIT_EE5valueEiE4typeELi0EEEDTclsrT0_8__unwrapclsr3stdE7declvalIS9_EEEES9_ DATA
 0005:000009e4 0000000cH .pdata$_ZNSt3__19make_pairB8ne200100IPPN3Fmx9Objects3d7TSphereES5_EENS_4pairINS_18__unwrap_referenceIu7__decayIT_EE4typeENS7_Iu7__decayIT0_EE4typeEEEOS8_OSC_ DATA
 0005:000009f0 0000000cH .pdata$_ZNSt3__114__rewrap_rangeB8ne200100IPPN3Fmx9Objects3d7TSphereES5_S5_EET0_S6_T1_ DATA
 0005:000009fc 0000000cH .pdata$_ZNSt3__113__rewrap_iterB8ne200100IPPN3Fmx9Objects3d7TSphereES5_NS_18__unwrap_iter_implIS5_Lb1EEEEET_S8_T0_ DATA
 0005:00000a08 0000000cH .pdata$_ZNSt3__119__unwrap_range_implIPPN3Fmx9Objects3d7TSphereES5_E8__unwrapB8ne200100ES5_S5_ DATA
 0005:00000a14 0000000cH .pdata$_ZNSt3__14pairIPPN3Fmx9Objects3d7TSphereES5_EC1B8ne200100IS5_S5_TnNS_9enable_ifIXclsr10_CheckArgsE23__is_pair_constructibleIT_T0_EEEiE4typeELi0EEEOS9_OSA_ DATA
 0005:00000a20 0000000cH .pdata$_ZNSt3__14pairIPPN3Fmx9Objects3d7TSphereES5_EC2B8ne200100IS5_S5_TnNS_9enable_ifIXclsr10_CheckArgsE23__is_pair_constructibleIT_T0_EEEiE4typeELi0EEEOS9_OSA_ DATA
 0005:00000a2c 0000000cH .pdata$_ZNSt3__119__copy_trivial_implB8ne200100IPN3Fmx9Objects3d7TSphereES4_EENS_4pairIPT_PT0_EES7_S7_S9_ DATA
 0005:00000a38 0000000cH .pdata$_ZNSt3__119__constexpr_memmoveB8ne200100IPN3Fmx9Objects3d7TSphereES4_TnNS_9enable_ifIXsr23__is_always_bitcastableIT0_T_EE5valueEiE4typeELi0EEEPS7_SA_PS6_NS_15__element_countE DATA
 0005:00000a44 0000000cH .pdata$_ZNSt3__19make_pairB8ne200100IRPPN3Fmx9Objects3d7TSphereES5_EENS_4pairINS_18__unwrap_referenceIu7__decayIT_EE4typeENS8_Iu7__decayIT0_EE4typeEEEOS9_OSD_ DATA
 0005:00000a50 0000000cH .pdata$_ZNSt3__14pairIPPN3Fmx9Objects3d7TSphereES5_EC1B8ne200100IRS5_S5_TnNS_9enable_ifIXclsr10_CheckArgsE23__is_pair_constructibleIT_T0_EEEiE4typeELi0EEEOSA_OSB_ DATA
 0005:00000a5c 0000000cH .pdata$_ZNSt3__14pairIPPN3Fmx9Objects3d7TSphereES5_EC2B8ne200100IRS5_S5_TnNS_9enable_ifIXclsr10_CheckArgsE23__is_pair_constructibleIT_T0_EEEiE4typeELi0EEEOSA_OSB_ DATA
 0005:00000a68 0000000cH .pdata$_ZNSt3__118__unwrap_iter_implIPPN3Fmx9Objects3d7TSphereELb1EE8__unwrapB8ne200100ES5_ DATA
 0005:00000a74 0000000cH .pdata$_ZNSt3__119__unwrap_range_implIPPN3Fmx9Objects3d7TSphereES5_E8__rewrapB8ne200100ES5_S5_ DATA
 0005:00000a80 0000000cH .pdata$_ZNSt3__118__unwrap_iter_implIPPN3Fmx9Objects3d7TSphereELb1EE8__rewrapB8ne200100ES5_S5_ DATA
 0005:00000a8c 0000000cH .pdata$_ZNSt3__111__wrap_iterIPPN3Fmx9Objects3d7TSphereEEC1B8ne200100ES5_ DATA
 0005:00000a98 0000000cH .pdata$_ZNSt3__111__wrap_iterIPPN3Fmx9Objects3d7TSphereEEC2B8ne200100ES5_ DATA
 0005:00000aa4 0000000cH .pdata$_ZNSt3__111__wrap_iterIPKPN3Fmx9Objects3d7TSphereEEC2B8ne200100IPS4_TnNS_9enable_ifIXsr4_AndINS_14is_convertibleIRKT_S6_EENS_7_OrImplIXaantcvbsr7is_sameIRS5_NS_15iterator_traitsISC_E9referenceEEE5valuenesZT1_Li0EEE7_ResultINS_7is_sameISH_SK_EENSN_ISH_RKu20__remove_reference_tISK_EEEEEEE5valueEiE4typeELi0EEERKNS0_ISC_EE DATA
 0005:00000ab0 0000000cH .pdata$_ZNSt3__16vectorIPN3Fmx9Objects3d7TSphereENS_9allocatorIS4_EEED1B8ne200100Ev DATA
 0005:00000abc 0000000cH .pdata$_ZN3Fmx5Forms5TFormD0Ev DATA
 0005:00000ac8 0000000cH .pdata$_ZNSt3__16vectorIPN3Fmx9Objects3d7TSphereENS_9allocatorIS4_EEED2B8ne200100Ev DATA
 0005:00000ad4 0000000cH .pdata$_ZNSt3__16vectorIPN3Fmx9Objects3d7TSphereENS_9allocatorIS4_EEE16__destroy_vectorC1B8ne200100ERS7_ DATA
 0005:00000ae0 0000000cH .pdata$_ZNSt3__16vectorIPN3Fmx9Objects3d7TSphereENS_9allocatorIS4_EEE16__destroy_vectorclB8ne200100Ev DATA
 0005:00000aec 0000000cH .pdata$_ZNSt3__16vectorIPN3Fmx9Objects3d7TSphereENS_9allocatorIS4_EEE16__destroy_vectorC2B8ne200100ERS7_ DATA
 0005:00000af8 0000000cH .pdata$_ZNSt3__16vectorIPN3Fmx9Objects3d7TSphereENS_9allocatorIS4_EEE5clearB8ne200100Ev DATA
 0005:00000b04 0000000cH .pdata$_ZN6System15DelphiInterfaceINS_8Sysutils5TProcEED2Ev DATA
 0005:00000b10 0000000cH .pdata$_ZN6System15DelphiInterfaceINS_8Sysutils5TProcEEC1Ev DATA
 0005:00000b1c 0000000cH .pdata$_ZN6System15DelphiInterfaceINS_8Sysutils5TProcEEC1ERKS3_ DATA
 0005:00000b28 0000000cH .pdata$_ZN6System15DelphiInterfaceINS_8Sysutils5TProcEEC2Ev DATA
 0005:00000b34 0000000cH .pdata$_ZN6System15DelphiInterfaceINS_8Sysutils5TProcEEC2ERKS3_ DATA
 0005:00000b40 0000000cH .pdata$_ZN6System12DynamicArrayINS_3Net9Urlclient14TNameValuePairEEC2Ev DATA
 0005:00000b4c 0000000cH .pdata$_ZN6System12DynamicArrayINS_3Net9Urlclient14TNameValuePairEED2Ev DATA
 0005:00000b58 0000000cH .pdata$_ZN6System12DynamicArrayINS_3Net9Urlclient14TNameValuePairEEC1ERKS4_ DATA
 0005:00000b64 0000000cH .pdata$_ZN6System12DynamicArrayINS_3Net9Urlclient14TNameValuePairEE11DecRefCountEv DATA
 0005:00000b70 0000000cH .pdata$_ZN6System12DynamicArrayINS_3Net9Urlclient14TNameValuePairEEC2ERKS4_ DATA
 0005:00000b7c 0000000cH .pdata$_ZN6System12DynamicArrayINS_3Net9Urlclient14TNameValuePairEE11IncRefCountEv DATA
 0005:00000b88 0000000cH .pdata$_ZN6System12DynamicArrayINS_3Net9Urlclient14TNameValuePairEE8FreeDataEv DATA
 0005:00000b94 0000000cH .pdata$_ZNK6System12DynamicArrayINS_3Net9Urlclient14TNameValuePairEE10get_lengthEv DATA
 0005:00000ba0 0000000cH .pdata$_ZN6System3Net9Urlclient14TNameValuePairD1Ev DATA
 0005:00000bac 0000000cH .pdata$_ZNK6System12DynamicArrayINS_3Net9Urlclient14TNameValuePairEE6GetRecEv DATA
 0005:00000bb8 0000000cH .pdata$_ZN6System3Net9Urlclient14TNameValuePairD2Ev DATA
 0005:00000bc4 0000000cH .pdata$_ZN6System15DelphiInterfaceINS_3Net10Httpclient13IHTTPResponseEEC2Ev DATA
 0005:00000bd0 0000000cH .pdata$_ZN6System15DelphiInterfaceINS_3Net10Httpclient13IHTTPResponseEED2Ev DATA
 0005:00000bdc 0000000cH .pdata$_ZN6System15DelphiInterfaceINS_3Net10Httpclient13IHTTPResponseEEC1ERKS4_ DATA
 0005:00000be8 0000000cH .pdata$_ZN6System15DelphiInterfaceINS_3Net10Httpclient13IHTTPResponseEEC2ERKS4_ DATA
 0005:00000bf4 0000000cH .pdata$_ZN6System15DelphiInterfaceINS_9Threading5ITaskEED2Ev DATA
 0005:00000c00 0000000cH .pdata$_ZN6System15DelphiInterfaceINS_9Threading5ITaskEEC1ERKS3_ DATA
 0005:00000c0c 0000000cH .pdata$_ZN6System15DelphiInterfaceINS_9Threading5ITaskEEC2ERKS3_ DATA
 0005:00000c18 0000000cH .pdata$_ZN6System15DelphiInterfaceINS_9Threading5ITaskEEC2Ev DATA
 0005:00000c24 0000000cH .pdata$_ZNSt3__113__atomic_baseIbLb0EE5storeB8ne200100EbNS_12memory_orderE DATA
 0005:00000c30 0000000cH .pdata$_ZNSt3__118__cxx_atomic_storeB8ne200100IbEEvPNS_22__cxx_atomic_base_implIT_EES2_NS_12memory_orderE DATA
 0005:00000c3c 0000000cH .pdata$_ZNSt3__121__cxx_atomic_exchangeB8ne200100IbEET_PNS_22__cxx_atomic_base_implIS1_EES1_NS_12memory_orderE DATA
 0005:00000c48 0000000cH .pdata$_ZN6System15DelphiInterfaceINS_8Sysutils5TProcEEaSEPS2_ DATA
 0005:00000c54 0000000cH .pdata$_ZN6System20TCppInterfacedObjectINS_8Sysutils5TProcE8IUnknownNS_10IInterfaceEE6AddRefEv DATA
 0005:00000c60 0000000cH .pdata$_ZN6System20TCppInterfacedObjectINS_8Sysutils5TProcE8IUnknownNS_10IInterfaceEE7ReleaseEv DATA
 0005:00000c6c 0000000cH .pdata$_ZN6System20TCppInterfacedObjectINS_8Sysutils5TProcE8IUnknownNS_10IInterfaceEE14QueryInterfaceERK5_GUIDPPv DATA
 0005:00000c78 0000000cH .pdata$_ZThn24_N6System20TCppInterfacedObjectINS_8Sysutils5TProcE8IUnknownNS_10IInterfaceEE14QueryInterfaceERK5_GUIDPPv DATA
 0005:00000c84 0000000cH .pdata$_ZThn24_N6System20TCppInterfacedObjectINS_8Sysutils5TProcE8IUnknownNS_10IInterfaceEE6AddRefEv DATA
 0005:00000c90 0000000cH .pdata$_ZThn24_N6System20TCppInterfacedObjectINS_8Sysutils5TProcE8IUnknownNS_10IInterfaceEE7ReleaseEv DATA
 0005:00000c9c 0000000cH .pdata$_ZThn32_N6System20TCppInterfacedObjectINS_8Sysutils5TProcE8IUnknownNS_10IInterfaceEE14QueryInterfaceERK5_GUIDPPv DATA
 0005:00000ca8 0000000cH .pdata$_ZThn32_N6System20TCppInterfacedObjectINS_8Sysutils5TProcE8IUnknownNS_10IInterfaceEE6AddRefEv DATA
 0005:00000cb4 0000000cH .pdata$_ZThn32_N6System20TCppInterfacedObjectINS_8Sysutils5TProcE8IUnknownNS_10IInterfaceEE7ReleaseEv DATA
 0005:00000cc0 0000000cH .pdata$_ZThn40_N6System20TCppInterfacedObjectINS_8Sysutils5TProcE8IUnknownNS_10IInterfaceEE14QueryInterfaceERK5_GUIDPPv DATA
 0005:00000ccc 0000000cH .pdata$_ZThn40_N6System20TCppInterfacedObjectINS_8Sysutils5TProcE8IUnknownNS_10IInterfaceEE6AddRefEv DATA
 0005:00000cd8 0000000cH .pdata$_ZThn40_N6System20TCppInterfacedObjectINS_8Sysutils5TProcE8IUnknownNS_10IInterfaceEE7ReleaseEv DATA
 0005:00000ce4 0000000cH .pdata$_ZN6System20TCppInterfacedObjectINS_8Sysutils5TProcE8IUnknownNS_10IInterfaceEED0Ev DATA
 0005:00000cf0 0000000cH .pdata$_ZN6System20TCppInterfacedObjectINS_8Sysutils5TProcE8IUnknownNS_10IInterfaceEEC3Ev DATA
 0005:00000cfc 0000000cH .pdata$_ZN6System17TInterfacedObjectC3Ev DATA
 0005:00000d08 0000000cH .pdata$_ZN6System8Sysutils5TProcC2Ev DATA
 0005:00000d14 0000000cH .pdata$_ZN8IUnknownC2Ev DATA
 0005:00000d20 0000000cH .pdata$_ZN6System10IInterfaceC2Ev DATA
 0005:00000d2c 0000000cH .pdata$_ZNK6System13UnicodeString7IsEmptyEv DATA
 0005:00000d38 0000000cH .pdata$_ZNSt3__110unique_ptrIN6System7Classes11TStringListENS_14default_deleteIS3_EEEC1B8ne200100ILb1EvEEPS3_ DATA
 0005:00000d44 0000000cH .pdata$_ZNKSt3__110unique_ptrIN6System7Classes11TStringListENS_14default_deleteIS3_EEEptB8ne200100Ev DATA
 0005:00000d50 0000000cH .pdata$_ZNSt3__110unique_ptrIN6System7Classes11TStringListENS_14default_deleteIS3_EEED1B8ne200100Ev DATA
 0005:00000d5c 0000000cH .pdata$_ZN6System15DelphiInterfaceINS_7Classes16TThreadProcedureEED1Ev DATA
 0005:00000d68 0000000cH .pdata$_ZNSt3__110unique_ptrIN6System7Classes11TStringListENS_14default_deleteIS3_EEEC2B8ne200100ILb1EvEEPS3_ DATA
 0005:00000d74 0000000cH .pdata$_ZNSt3__110unique_ptrIN6System7Classes11TStringListENS_14default_deleteIS3_EEED2B8ne200100Ev DATA
 0005:00000d80 0000000cH .pdata$_ZNSt3__110unique_ptrIN6System7Classes11TStringListENS_14default_deleteIS3_EEE5resetB8ne200100EPS3_ DATA
 0005:00000d8c 0000000cH .pdata$_ZNKSt3__114default_deleteIN6System7Classes11TStringListEEclB8ne200100EPS3_ DATA
 0005:00000d98 0000000cH .pdata$_ZN6System15DelphiInterfaceINS_7Classes16TThreadProcedureEEaSEPS2_ DATA
 0005:00000da4 0000000cH .pdata$_ZN6System20TCppInterfacedObjectINS_7Classes16TThreadProcedureE8IUnknownNS_10IInterfaceEE6AddRefEv DATA
 0005:00000db0 0000000cH .pdata$_ZN6System20TCppInterfacedObjectINS_7Classes16TThreadProcedureE8IUnknownNS_10IInterfaceEE7ReleaseEv DATA
 0005:00000dbc 0000000cH .pdata$_ZN6System20TCppInterfacedObjectINS_7Classes16TThreadProcedureE8IUnknownNS_10IInterfaceEE14QueryInterfaceERK5_GUIDPPv DATA
 0005:00000dc8 0000000cH .pdata$_ZThn24_N6System20TCppInterfacedObjectINS_7Classes16TThreadProcedureE8IUnknownNS_10IInterfaceEE14QueryInterfaceERK5_GUIDPPv DATA
 0005:00000dd4 0000000cH .pdata$_ZThn24_N6System20TCppInterfacedObjectINS_7Classes16TThreadProcedureE8IUnknownNS_10IInterfaceEE6AddRefEv DATA
 0005:00000de0 0000000cH .pdata$_ZThn24_N6System20TCppInterfacedObjectINS_7Classes16TThreadProcedureE8IUnknownNS_10IInterfaceEE7ReleaseEv DATA
 0005:00000dec 0000000cH .pdata$_ZThn32_N6System20TCppInterfacedObjectINS_7Classes16TThreadProcedureE8IUnknownNS_10IInterfaceEE14QueryInterfaceERK5_GUIDPPv DATA
 0005:00000df8 0000000cH .pdata$_ZThn32_N6System20TCppInterfacedObjectINS_7Classes16TThreadProcedureE8IUnknownNS_10IInterfaceEE6AddRefEv DATA
 0005:00000e04 0000000cH .pdata$_ZThn32_N6System20TCppInterfacedObjectINS_7Classes16TThreadProcedureE8IUnknownNS_10IInterfaceEE7ReleaseEv DATA
 0005:00000e10 0000000cH .pdata$_ZThn40_N6System20TCppInterfacedObjectINS_7Classes16TThreadProcedureE8IUnknownNS_10IInterfaceEE14QueryInterfaceERK5_GUIDPPv DATA
 0005:00000e1c 0000000cH .pdata$_ZThn40_N6System20TCppInterfacedObjectINS_7Classes16TThreadProcedureE8IUnknownNS_10IInterfaceEE6AddRefEv DATA
 0005:00000e28 0000000cH .pdata$_ZThn40_N6System20TCppInterfacedObjectINS_7Classes16TThreadProcedureE8IUnknownNS_10IInterfaceEE7ReleaseEv DATA
 0005:00000e34 0000000cH .pdata$_ZN6System20TCppInterfacedObjectINS_7Classes16TThreadProcedureE8IUnknownNS_10IInterfaceEED0Ev DATA
 0005:00000e40 0000000cH .pdata$_ZN6System20TCppInterfacedObjectINS_7Classes16TThreadProcedureE8IUnknownNS_10IInterfaceEEC3Ev DATA
 0005:00000e4c 0000000cH .pdata$_ZN6System7Classes16TThreadProcedureC2Ev DATA
 0005:00000e58 0000000cH .pdata$_ZN6System13UnicodeStringC1EOS0_ DATA
 0005:00000e64 0000000cH .pdata$_ZN6System13UnicodeStringC2EOS0_ DATA
 0005:00000e70 0000000cH .pdata$_ZN6System17TInterfacedObjectD0Ev DATA
 0005:00000e7c 0000000cH .pdata$_ZN6System15DelphiInterfaceINS_7Classes16TThreadProcedureEED2Ev DATA
 0005:00000e88 0000000cH .pdata$_ZN6System15DelphiInterfaceINS_7Classes16TThreadProcedureEEC1Ev DATA
 0005:00000e94 0000000cH .pdata$_ZN6System15DelphiInterfaceINS_7Classes16TThreadProcedureEEC1ERKS3_ DATA
 0005:00000ea0 0000000cH .pdata$_ZN6System15DelphiInterfaceINS_7Classes16TThreadProcedureEEC2Ev DATA
 0005:00000eac 0000000cH .pdata$_ZN6System15DelphiInterfaceINS_7Classes16TThreadProcedureEEC2ERKS3_ DATA
 0005:00000eb8 0000039cH .pdata                  DATA
 0005:00001254 0000000cH .pdata$_ZN6System15DelphiInterfaceINS_10IInterfaceEEadEv DATA
 0005:00001260 0000000cH .pdata$_ZN6System15DelphiInterfaceINS_10IInterfaceEED2Ev DATA
 0005:0000126c 0000000cH .pdata$_ZNSt3__110lock_guardINS_5mutexEEC2B8ne200100ERS1_ DATA
 0005:00001278 0000000cH .pdata$_ZNSt3__113unordered_mapIPN6System7Typinfo9TTypeInfoEPSt9type_infoNS_4hashIS4_EENS_8equal_toIS4_EENS_9allocatorINS_4pairIKS4_S6_EEEEEC2B8ne200100Ev DATA
 0005:00001284 0000000cH .pdata$_ZNSt3__113unordered_mapIPN6System7Typinfo9TTypeInfoEPSt9type_infoNS_4hashIS4_EENS_8equal_toIS4_EENS_9allocatorINS_4pairIKS4_S6_EEEEED2B8ne200100Ev DATA
 0005:00001290 0000000cH .pdata$_ZNSt3__113unordered_mapIPN6System7Typinfo9TTypeInfoEPSt9type_infoNS_4hashIS4_EENS_8equal_toIS4_EENS_9allocatorINS_4pairIKS4_S6_EEEEEixERSD_ DATA
 0005:0000129c 0000000cH .pdata$_ZN6System11AnsiStringTILt65001EEC2ERKNS_13UnicodeStringE DATA
 0005:000012a8 0000000cH .pdata$_ZNK6System11AnsiStringTILt65001EEplERKS1_ DATA
 0005:000012b4 0000000cH .pdata$_ZN6System11AnsiStringTILt65001EEC2EPKc DATA
 0005:000012c0 0000000cH .pdata$_ZN6System11AnsiStringTILt65001EEC2Ev DATA
 0005:000012cc 0000000cH .pdata$_ZN6System11AnsiStringTILt65001EEaSEOS1_ DATA
 0005:000012d8 0000000cH .pdata$_ZN6System11AnsiStringTILt65001EED2Ev DATA
 0005:000012e4 0000000cH .pdata$_ZN10__cxxabiv117__class_type_infoC2Ev DATA
 0005:000012f0 0000000cH .pdata$_ZNK6System11AnsiStringTILt65001EE5c_strEv DATA
 0005:000012fc 0000000cH .pdata$_ZNSt3__110lock_guardINS_5mutexEED2B8ne200100Ev DATA
 0005:00001308 0000000cH .pdata$_ZN10__cxxabiv116__shim_type_infoC2Ev DATA
 0005:00001314 0000000cH .pdata$_ZNSt3__112__hash_tableINS_17__hash_value_typeIPN6System7Typinfo9TTypeInfoEPSt9type_infoEENS_22__unordered_map_hasherIS5_S8_NS_4hashIS5_EENS_8equal_toIS5_EELb1EEENS_21__unordered_map_equalIS5_S8_SD_SB_Lb1EEENS_9allocatorIS8_EEEC2Ev DATA
 0005:00001320 0000000cH .pdata$_ZNSt3__110unique_ptrIA_PNS_16__hash_node_baseIPNS_11__hash_nodeINS_17__hash_value_typeIPN6System7Typinfo9TTypeInfoEPSt9type_infoEEPvEEEENS_25__bucket_list_deallocatorINS_9allocatorISF_EEEEEC2B8ne200100ILb1EvEEv DATA
 0005:0000132c 0000000cH .pdata$_ZNSt3__116__hash_node_baseIPNS_11__hash_nodeINS_17__hash_value_typeIPN6System7Typinfo9TTypeInfoEPSt9type_infoEEPvEEEC2B8ne200100Ev DATA
 0005:00001338 0000000cH .pdata$_ZNSt3__19allocatorINS_11__hash_nodeINS_17__hash_value_typeIPN6System7Typinfo9TTypeInfoEPSt9type_infoEEPvEEEC2B8ne200100Ev DATA
 0005:00001344 0000000cH .pdata$_ZNSt3__122__unordered_map_hasherIPN6System7Typinfo9TTypeInfoENS_17__hash_value_typeIS4_PSt9type_infoEENS_4hashIS4_EENS_8equal_toIS4_EELb1EEC2B8ne200100Ev DATA
 0005:00001350 0000000cH .pdata$_ZNSt3__121__unordered_map_equalIPN6System7Typinfo9TTypeInfoENS_17__hash_value_typeIS4_PSt9type_infoEENS_8equal_toIS4_EENS_4hashIS4_EELb1EEC2B8ne200100Ev DATA
 0005:0000135c 0000000cH .pdata$_ZNSt3__125__bucket_list_deallocatorINS_9allocatorIPNS_16__hash_node_baseIPNS_11__hash_nodeINS_17__hash_value_typeIPN6System7Typinfo9TTypeInfoEPSt9type_infoEEPvEEEEEEEC2B8ne200100Ev DATA
 0005:00001368 0000000cH .pdata$_ZNSt3__19allocatorIPNS_16__hash_node_baseIPNS_11__hash_nodeINS_17__hash_value_typeIPN6System7Typinfo9TTypeInfoEPSt9type_infoEEPvEEEEEC2B8ne200100Ev DATA
 0005:00001374 0000000cH .pdata$_ZNSt3__116__non_trivial_ifILb1ENS_9allocatorIPNS_16__hash_node_baseIPNS_11__hash_nodeINS_17__hash_value_typeIPN6System7Typinfo9TTypeInfoEPSt9type_infoEEPvEEEEEEEC2B8ne200100Ev DATA
 0005:00001380 0000000cH .pdata$_ZNSt3__116__non_trivial_ifILb1ENS_9allocatorINS_11__hash_nodeINS_17__hash_value_typeIPN6System7Typinfo9TTypeInfoEPSt9type_infoEEPvEEEEEC2B8ne200100Ev DATA
 0005:0000138c 0000000cH .pdata$_ZNSt3__112__hash_tableINS_17__hash_value_typeIPN6System7Typinfo9TTypeInfoEPSt9type_infoEENS_22__unordered_map_hasherIS5_S8_NS_4hashIS5_EENS_8equal_toIS5_EELb1EEENS_21__unordered_map_equalIS5_S8_SD_SB_Lb1EEENS_9allocatorIS8_EEED2Ev DATA
 0005:00001398 0000000cH .pdata$_ZNSt3__112__hash_tableINS_17__hash_value_typeIPN6System7Typinfo9TTypeInfoEPSt9type_infoEENS_22__unordered_map_hasherIS5_S8_NS_4hashIS5_EENS_8equal_toIS5_EELb1EEENS_21__unordered_map_equalIS5_S8_SD_SB_Lb1EEENS_9allocatorIS8_EEE17__deallocate_nodeEPNS_16__hash_node_baseIPNS_11__hash_nodeIS8_PvEEEE DATA
 0005:000013a4 0000000cH .pdata$_ZNSt3__110unique_ptrIA_PNS_16__hash_node_baseIPNS_11__hash_nodeINS_17__hash_value_typeIPN6System7Typinfo9TTypeInfoEPSt9type_infoEEPvEEEENS_25__bucket_list_deallocatorINS_9allocatorISF_EEEEED2B8ne200100Ev DATA
 0005:000013b0 0000000cH .pdata$_ZNSt3__112__hash_tableINS_17__hash_value_typeIPN6System7Typinfo9TTypeInfoEPSt9type_infoEENS_22__unordered_map_hasherIS5_S8_NS_4hashIS5_EENS_8equal_toIS5_EELb1EEENS_21__unordered_map_equalIS5_S8_SD_SB_Lb1EEENS_9allocatorIS8_EEE12__node_allocB8ne200100Ev DATA
 0005:000013bc 0000000cH .pdata$_ZNSt3__116__hash_node_baseIPNS_11__hash_nodeINS_17__hash_value_typeIPN6System7Typinfo9TTypeInfoEPSt9type_infoEEPvEEE8__upcastB8ne200100Ev DATA
 0005:000013c8 0000000cH .pdata$_ZNSt3__116allocator_traitsINS_9allocatorINS_11__hash_nodeINS_17__hash_value_typeIPN6System7Typinfo9TTypeInfoEPSt9type_infoEEPvEEEEE7destroyB8ne200100INS_4pairIKS7_S9_EEvTnNS_9enable_ifIXntsr13__has_destroyISD_PT_EE5valueEiE4typeELi0EEEvRSD_SL_ DATA
 0005:000013d4 0000000cH .pdata$_ZNSt3__122__hash_key_value_typesINS_17__hash_value_typeIPN6System7Typinfo9TTypeInfoEPSt9type_infoEEE9__get_ptrB8ne200100ERS8_ DATA
 0005:000013e0 0000000cH .pdata$_ZNSt3__111__hash_nodeINS_17__hash_value_typeIPN6System7Typinfo9TTypeInfoEPSt9type_infoEEPvE11__get_valueB8ne200100Ev DATA
 0005:000013ec 0000000cH .pdata$_ZNSt3__112__destroy_atB8ne200100INS_11__hash_nodeINS_17__hash_value_typeIPN6System7Typinfo9TTypeInfoEPSt9type_infoEEPvEETnNS_9enable_ifIXntsr8is_arrayIT_EE5valueEiE4typeELi0EEEvPSD_ DATA
 0005:000013f8 0000000cH .pdata$_ZNSt3__116allocator_traitsINS_9allocatorINS_11__hash_nodeINS_17__hash_value_typeIPN6System7Typinfo9TTypeInfoEPSt9type_infoEEPvEEEEE10deallocateB8ne200100ERSD_PSC_y DATA
 0005:00001404 0000000cH .pdata$_ZNSt3__114pointer_traitsIPNS_16__hash_node_baseIPNS_11__hash_nodeINS_17__hash_value_typeIPN6System7Typinfo9TTypeInfoEPSt9type_infoEEPvEEEEE10pointer_toB8ne200100ERSE_ DATA
 0005:00001410 0000000cH .pdata$_ZNSt3__112__destroy_atB8ne200100INS_4pairIKPN6System7Typinfo9TTypeInfoEPSt9type_infoEETnNS_9enable_ifIXntsr8is_arrayIT_EE5valueEiE4typeELi0EEEvPSB_ DATA
 0005:0000141c 0000000cH .pdata$_ZNSt3__117__hash_value_typeIPN6System7Typinfo9TTypeInfoEPSt9type_infoE11__get_valueB8ne200100Ev DATA
 0005:00001428 0000000cH .pdata$_ZNSt3__17launderB8ne200100INS_4pairIKPN6System7Typinfo9TTypeInfoEPSt9type_infoEEEEPT_SB_ DATA
 0005:00001434 0000000cH .pdata$_ZNSt3__19__launderB8ne200100INS_4pairIKPN6System7Typinfo9TTypeInfoEPSt9type_infoEEEEPT_SB_ DATA
 0005:00001440 0000000cH .pdata$_ZNSt3__111__hash_nodeINS_17__hash_value_typeIPN6System7Typinfo9TTypeInfoEPSt9type_infoEEPvED2B8ne200100Ev DATA
 0005:0000144c 0000000cH .pdata$_ZNSt3__19allocatorINS_11__hash_nodeINS_17__hash_value_typeIPN6System7Typinfo9TTypeInfoEPSt9type_infoEEPvEEE10deallocateB8ne200100EPSB_y DATA
 0005:00001458 0000000cH .pdata$_ZNSt3__119__libcpp_deallocateB8ne200100INS_11__hash_nodeINS_17__hash_value_typeIPN6System7Typinfo9TTypeInfoEPSt9type_infoEEPvEEEEvPNS_15__type_identityIT_E4typeENS_15__element_countEy DATA
 0005:00001464 0000000cH .pdata$_ZNSt3__124__libcpp_operator_deleteB8ne200100IJPNS_11__hash_nodeINS_17__hash_value_typeIPN6System7Typinfo9TTypeInfoEPSt9type_infoEEPvEESt11align_val_tEEEvDpT_ DATA
 0005:00001470 0000000cH .pdata$_ZNSt3__124__libcpp_operator_deleteB8ne200100IJPNS_11__hash_nodeINS_17__hash_value_typeIPN6System7Typinfo9TTypeInfoEPSt9type_infoEEPvEEEEEvDpT_ DATA
 0005:0000147c 0000000cH .pdata$_ZNSt3__110unique_ptrIA_PNS_16__hash_node_baseIPNS_11__hash_nodeINS_17__hash_value_typeIPN6System7Typinfo9TTypeInfoEPSt9type_infoEEPvEEEENS_25__bucket_list_deallocatorINS_9allocatorISF_EEEEE5resetB8ne200100EDn DATA
 0005:00001488 0000000cH .pdata$_ZNSt3__125__bucket_list_deallocatorINS_9allocatorIPNS_16__hash_node_baseIPNS_11__hash_nodeINS_17__hash_value_typeIPN6System7Typinfo9TTypeInfoEPSt9type_infoEEPvEEEEEEEclB8ne200100EPSG_ DATA
 0005:00001494 0000000cH .pdata$_ZNSt3__116allocator_traitsINS_9allocatorIPNS_16__hash_node_baseIPNS_11__hash_nodeINS_17__hash_value_typeIPN6System7Typinfo9TTypeInfoEPSt9type_infoEEPvEEEEEEE10deallocateB8ne200100ERSH_PSG_y DATA
 0005:000014a0 0000000cH .pdata$_ZNSt3__125__bucket_list_deallocatorINS_9allocatorIPNS_16__hash_node_baseIPNS_11__hash_nodeINS_17__hash_value_typeIPN6System7Typinfo9TTypeInfoEPSt9type_infoEEPvEEEEEEE7__allocB8ne200100Ev DATA
 0005:000014ac 0000000cH .pdata$_ZNSt3__125__bucket_list_deallocatorINS_9allocatorIPNS_16__hash_node_baseIPNS_11__hash_nodeINS_17__hash_value_typeIPN6System7Typinfo9TTypeInfoEPSt9type_infoEEPvEEEEEEE4sizeB8ne200100Ev DATA
 0005:000014b8 0000000cH .pdata$_ZNSt3__19allocatorIPNS_16__hash_node_baseIPNS_11__hash_nodeINS_17__hash_value_typeIPN6System7Typinfo9TTypeInfoEPSt9type_infoEEPvEEEEE10deallocateB8ne200100EPSF_y DATA
 0005:000014c4 0000000cH .pdata$_ZNSt3__119__libcpp_deallocateB8ne200100IPNS_16__hash_node_baseIPNS_11__hash_nodeINS_17__hash_value_typeIPN6System7Typinfo9TTypeInfoEPSt9type_infoEEPvEEEEEEvPNS_15__type_identityIT_E4typeENS_15__element_countEy DATA
 0005:000014d0 0000000cH .pdata$_ZNSt3__124__libcpp_operator_deleteB8ne200100IJPPNS_16__hash_node_baseIPNS_11__hash_nodeINS_17__hash_value_typeIPN6System7Typinfo9TTypeInfoEPSt9type_infoEEPvEEEESt11align_val_tEEEvDpT_ DATA
 0005:000014dc 0000000cH .pdata$_ZNSt3__124__libcpp_operator_deleteB8ne200100IJPPNS_16__hash_node_baseIPNS_11__hash_nodeINS_17__hash_value_typeIPN6System7Typinfo9TTypeInfoEPSt9type_infoEEPvEEEEEEEvDpT_ DATA
 0005:000014e8 0000000cH .pdata$_ZNSt3__112__hash_tableINS_17__hash_value_typeIPN6System7Typinfo9TTypeInfoEPSt9type_infoEENS_22__unordered_map_hasherIS5_S8_NS_4hashIS5_EENS_8equal_toIS5_EELb1EEENS_21__unordered_map_equalIS5_S8_SD_SB_Lb1EEENS_9allocatorIS8_EEE25__emplace_unique_key_argsIS5_JRKNS_21piecewise_construct_tENS_5tupleIJRKS5_EEENSO_IJEEEEEENS_4pairINS_15__hash_iteratorIPNS_11__hash_nodeIS8_PvEEEEbEERKT_DpOT0_ DATA
 0005:000014f4 0000000cH .pdata$_ZNSt3__116forward_as_tupleB8ne200100IJRKPN6System7Typinfo9TTypeInfoEEEENS_5tupleIJDpOT_EEESA_ DATA
 0005:00001500 0000000cH .pdata$_ZNSt3__116forward_as_tupleB8ne200100IJEEENS_5tupleIJDpOT_EEES4_ DATA
 0005:0000150c 0000000cH .pdata$_ZNKSt3__115__hash_iteratorIPNS_11__hash_nodeINS_17__hash_value_typeIPN6System7Typinfo9TTypeInfoEPSt9type_infoEEPvEEEptB8ne200100Ev DATA
 0005:00001518 0000000cH .pdata$_ZNSt3__112__hash_tableINS_17__hash_value_typeIPN6System7Typinfo9TTypeInfoEPSt9type_infoEENS_22__unordered_map_hasherIS5_S8_NS_4hashIS5_EENS_8equal_toIS5_EELb1EEENS_21__unordered_map_equalIS5_S8_SD_SB_Lb1EEENS_9allocatorIS8_EEE13hash_functionB8ne200100Ev DATA
 0005:00001524 0000000cH .pdata$_ZNKSt3__122__unordered_map_hasherIPN6System7Typinfo9TTypeInfoENS_17__hash_value_typeIS4_PSt9type_infoEENS_4hashIS4_EENS_8equal_toIS4_EELb1EEclB8ne200100ERKS4_ DATA
 0005:00001530 0000000cH .pdata$_ZNKSt3__112__hash_tableINS_17__hash_value_typeIPN6System7Typinfo9TTypeInfoEPSt9type_infoEENS_22__unordered_map_hasherIS5_S8_NS_4hashIS5_EENS_8equal_toIS5_EELb1EEENS_21__unordered_map_equalIS5_S8_SD_SB_Lb1EEENS_9allocatorIS8_EEE12bucket_countB8ne200100Ev DATA
 0005:0000153c 0000000cH .pdata$_ZNSt3__116__constrain_hashB8ne200100Eyy DATA
 0005:00001548 0000000cH .pdata$_ZNKSt3__110unique_ptrIA_PNS_16__hash_node_baseIPNS_11__hash_nodeINS_17__hash_value_typeIPN6System7Typinfo9TTypeInfoEPSt9type_infoEEPvEEEENS_25__bucket_list_deallocatorINS_9allocatorISF_EEEEEixB8ne200100Ey DATA
 0005:00001554 0000000cH .pdata$_ZNKSt3__116__hash_node_baseIPNS_11__hash_nodeINS_17__hash_value_typeIPN6System7Typinfo9TTypeInfoEPSt9type_infoEEPvEEE6__hashB8ne200100Ev DATA
 0005:00001560 0000000cH .pdata$_ZNSt3__112__hash_tableINS_17__hash_value_typeIPN6System7Typinfo9TTypeInfoEPSt9type_infoEENS_22__unordered_map_hasherIS5_S8_NS_4hashIS5_EENS_8equal_toIS5_EELb1EEENS_21__unordered_map_equalIS5_S8_SD_SB_Lb1EEENS_9allocatorIS8_EEE6key_eqB8ne200100Ev DATA
 0005:0000156c 0000000cH .pdata$_ZNKSt3__121__unordered_map_equalIPN6System7Typinfo9TTypeInfoENS_17__hash_value_typeIS4_PSt9type_infoEENS_8equal_toIS4_EENS_4hashIS4_EELb1EEclB8ne200100ERKS8_RKS4_ DATA
 0005:00001578 0000000cH .pdata$_ZNSt3__112__hash_tableINS_17__hash_value_typeIPN6System7Typinfo9TTypeInfoEPSt9type_infoEENS_22__unordered_map_hasherIS5_S8_NS_4hashIS5_EENS_8equal_toIS5_EELb1EEENS_21__unordered_map_equalIS5_S8_SD_SB_Lb1EEENS_9allocatorIS8_EEE21__construct_node_hashIRKNS_21piecewise_construct_tEJNS_5tupleIJRKS5_EEENSO_IJEEEEEENS_10unique_ptrINS_11__hash_nodeIS8_PvEENS_22__hash_node_destructorINSH_ISW_EEEEEEyOT_DpOT0_ DATA
 0005:00001584 0000000cH .pdata$_ZNSt3__112__hash_tableINS_17__hash_value_typeIPN6System7Typinfo9TTypeInfoEPSt9type_infoEENS_22__unordered_map_hasherIS5_S8_NS_4hashIS5_EENS_8equal_toIS5_EELb1EEENS_21__unordered_map_equalIS5_S8_SD_SB_Lb1EEENS_9allocatorIS8_EEE4sizeB8ne200100Ev DATA
 0005:00001590 0000000cH .pdata$_ZNSt3__112__hash_tableINS_17__hash_value_typeIPN6System7Typinfo9TTypeInfoEPSt9type_infoEENS_22__unordered_map_hasherIS5_S8_NS_4hashIS5_EENS_8equal_toIS5_EELb1EEENS_21__unordered_map_equalIS5_S8_SD_SB_Lb1EEENS_9allocatorIS8_EEE15max_load_factorB8ne200100Ev DATA
 0005:0000159c 0000000cH .pdata$_ZNSt3__112__hash_tableINS_17__hash_value_typeIPN6System7Typinfo9TTypeInfoEPSt9type_infoEENS_22__unordered_map_hasherIS5_S8_NS_4hashIS5_EENS_8equal_toIS5_EELb1EEENS_21__unordered_map_equalIS5_S8_SD_SB_Lb1EEENS_9allocatorIS8_EEE15__rehash_uniqueB8ne200100Ey DATA
 0005:000015a8 0000000cH .pdata$_ZNSt3__116__is_hash_power2B8ne200100Ey DATA
 0005:000015b4 0000000cH .pdata$_ZNSt3__16__math4ceilB8ne200100Ef DATA
 0005:000015c0 0000000cH .pdata$_ZNSt3__116__hash_node_baseIPNS_11__hash_nodeINS_17__hash_value_typeIPN6System7Typinfo9TTypeInfoEPSt9type_infoEEPvEEE5__ptrB8ne200100Ev DATA
 0005:000015cc 0000000cH .pdata$_ZNKSt3__110unique_ptrINS_11__hash_nodeINS_17__hash_value_typeIPN6System7Typinfo9TTypeInfoEPSt9type_infoEEPvEENS_22__hash_node_destructorINS_9allocatorISB_EEEEEptB8ne200100Ev DATA
 0005:000015d8 0000000cH .pdata$_ZNKSt3__110unique_ptrINS_11__hash_nodeINS_17__hash_value_typeIPN6System7Typinfo9TTypeInfoEPSt9type_infoEEPvEENS_22__hash_node_destructorINS_9allocatorISB_EEEEE3getB8ne200100Ev DATA
 0005:000015e4 0000000cH .pdata$_ZNSt3__110unique_ptrINS_11__hash_nodeINS_17__hash_value_typeIPN6System7Typinfo9TTypeInfoEPSt9type_infoEEPvEENS_22__hash_node_destructorINS_9allocatorISB_EEEEE7releaseB8ne200100Ev DATA
 0005:000015f0 0000000cH .pdata$_ZNSt3__110unique_ptrINS_11__hash_nodeINS_17__hash_value_typeIPN6System7Typinfo9TTypeInfoEPSt9type_infoEEPvEENS_22__hash_node_destructorINS_9allocatorISB_EEEEED2B8ne200100Ev DATA
 0005:000015fc 0000000cH .pdata$_ZNSt3__115__hash_iteratorIPNS_11__hash_nodeINS_17__hash_value_typeIPN6System7Typinfo9TTypeInfoEPSt9type_infoEEPvEEEC2B8ne200100EPNS_16__hash_node_baseISC_EE DATA
 0005:00001608 0000000cH .pdata$_ZNSt3__14pairINS_15__hash_iteratorIPNS_11__hash_nodeINS_17__hash_value_typeIPN6System7Typinfo9TTypeInfoEPSt9type_infoEEPvEEEEbEC2B8ne200100ISE_RbTnNS_9enable_ifIXclsr10_CheckArgsE23__is_pair_constructibleIT_T0_EEEiE4typeELi0EEEOSJ_OSK_ DATA
 0005:00001614 0000000cH .pdata$_ZNKSt3__14hashIPN6System7Typinfo9TTypeInfoEEclB8ne200100ES4_ DATA
 0005:00001620 0000000cH .pdata$_ZNKSt3__121__murmur2_or_cityhashIyLy64EEclB8ne200100EPKvy DATA
 0005:0000162c 0000000cH .pdata$_ZNSt3__121__murmur2_or_cityhashIyLy64EE18__hash_len_0_to_16B8ne200100EPKcy DATA
 0005:00001638 0000000cH .pdata$_ZNSt3__121__murmur2_or_cityhashIyLy64EE19__hash_len_17_to_32B8ne200100EPKcy DATA
 0005:00001644 0000000cH .pdata$_ZNSt3__121__murmur2_or_cityhashIyLy64EE19__hash_len_33_to_64B8ne200100EPKcy DATA
 0005:00001650 0000000cH .pdata$_ZNSt3__110__loadwordB8ne200100IyEET_PKv DATA
 0005:0000165c 0000000cH .pdata$_ZNSt3__121__murmur2_or_cityhashIyLy64EE13__hash_len_16B8ne200100Eyy DATA
 0005:00001668 0000000cH .pdata$_ZNSt3__121__murmur2_or_cityhashIyLy64EE29__weak_hash_len_32_with_seedsB8ne200100EPKcyy DATA
 0005:00001674 0000000cH .pdata$_ZNSt3__121__murmur2_or_cityhashIyLy64EE8__rotateB8ne200100Eyi DATA
 0005:00001680 0000000cH .pdata$_ZNSt3__14pairIyyEaSB8ne200100EOS1_ DATA
 0005:0000168c 0000000cH .pdata$_ZNSt3__14swapB8ne200100IyEENS_9enable_ifIXaasr21is_move_constructibleIT_EE5valuesr18is_move_assignableIS2_EE5valueEvE4typeERS2_S5_ DATA
 0005:00001698 0000000cH .pdata$_ZNSt3__121__murmur2_or_cityhashIyLy64EE11__shift_mixB8ne200100Ey DATA
 0005:000016a4 0000000cH .pdata$_ZNSt3__121__murmur2_or_cityhashIyLy64EE22__rotate_by_at_least_1B8ne200100Eyi DATA
 0005:000016b0 0000000cH .pdata$_ZNSt3__110__loadwordB8ne200100IjEET_PKv DATA
 0005:000016bc 0000000cH .pdata$_ZNSt3__121__murmur2_or_cityhashIyLy64EE29__weak_hash_len_32_with_seedsB8ne200100Eyyyyyy DATA
 0005:000016c8 0000000cH .pdata$_ZNSt3__14pairIyyEC2B8ne200100IyyTnNS_9enable_ifIXclsr10_CheckArgsE23__is_pair_constructibleIT_T0_EEEiE4typeELi0EEEOS4_OS5_ DATA
 0005:000016d4 0000000cH .pdata$_ZNKSt3__110unique_ptrIA_PNS_16__hash_node_baseIPNS_11__hash_nodeINS_17__hash_value_typeIPN6System7Typinfo9TTypeInfoEPSt9type_infoEEPvEEEENS_25__bucket_list_deallocatorINS_9allocatorISF_EEEEE11get_deleterB8ne200100Ev DATA
 0005:000016e0 0000000cH .pdata$_ZNKSt3__125__bucket_list_deallocatorINS_9allocatorIPNS_16__hash_node_baseIPNS_11__hash_nodeINS_17__hash_value_typeIPN6System7Typinfo9TTypeInfoEPSt9type_infoEEPvEEEEEEE4sizeB8ne200100Ev DATA
 0005:000016ec 0000000cH .pdata$_ZNKSt3__18equal_toIPN6System7Typinfo9TTypeInfoEEclB8ne200100ERKS4_S7_ DATA
 0005:000016f8 0000000cH .pdata$_ZNKSt3__117__hash_value_typeIPN6System7Typinfo9TTypeInfoEPSt9type_infoE11__get_valueB8ne200100Ev DATA
 0005:00001704 0000000cH .pdata$_ZNSt3__17launderB8ne200100IKNS_4pairIKPN6System7Typinfo9TTypeInfoEPSt9type_infoEEEEPT_SC_ DATA
 0005:00001710 0000000cH .pdata$_ZNSt3__19__launderB8ne200100IKNS_4pairIKPN6System7Typinfo9TTypeInfoEPSt9type_infoEEEEPT_SC_ DATA
 0005:0000171c 0000000cH .pdata$_ZNSt3__116allocator_traitsINS_9allocatorINS_11__hash_nodeINS_17__hash_value_typeIPN6System7Typinfo9TTypeInfoEPSt9type_infoEEPvEEEEE8allocateB8ne200100ERSD_y DATA
 0005:00001728 0000000cH .pdata$_ZNSt3__122__hash_node_destructorINS_9allocatorINS_11__hash_nodeINS_17__hash_value_typeIPN6System7Typinfo9TTypeInfoEPSt9type_infoEEPvEEEEEC2B8ne200100ERSD_b DATA
 0005:00001734 0000000cH .pdata$_ZNSt3__110unique_ptrINS_11__hash_nodeINS_17__hash_value_typeIPN6System7Typinfo9TTypeInfoEPSt9type_infoEEPvEENS_22__hash_node_destructorINS_9allocatorISB_EEEEEC2B8ne200100ILb1EvEEPSB_NS_16__dependent_typeINS_27__unique_ptr_deleter_sfinaeISF_EEXT_EE20__good_rval_ref_typeE DATA
 0005:00001740 0000000cH .pdata$_ZNSt3__114__construct_atB8ne200100INS_11__hash_nodeINS_17__hash_value_typeIPN6System7Typinfo9TTypeInfoEPSt9type_infoEEPvEEJDnRyEPSB_EEPT_SF_DpOT0_ DATA
 0005:0000174c 0000000cH .pdata$_ZNKSt3__110unique_ptrINS_11__hash_nodeINS_17__hash_value_typeIPN6System7Typinfo9TTypeInfoEPSt9type_infoEEPvEENS_22__hash_node_destructorINS_9allocatorISB_EEEEEdeB8ne200100Ev DATA
 0005:00001758 0000000cH .pdata$_ZNSt3__116allocator_traitsINS_9allocatorINS_11__hash_nodeINS_17__hash_value_typeIPN6System7Typinfo9TTypeInfoEPSt9type_infoEEPvEEEEE9constructB8ne200100INS_4pairIKS7_S9_EEJRKNS_21piecewise_construct_tENS_5tupleIJRSH_EEENSM_IJEEEEvTnNS_9enable_ifIXntsr15__has_constructISD_PT_DpT0_EE5valueEiE4typeELi0EEEvRSD_SS_DpOST_ DATA
 0005:00001764 0000000cH .pdata$_ZNSt3__110unique_ptrINS_11__hash_nodeINS_17__hash_value_typeIPN6System7Typinfo9TTypeInfoEPSt9type_infoEEPvEENS_22__hash_node_destructorINS_9allocatorISB_EEEEE11get_deleterB8ne200100Ev DATA
 0005:00001770 0000000cH .pdata$_ZNSt3__19allocatorINS_11__hash_nodeINS_17__hash_value_typeIPN6System7Typinfo9TTypeInfoEPSt9type_infoEEPvEEE8allocateB8ne200100Ey DATA
 0005:0000177c 0000000cH .pdata$_ZNSt3__116allocator_traitsINS_9allocatorINS_11__hash_nodeINS_17__hash_value_typeIPN6System7Typinfo9TTypeInfoEPSt9type_infoEEPvEEEEE8max_sizeB8ne200100ISD_vTnNS_9enable_ifIXntsr14__has_max_sizeIKT_EE5valueEiE4typeELi0EEEyRKSD_ DATA
 0005:00001788 0000000cH .pdata$_ZNSt3__117__libcpp_allocateB8ne200100INS_11__hash_nodeINS_17__hash_value_typeIPN6System7Typinfo9TTypeInfoEPSt9type_infoEEPvEEEEPT_NS_15__element_countEy DATA
 0005:00001794 0000000cH .pdata$_ZNSt3__125__compressed_pair_paddingINS_22__hash_node_destructorINS_9allocatorINS_11__hash_nodeINS_17__hash_value_typeIPN6System7Typinfo9TTypeInfoEPSt9type_infoEEPvEEEEEELb0EEC2Ev DATA
 0005:000017a0 0000000cH .pdata$_ZNSt3__112construct_atB8ne200100INS_11__hash_nodeINS_17__hash_value_typeIPN6System7Typinfo9TTypeInfoEPSt9type_infoEEPvEEJDnRyEPSB_EEPT_SF_DpOT0_ DATA
 0005:000017ac 0000000cH .pdata$_ZNSt3__111__hash_nodeINS_17__hash_value_typeIPN6System7Typinfo9TTypeInfoEPSt9type_infoEEPvEC2B8ne200100EPNS_16__hash_node_baseIPSA_EEy DATA
 0005:000017b8 0000000cH .pdata$_ZNSt3__116__hash_node_baseIPNS_11__hash_nodeINS_17__hash_value_typeIPN6System7Typinfo9TTypeInfoEPSt9type_infoEEPvEEEC2B8ne200100EPSD_ DATA
 0005:000017c4 0000000cH .pdata$_ZNSt3__114__construct_atB8ne200100INS_4pairIKPN6System7Typinfo9TTypeInfoEPSt9type_infoEEJRKNS_21piecewise_construct_tENS_5tupleIJRS6_EEENSD_IJEEEEPS9_EEPT_SJ_DpOT0_ DATA
 0005:000017d0 0000000cH .pdata$_ZNSt3__112construct_atB8ne200100INS_4pairIKPN6System7Typinfo9TTypeInfoEPSt9type_infoEEJRKNS_21piecewise_construct_tENS_5tupleIJRS6_EEENSD_IJEEEEPS9_EEPT_SJ_DpOT0_ DATA
 0005:000017dc 0000000cH .pdata$_ZNSt3__14pairIKPN6System7Typinfo9TTypeInfoEPSt9type_infoEC2B8ne200100IJRS5_EJEEENS_21piecewise_construct_tENS_5tupleIJDpT_EEENSC_IJDpT0_EEE DATA
 0005:000017e8 0000000cH .pdata$_ZNSt3__14pairIKPN6System7Typinfo9TTypeInfoEPSt9type_infoEC2B8ne200100IJRS5_EJEJLy0EETpTnyJEEENS_21piecewise_construct_tERNS_5tupleIJDpT_EEERNSC_IJDpT0_EEENS_15__tuple_indicesIJXspT1_EEEENSL_IJXspT2_EEEE DATA
 0005:000017f4 0000000cH .pdata$_ZNSt3__13getB8ne200100ILy0EJRKPN6System7Typinfo9TTypeInfoEEEERNS_13tuple_elementIXT_ENS_5tupleIJDpT0_EEEE4typeERSB_ DATA
 0005:00001800 0000000cH .pdata$_ZNSt3__112__tuple_leafILy0ERKPN6System7Typinfo9TTypeInfoELb0EE3getB8ne200100Ev DATA
 0005:0000180c 0000000cH .pdata$_ZNSt3__112__hash_tableINS_17__hash_value_typeIPN6System7Typinfo9TTypeInfoEPSt9type_infoEENS_22__unordered_map_hasherIS5_S8_NS_4hashIS5_EENS_8equal_toIS5_EELb1EEENS_21__unordered_map_equalIS5_S8_SD_SB_Lb1EEENS_9allocatorIS8_EEE8__rehashILb1EEEvy DATA
 0005:00001818 0000000cH .pdata$_ZNSt3__112__hash_tableINS_17__hash_value_typeIPN6System7Typinfo9TTypeInfoEPSt9type_infoEENS_22__unordered_map_hasherIS5_S8_NS_4hashIS5_EENS_8equal_toIS5_EELb1EEENS_21__unordered_map_equalIS5_S8_SD_SB_Lb1EEENS_9allocatorIS8_EEE11__do_rehashILb1EEEvy DATA
 0005:00001824 0000000cH .pdata$_ZNSt3__116__next_hash_pow2B8ne200100Ey DATA
 0005:00001830 0000000cH .pdata$_ZNSt3__110unique_ptrIA_PNS_16__hash_node_baseIPNS_11__hash_nodeINS_17__hash_value_typeIPN6System7Typinfo9TTypeInfoEPSt9type_infoEEPvEEEENS_25__bucket_list_deallocatorINS_9allocatorISF_EEEEE11get_deleterB8ne200100Ev DATA
 0005:0000183c 0000000cH .pdata$_ZNSt3__110unique_ptrIA_PNS_16__hash_node_baseIPNS_11__hash_nodeINS_17__hash_value_typeIPN6System7Typinfo9TTypeInfoEPSt9type_infoEEPvEEEENS_25__bucket_list_deallocatorINS_9allocatorISF_EEEEE5resetB8ne200100IPSF_TnNS_9enable_ifIXsr28_CheckArrayPointerConversionIT_EE5valueEiE4typeELi0EEEvSP_ DATA
 0005:00001848 0000000cH .pdata$_ZNSt3__116allocator_traitsINS_9allocatorIPNS_16__hash_node_baseIPNS_11__hash_nodeINS_17__hash_value_typeIPN6System7Typinfo9TTypeInfoEPSt9type_infoEEPvEEEEEEE8allocateB8ne200100ERSH_y DATA
 0005:00001854 0000000cH .pdata$_ZNSt3__19allocatorIPNS_16__hash_node_baseIPNS_11__hash_nodeINS_17__hash_value_typeIPN6System7Typinfo9TTypeInfoEPSt9type_infoEEPvEEEEE8allocateB8ne200100Ey DATA
 0005:00001860 0000000cH .pdata$_ZNSt3__116allocator_traitsINS_9allocatorIPNS_16__hash_node_baseIPNS_11__hash_nodeINS_17__hash_value_typeIPN6System7Typinfo9TTypeInfoEPSt9type_infoEEPvEEEEEEE8max_sizeB8ne200100ISH_vTnNS_9enable_ifIXntsr14__has_max_sizeIKT_EE5valueEiE4typeELi0EEEyRKSH_ DATA
 0005:0000186c 0000000cH .pdata$_ZNSt3__117__libcpp_allocateB8ne200100IPNS_16__hash_node_baseIPNS_11__hash_nodeINS_17__hash_value_typeIPN6System7Typinfo9TTypeInfoEPSt9type_infoEEPvEEEEEEPT_NS_15__element_countEy DATA
 0005:00001878 0000000cH .pdata$_ZNSt3__112__libcpp_clzB8ne200100Ey DATA
 0005:00001884 0000000cH .pdata$_ZNSt3__110unique_ptrINS_11__hash_nodeINS_17__hash_value_typeIPN6System7Typinfo9TTypeInfoEPSt9type_infoEEPvEENS_22__hash_node_destructorINS_9allocatorISB_EEEEE5resetB8ne200100EPSB_ DATA
 0005:00001890 0000000cH .pdata$_ZNSt3__122__hash_node_destructorINS_9allocatorINS_11__hash_nodeINS_17__hash_value_typeIPN6System7Typinfo9TTypeInfoEPSt9type_infoEEPvEEEEEclB8ne200100EPSC_ DATA
 0005:0000189c 0000000cH .pdata$_ZNSt3__15tupleIJRKPN6System7Typinfo9TTypeInfoEEEC2B8ne200100INS_4_AndETnNS_9enable_ifIXsrT_IJNS_17integral_constantIbLb1EEENS_21is_copy_constructibleIS6_EEEE5valueEiE4typeELi0EEES6_ DATA
 0005:000018a8 0000000cH .pdata$_ZNSt3__112__tuple_implINS_15__tuple_indicesIJLy0EEEEJRKPN6System7Typinfo9TTypeInfoEEEC2B8ne200100IJLy0EEJS8_ETpTnyJEJEJS8_EEENS1_IJXspT_EEEENS_13__tuple_typesIJDpT0_EEENS1_IJXspT1_EEEENSC_IJDpT2_EEEDpOT3_ DATA
 0005:000018b4 0000000cH .pdata$_ZNSt3__112__tuple_leafILy0ERKPN6System7Typinfo9TTypeInfoELb0EEC2B8ne200100IS6_TnNS_9enable_ifIXsr4_AndINS_17integral_constantIbXntu9__is_sameu14__remove_cvrefIT_ES7_EEEENS_16is_constructibleIS6_JSB_EEEEE5valueEiE4typeELi0EEEOSB_ DATA
 0005:000018c0 0000000cH .pdata$_ZNSt3__114pointer_traitsIPNS_17__hash_value_typeIPN6System7Typinfo9TTypeInfoEPSt9type_infoEEE10pointer_toB8ne200100ERS8_ DATA
 0005:000018cc 0000000cH .pdata$_ZN6System14AnsiStringBaseC2Ev DATA
 0005:000018d8 0000000cH .pdata$_ZN6System11AnsiStringTILt65001EE4swapERS1_ DATA
 0005:000018e4 000009e4H .pdata                  DATA
 0005:000022c8 0000000cH .pdata$_ZN6System8Sysutils11ERangeErrorC3ENS_13UnicodeStringE DATA
 0005:000022d4 0000000cH .pdata$_ZN6System8Sysutils11ERangeErrorD0Ev DATA
 0005:000022e0 0000000cH .pdata$_ZN6System11WideCharLenIwEEiPKT_ DATA
 0005:000022ec 0000000cH .pdata$_ZN6System11WideCharLenIDsEEiPKT_ DATA
 0005:000022f8 0000000cH .pdata$_ZN6System11AnsiStringTILt0EEC2EPKci DATA
 0005:00002304 0000000cH .pdata$_ZN6System11AnsiStringTILt0EED2Ev DATA
 0005:00002310 0000000cH .pdata$_ZN6System11AnsiStringTILt0EEC2Ev DATA
 0005:0000231c 0000000cH .pdata$_ZN6System13UnicodeStringC2ILt0EEERKNS_11AnsiStringTIXT_EEE DATA
 0005:00002328 0000000cH .pdata$_ZN6System15DelphiInterfaceINS_14IEnumerator__1INS_13UnicodeStringEEEEC2ERKS4_ DATA
 0005:00002334 0000000cH .pdata$_ZN6System15DelphiInterfaceINS_14IEnumerator__1INS_13UnicodeStringEEEED2Ev DATA
 0005:00002340 0000000cH .pdata$_ZN6System15DelphiInterfaceINS_14IEnumerable__1INS_13UnicodeStringEEEEC2ERKS4_ DATA
 0005:0000234c 0000000cH .pdata$_ZN6System15DelphiInterfaceINS_14IEnumerable__1INS_13UnicodeStringEEEED2Ev DATA
 0005:00002358 0000000cH .pdata$_ZN6System8Sysutils9EIntErrorC3ENS_13UnicodeStringE DATA
 0005:00002364 0000000cH .pdata$_ZN6System8Sysutils9EExternalC3ENS_13UnicodeStringE DATA
 0005:00002370 0000000cH .pdata$_ZN6System8Sysutils9EIntErrorD0Ev DATA
 0005:0000237c 0000000cH .pdata$_ZN6System8Sysutils9EExternalD0Ev DATA
 0005:00002388 0000000cH .pdata$_ZN6System11AnsiStringTILt0EEC2ERKS1_ DATA
 0005:00002394 0000000cH .pdata$_ZN6System15DelphiInterfaceINS_14IEnumerator__1INS_13UnicodeStringEEEEC2Ev DATA
 0005:000023a0 0000000cH .pdata$_ZN6System15DelphiInterfaceINS_14IEnumerable__1INS_13UnicodeStringEEEEC2Ev DATA
 0005:000023ac 0000048cH .pdata                  DATA
 0005:00002838 0000000cH .pdata$_ZN6System8_CharLenIwEEiPKT_ DATA
 0005:00002844 0000000cH .pdata$_ZN6System8_CharLenIDsEEiPKT_ DATA
 0005:00002850 0000000cH .pdata$_ZN6System14AnsiStringBaseC2ILt0EEEONS_11AnsiStringTIXT_EEE DATA
 0005:0000285c 0000000cH .pdata$_ZNK6System14AnsiStringBase8CodePageEv DATA
 0005:00002868 0000000cH .pdata$_ZNK6System14AnsiStringBaseixEi DATA
 0005:00002874 0000150cH .pdata                  DATA
 0006:00000000 0000003cH .embtexi                DATA
 0007:00000000 00000008H .embti$x                DATA
 0007:00000008 00000118H .embti$y                DATA
 0007:00000120 00000008H .embti$z                DATA
 0008:00000000 0000003cH .embtini                DATA
 0009:00000000 00000160H .embtinit               DATA
 000a:00000000 00000008H .tls                    DATA
 000a:00000010 00000210H .tls$                   DATA
 000a:00000220 00000008H .tls$ZZZ                DATA
 000a:00000228 00000001H .tls$zzz                DATA
 000b:00000000 00000368H .rsrc$01                DATA
 000b:00000370 002438b0H .rsrc$02                DATA

  Address         Publics by Value              Rva+Base               Lib:Object

 0000:00000000       .absolut                   0000000000000000     <absolute>
 0000:00000000       __guard_fids_table         0000000000000000     <absolute>
 0000:00000000       __guard_fids_count         0000000000000000     <absolute>
 0000:00000000       __guard_iat_table          0000000000000000     <absolute>
 0000:00000000       __guard_iat_count          0000000000000000     <absolute>
 0000:00000000       __guard_longjmp_table      0000000000000000     <absolute>
 0000:00000000       __guard_longjmp_count      0000000000000000     <absolute>
 0000:00000000       __guard_eh_cont_table      0000000000000000     <absolute>
 0000:00000000       __guard_eh_cont_count      0000000000000000     <absolute>
 0000:00000100       __guard_flags              0000000000000100     <absolute>
 0000:ffffffb0       vtAfterConstruction        00000000ffffffb0     <absolute>
 0000:ffffffb8       vtBeforeDestruction        00000000ffffffb8     <absolute>
 0000:ffffffd0       vtNewInstance              00000000ffffffd0     <absolute>
 0000:ffffffd8       vtFreeInstance             00000000ffffffd8     <absolute>
 0000:00000000       __ImageBase                0000000140000000     <linker-defined>
 0000:00000000       _ZN7Sysinit9ImageBaseE     0000000140000000     <linker-defined>
 0000:00000000       _ZN7Sysinit11__ImageBaseE  0000000140000000     <linker-defined>
 0001:00000110       WinMainCRTStartup          0000000140001110     crt2u.o
 0001:00000350       mainCRTStartup             0000000140001350     crt2u.o
 0001:00000380       atexit                     0000000140001380     crt2u.o
 0001:000005f0       __System__GetTls           00000001400015f0     crtbegin.o
 0001:000005f0       _ZN7Sysinit7_GetTlsEv      00000001400015f0     crtbegin.o
 0001:00000610       .weak._ZN7Sysinit7_GetTlsEv.default 0000000140001610     sysinit.o
 0001:00000670       _ZN7Sysinit17SetDliNotifyHook2EPFPv15dliNotificationP13DelayLoadInfoE 0000000140001670     sysinit.o
 0001:00000680       _ZN7Sysinit14DliNotifyHook2Ev 0000000140001680     sysinit.o
 0001:00000690       _ZN7Sysinit18SetDliFailureHook2EPFPv15dliNotificationP13DelayLoadInfoE 0000000140001690     sysinit.o
 0001:000006a0       _ZN7Sysinit15DliFailureHook2Ev 00000001400016a0     sysinit.o
 0001:000006b0       _ZN7Sysinit17_DelayLoadHelper2ERPvS0_ 00000001400016b0     sysinit.o
 0001:000006c0       _ZN7Sysinit21UnloadDelayLoadedDLL2EPc 00000001400016c0     sysinit.o
 0001:000006d0       _ZN7Sysinit20LoadAllImportsForDllEPc 00000001400016d0     sysinit.o
 0001:000006e0       _ZN7Sysinit7VclInitEbbyb   00000001400016e0     sysinit.o
 0001:000007c0       _ZN7Sysinit7VclExitEv      00000001400017c0     sysinit.o
 0001:00000820       _ZN7Sysinit8_InitPkgEyiPv  0000000140001820     sysinit.o
 0001:000008a0       _ZN7Sysinit12_PackageLoadEPN6System16PackageInfoTableE 00000001400018a0     sysinit.o
 0001:000008c0       _ZN7Sysinit14_PackageUnloadEPN6System16PackageInfoTableE 00000001400018c0     sysinit.o
 0001:000008e0       _ZN7Sysinit8_InitLibEPN6System12TInitContextEPNS0_16PackageInfoTableEyjPv 00000001400018e0     sysinit.o
 0001:00000990       _ZN7Sysinit8_InitExeEPv    0000000140001990     sysinit.o
 0001:00000a20       _ZN7Sysinit18__delayLoadHelper2Ev 0000000140001a20     sysinit.o
 0001:00000d00       _ZN7Sysinit24__FUnloadDelayLoadedDLL2Ev 0000000140001d00     sysinit.o
 0001:000013b0       _ZN7Sysinit24__HrLoadAllImportsForDllEv 00000001400023b0     sysinit.o
 0001:00001840       _ZN7Sysinit12FinalizationEv 0000000140002840     sysinit.o
 0001:00001860       _ZN7Sysinit14initializationEv 0000000140002860     sysinit.o
 0001:000021f0       FMXmain                    00000001400031f0     Project1.o
 0001:000023e0       _ZN6System7Classes15TComponentClassC1EPNS_10TMetaClassE 00000001400033e0     Project1.o
 0001:00002410       __clang_call_terminate     0000000140003410     Project1.o
 0001:00002420       _ZN6System7Classes15TComponentClassC2EPNS_10TMetaClassE 0000000140003420     Project1.o
 0001:00002450       _ZN6System15DelphiMetaClassINS_7Classes15TComponentClassEEC2EPNS_10TMetaClassE 0000000140003450     Project1.o
 0001:00002470       _ZN6TForm1C3EPN6System7Classes10TComponentE 0000000140003470     Unit1.o
 0001:00002540       _ZN6TForm110FormCreateEPN6System7TObjectE 0000000140003540     Unit1.o
 0001:00003210       _ZN6TForm117ResetarTelemetriaEPN6System7TObjectE 0000000140004210     Unit1.o
 0001:00003460       _ZN6TForm113Switch1SwitchEPN6System7TObjectE 0000000140004460     Unit1.o
 0001:00003560       _ZN6TForm118ApplyEarthRotationEv 0000000140004560     Unit1.o
 0001:00003900       _ZN6TForm119timerAnimationTimerEPN6System7TObjectE 0000000140004900     Unit1.o
 0001:000039d0       _ZN6TForm115UpdateTelemetryEf 00000001400049d0     Unit1.o
 0001:00003c20       _ZN6TForm123UpdateSatellitePositionEff 0000000140004c20     Unit1.o
 0001:00004180       _ZN6TForm19tbXChangeEPN6System7TObjectE 0000000140005180     Unit1.o
 0001:00004230       _ZN6TForm19tbYChangeEPN6System7TObjectE 0000000140005230     Unit1.o
 0001:00004260       _ZN6TForm19tbZChangeEPN6System7TObjectE 0000000140005260     Unit1.o
 0001:00004290       _ZN6TForm110IsAutoModeEv   0000000140005290     Unit1.o
 0001:000042c0       _ZN6TForm114tbTerraXChangeEPN6System7TObjectE 00000001400052c0     Unit1.o
 0001:000042e0       _ZN6TForm114tbTerraYChangeEPN6System7TObjectE 00000001400052e0     Unit1.o
 0001:00004300       _ZN6TForm114tbTerraZChangeEPN6System7TObjectE 0000000140005300     Unit1.o
 0001:00004320       _ZN6TForm115edtTerraXChangeEPN6System7TObjectE 0000000140005320     Unit1.o
 0001:000043d0       _ZN6TForm115edtTerraYChangeEPN6System7TObjectE 00000001400053d0     Unit1.o
 0001:00004480       _ZN6TForm115edtTerraZChangeEPN6System7TObjectE 0000000140005480     Unit1.o
 0001:00004530       _ZN6TForm123tbTerraVelocidadeChangeEPN6System7TObjectE 0000000140005530     Unit1.o
 0001:00004550       _ZN6TForm18FormShowEPN6System7TObjectE 0000000140005550     Unit1.o
 0001:000047f0       _ZN6TForm119UpdateSatelliteDataEv 00000001400057f0     Unit1.o
 0001:00004ae0       _ZN6TForm121GetDemoSimulationDataERfS0_ 0000000140005ae0     Unit1.o
 0001:00004b90       _ZN6TForm116BuscarTelemetriaEv 0000000140005b90     Unit1.o
 0001:00005190       _ZN6TForm124AtualizarTelemetriaAsyncEv 0000000140006190     Unit1.o
 0001:000052c0       _ZN6TForm119timerTelemetryTimerEPN6System7TObjectE 00000001400062c0     Unit1.o
 0001:00005300       _ZN6TForm119ProcessarTelemetriaEN6System13UnicodeStringERdS2_ 0000000140006300     Unit1.o
 0001:000073f0       _ZN3Fmx5Forms5TFormC3EPN6System7Classes10TComponentE 00000001400083f0     Unit1.o
 0001:00007460       _ZNSt3__16atomicIbEC1B8ne200100Eb 0000000140008460     Unit1.o
 0001:00007490       _ZNSt3__16vectorIPN3Fmx9Objects3d7TSphereENS_9allocatorIS4_EEEC1B8ne200100Ev 0000000140008490     Unit1.o
 0001:000074b0       _ZNSt3__16atomicIbEaSB8ne200100Eb 00000001400084b0     Unit1.o
 0001:000074f0       _ZNSt3__16__math3sinB8ne200100Ef 00000001400084f0     Unit1.o
 0001:00007510       _ZNSt3__16__math3cosB8ne200100Ef 0000000140008510     Unit1.o
 0001:00007530       _ZN6System13UnicodeStringC1Ei 0000000140008530     Unit1.o
 0001:00007570       _ZNSt3__16vectorIPN3Fmx9Objects3d7TSphereENS_9allocatorIS4_EEE9push_backB8ne200100ERKS4_ 0000000140008570     Unit1.o
 0001:000075a0       _ZNKSt3__16vectorIPN3Fmx9Objects3d7TSphereENS_9allocatorIS4_EEE4sizeB8ne200100Ev 00000001400085a0     Unit1.o
 0001:000075c0       _ZNSt3__16vectorIPN3Fmx9Objects3d7TSphereENS_9allocatorIS4_EEEixB8ne200100Ey 00000001400085c0     Unit1.o
 0001:000075f0       _ZNSt3__16vectorIPN3Fmx9Objects3d7TSphereENS_9allocatorIS4_EEE5eraseB8ne200100ENS_11__wrap_iterIPKS4_EE 00000001400085f0     Unit1.o
 0001:00007690       _ZNSt3__16vectorIPN3Fmx9Objects3d7TSphereENS_9allocatorIS4_EEE5beginB8ne200100Ev 0000000140008690     Unit1.o
 0001:000076d0       _ZNSt3__111__wrap_iterIPKPN3Fmx9Objects3d7TSphereEEC1B8ne200100IPS4_TnNS_9enable_ifIXsr4_AndINS_14is_convertibleIRKT_S6_EENS_7_OrImplIXaantcvbsr7is_sameIRS5_NS_15iterator_traitsISC_E9referenceEEE5valuenesZT1_Li0EEE7_ResultINS_7is_sameISH_SK_EENSN_ISH_RKu20__remove_reference_tISK_EEEEEEE5valueEiE4typeELi0EEERKNS0_ISC_EE 00000001400086d0     Unit1.o
 0001:00007700       _ZN6System12DynamicArrayINS_3Net9Urlclient14TNameValuePairEEC1Ev 0000000140008700     Unit1.o
 0001:00007730       _ZN6System15DelphiInterfaceINS_3Net10Httpclient13IHTTPResponseEEC1Ev 0000000140008730     Unit1.o
 0001:00007760       _ZN6System15DelphiInterfaceINS_3Net10Httpclient13IHTTPResponseEED1Ev 0000000140008760     Unit1.o
 0001:00007780       _ZN6System12DynamicArrayINS_3Net9Urlclient14TNameValuePairEED1Ev 0000000140008780     Unit1.o
 0001:000077a0       _ZN6System13UnicodeStringaSEOS0_ 00000001400087a0     Unit1.o
 0001:000077f0       _ZNSt3__113__atomic_baseIbLb0EE8exchangeB8ne200100EbNS_12memory_orderE 00000001400087f0     Unit1.o
 0001:00007830       _ZN6System15DelphiInterfaceINS_9Threading5ITaskEEC1Ev 0000000140008830     Unit1.o
 0001:00007860       _ZN6System15DelphiInterfaceINS_9Threading5ITaskEED1Ev 0000000140008860     Unit1.o
 0001:00007880       _ZN6System15DelphiInterfaceINS_8Sysutils5TProcEED1Ev 0000000140008880     Unit1.o
 0001:000078a0       _ZN6TForm1D0Ev             00000001400088a0     Unit1.o
 0001:00007900       _ZN3Fmx5Forms5TFormC3EPN6System7Classes10TComponentEx 0000000140008900     Unit1.o
 0001:00007980       _ZNSt3__16atomicIbEC2B8ne200100Eb 0000000140008980     Unit1.o
 0001:000079b0       _ZNSt3__113__atomic_baseIbLb0EEC2B8ne200100Eb 00000001400089b0     Unit1.o
 0001:000079e0       _ZNSt3__117__cxx_atomic_implIbNS_22__cxx_atomic_base_implIbEEEC1B8ne200100Eb 00000001400089e0     Unit1.o
 0001:00007a10       _ZNSt3__117__cxx_atomic_implIbNS_22__cxx_atomic_base_implIbEEEC2B8ne200100Eb 0000000140008a10     Unit1.o
 0001:00007a40       _ZNSt3__122__cxx_atomic_base_implIbEC2Eb 0000000140008a40     Unit1.o
 0001:00007a70       _ZNSt3__16vectorIPN3Fmx9Objects3d7TSphereENS_9allocatorIS4_EEEC2B8ne200100Ev 0000000140008a70     Unit1.o
 0001:00007aa0       _ZNSt3__19allocatorIPN3Fmx9Objects3d7TSphereEEC1B8ne200100Ev 0000000140008aa0     Unit1.o
 0001:00007ac0       _ZNSt3__19allocatorIPN3Fmx9Objects3d7TSphereEEC2B8ne200100Ev 0000000140008ac0     Unit1.o
 0001:00007ae0       _ZNSt3__116__non_trivial_ifILb1ENS_9allocatorIPN3Fmx9Objects3d7TSphereEEEEC2B8ne200100Ev 0000000140008ae0     Unit1.o
 0001:00007af0       _ZN6System13UnicodeStringC2Ei 0000000140008af0     Unit1.o
 0001:00007b20       _ZNSt3__16vectorIPN3Fmx9Objects3d7TSphereENS_9allocatorIS4_EEE12emplace_backIJRKS4_EEERS4_DpOT_ 0000000140008b20     Unit1.o
 0001:00007ba0       _ZNSt3__16vectorIPN3Fmx9Objects3d7TSphereENS_9allocatorIS4_EEE22__construct_one_at_endB8ne200100IJRKS4_EEEvDpOT_ 0000000140008ba0     Unit1.o
 0001:00007c30       _ZNSt3__16vectorIPN3Fmx9Objects3d7TSphereENS_9allocatorIS4_EEE24__emplace_back_slow_pathIJRKS4_EEEPS4_DpOT_ 0000000140008c30     Unit1.o
 0001:00007d20       _ZNSt3__16vectorIPN3Fmx9Objects3d7TSphereENS_9allocatorIS4_EEE21_ConstructTransactionC1B8ne200100ERS7_y 0000000140008d20     Unit1.o
 0001:00007d50       _ZNSt3__116allocator_traitsINS_9allocatorIPN3Fmx9Objects3d7TSphereEEEE9constructB8ne200100IS5_JRKS5_EvTnNS_9enable_ifIXntsr15__has_constructIS6_PT_DpT0_EE5valueEiE4typeELi0EEEvRS6_SD_DpOSE_ 0000000140008d50     Unit1.o
 0001:00007d80       _ZNSt3__112__to_addressB8ne200100IPN3Fmx9Objects3d7TSphereEEEPT_S6_ 0000000140008d80     Unit1.o
 0001:00007d90       _ZNSt3__16vectorIPN3Fmx9Objects3d7TSphereENS_9allocatorIS4_EEE21_ConstructTransactionD1B8ne200100Ev 0000000140008d90     Unit1.o
 0001:00007db0       _ZNSt3__16vectorIPN3Fmx9Objects3d7TSphereENS_9allocatorIS4_EEE21_ConstructTransactionC2B8ne200100ERS7_y 0000000140008db0     Unit1.o
 0001:00007e00       _ZNSt3__114__construct_atB8ne200100IPN3Fmx9Objects3d7TSphereEJRKS4_EPS4_EEPT_S9_DpOT0_ 0000000140008e00     Unit1.o
 0001:00007e30       _ZNSt3__112construct_atB8ne200100IPN3Fmx9Objects3d7TSphereEJRKS4_EPS4_EEPT_S9_DpOT0_ 0000000140008e30     Unit1.o
 0001:00007e60       _ZNSt3__16vectorIPN3Fmx9Objects3d7TSphereENS_9allocatorIS4_EEE21_ConstructTransactionD2B8ne200100Ev 0000000140008e60     Unit1.o
 0001:00007e80       _ZNKSt3__16vectorIPN3Fmx9Objects3d7TSphereENS_9allocatorIS4_EEE11__recommendB8ne200100Ey 0000000140008e80     Unit1.o
 0001:00007f10       _ZNSt3__114__split_bufferIPN3Fmx9Objects3d7TSphereERNS_9allocatorIS4_EEEC1EyyS7_ 0000000140008f10     Unit1.o
 0001:00007f50       _ZNSt3__16vectorIPN3Fmx9Objects3d7TSphereENS_9allocatorIS4_EEE26__swap_out_circular_bufferERNS_14__split_bufferIS4_RS6_EE 0000000140008f50     Unit1.o
 0001:00008070       _ZNSt3__114__split_bufferIPN3Fmx9Objects3d7TSphereERNS_9allocatorIS4_EEED1Ev 0000000140009070     Unit1.o
 0001:00008090       _ZNKSt3__16vectorIPN3Fmx9Objects3d7TSphereENS_9allocatorIS4_EEE8max_sizeB8ne200100Ev 0000000140009090     Unit1.o
 0001:000080e0       _ZNSt3__16vectorIPN3Fmx9Objects3d7TSphereENS_9allocatorIS4_EEE20__throw_length_errorB8ne200100Ev 00000001400090e0     Unit1.o
 0001:00008100       _ZNKSt3__16vectorIPN3Fmx9Objects3d7TSphereENS_9allocatorIS4_EEE8capacityB8ne200100Ev 0000000140009100     Unit1.o
 0001:00008120       _ZNSt3__13maxB8ne200100IyEERKT_S3_S3_ 0000000140009120     Unit1.o
 0001:00008150       _ZNSt3__13minB8ne200100IyEERKT_S3_S3_ 0000000140009150     Unit1.o
 0001:00008180       _ZNSt3__116allocator_traitsINS_9allocatorIPN3Fmx9Objects3d7TSphereEEEE8max_sizeB8ne200100IS6_vTnNS_9enable_ifIXntsr14__has_max_sizeIKT_EE5valueEiE4typeELi0EEEyRKS6_ 0000000140009180     Unit1.o
 0001:000081a0       _ZNSt3__114numeric_limitsIxE3maxB8ne200100Ev 00000001400091a0     Unit1.o
 0001:000081b0       _ZNSt3__13minB8ne200100IyNS_6__lessIvvEEEERKT_S5_S5_T0_ 00000001400091b0     Unit1.o
 0001:00008200       _ZNKSt3__16__lessIvvEclB8ne200100IyyEEbRKT_RKT0_ 0000000140009200     Unit1.o
 0001:00008230       _ZNSt3__114numeric_limitsIyE3maxB8ne200100Ev 0000000140009230     Unit1.o
 0001:00008240       _ZNSt3__123__libcpp_numeric_limitsIyLb1EE3maxB8ne200100Ev 0000000140009240     Unit1.o
 0001:00008250       _ZNSt3__123__libcpp_numeric_limitsIxLb1EE3maxB8ne200100Ev 0000000140009250     Unit1.o
 0001:00008260       _ZNSt3__120__throw_length_errorB8ne200100EPKc 0000000140009260     Unit1.o
 0001:000082d0       _ZNSt12length_errorC1B8ne200100EPKc 00000001400092d0     Unit1.o
 0001:00008300       _ZNSt12length_errorC2B8ne200100EPKc 0000000140009300     Unit1.o
 0001:00008340       _ZNSt3__13maxB8ne200100IyNS_6__lessIvvEEEERKT_S5_S5_T0_ 0000000140009340     Unit1.o
 0001:00008390       _ZNSt3__114__split_bufferIPN3Fmx9Objects3d7TSphereERNS_9allocatorIS4_EEEC2EyyS7_ 0000000140009390     Unit1.o
 0001:00008440       _ZNSt3__119__allocate_at_leastB8ne200100INS_9allocatorIPN3Fmx9Objects3d7TSphereEEEEEDaRT_y 0000000140009440     Unit1.o
 0001:00008480       _ZNSt3__116allocator_traitsINS_9allocatorIPN3Fmx9Objects3d7TSphereEEEE17allocate_at_leastB8ne200100IS6_EENS_17allocation_resultIPS5_yEERT_y 0000000140009480     Unit1.o
 0001:000084c0       _ZNSt3__19allocatorIPN3Fmx9Objects3d7TSphereEE17allocate_at_leastB8ne200100Ey 00000001400094c0     Unit1.o
 0001:00008510       _ZNSt3__19allocatorIPN3Fmx9Objects3d7TSphereEE8allocateB8ne200100Ey 0000000140009510     Unit1.o
 0001:00008560       _ZSt28__throw_bad_array_new_lengthB8ne200100v 0000000140009560     Unit1.o
 0001:000085a0       _ZNSt3__117__libcpp_allocateB8ne200100IPN3Fmx9Objects3d7TSphereEEEPT_NS_15__element_countEy 00000001400095a0     Unit1.o
 0001:00008610       _ZNSt3__124__is_overaligned_for_newB8ne200100Ey 0000000140009610     Unit1.o
 0001:00008630       _ZNSt3__121__libcpp_operator_newB8ne200100IJySt11align_val_tEEEPvDpT_ 0000000140009630     Unit1.o
 0001:00008660       _ZNSt3__121__libcpp_operator_newB8ne200100IJyEEEPvDpT_ 0000000140009660     Unit1.o
 0001:00008680       _ZNKSt3__16vectorIPN3Fmx9Objects3d7TSphereENS_9allocatorIS4_EEE17__annotate_deleteB8ne200100Ev 0000000140009680     Unit1.o
 0001:00008690       _ZNSt3__134__uninitialized_allocator_relocateB8ne200100INS_9allocatorIPN3Fmx9Objects3d7TSphereEEEPS5_EEvRT_T0_SA_SA_ 0000000140009690     Unit1.o
 0001:000086f0       _ZNSt3__14swapB8ne200100IPPN3Fmx9Objects3d7TSphereEEENS_9enable_ifIXaasr21is_move_constructibleIT_EE5valuesr18is_move_assignableIS7_EE5valueEvE4typeERS7_SA_ 00000001400096f0     Unit1.o
 0001:00008730       _ZNKSt3__16vectorIPN3Fmx9Objects3d7TSphereENS_9allocatorIS4_EEE14__annotate_newB8ne200100Ey 0000000140009730     Unit1.o
 0001:00008750       _ZNSt3__114__split_bufferIPN3Fmx9Objects3d7TSphereERNS_9allocatorIS4_EEED2Ev 0000000140009750     Unit1.o
 0001:000087c0       _ZNSt3__114__split_bufferIPN3Fmx9Objects3d7TSphereERNS_9allocatorIS4_EEE5clearB8ne200100Ev 00000001400097c0     Unit1.o
 0001:000087e0       _ZNSt3__116allocator_traitsINS_9allocatorIPN3Fmx9Objects3d7TSphereEEEE10deallocateB8ne200100ERS6_PS5_y 00000001400097e0     Unit1.o
 0001:00008810       _ZNKSt3__114__split_bufferIPN3Fmx9Objects3d7TSphereERNS_9allocatorIS4_EEE8capacityB8ne200100Ev 0000000140009810     Unit1.o
 0001:00008830       _ZNSt3__114__split_bufferIPN3Fmx9Objects3d7TSphereERNS_9allocatorIS4_EEE17__destruct_at_endB8ne200100EPS4_ 0000000140009830     Unit1.o
 0001:00008860       _ZNSt3__114__split_bufferIPN3Fmx9Objects3d7TSphereERNS_9allocatorIS4_EEE17__destruct_at_endB8ne200100EPS4_NS_17integral_constantIbLb0EEE 0000000140009860     Unit1.o
 0001:000088d0       _ZNSt3__116allocator_traitsINS_9allocatorIPN3Fmx9Objects3d7TSphereEEEE7destroyB8ne200100IS5_vTnNS_9enable_ifIXntsr13__has_destroyIS6_PT_EE5valueEiE4typeELi0EEEvRS6_SB_ 00000001400098d0     Unit1.o
 0001:000088f0       _ZNSt3__112__destroy_atB8ne200100IPN3Fmx9Objects3d7TSphereETnNS_9enable_ifIXntsr8is_arrayIT_EE5valueEiE4typeELi0EEEvPS6_ 00000001400098f0     Unit1.o
 0001:00008900       _ZNSt3__19allocatorIPN3Fmx9Objects3d7TSphereEE10deallocateB8ne200100EPS4_y 0000000140009900     Unit1.o
 0001:00008930       _ZNSt3__119__libcpp_deallocateB8ne200100IPN3Fmx9Objects3d7TSphereEEEvPNS_15__type_identityIT_E4typeENS_15__element_countEy 0000000140009930     Unit1.o
 0001:00008990       _ZNSt3__124__libcpp_operator_deleteB8ne200100IJPPN3Fmx9Objects3d7TSphereESt11align_val_tEEEvDpT_ 0000000140009990     Unit1.o
 0001:000089c0       _ZNSt3__124__libcpp_operator_deleteB8ne200100IJPPN3Fmx9Objects3d7TSphereEEEEvDpT_ 00000001400099c0     Unit1.o
 0001:000089e0       _ZNSt3__1miB8ne200100IPKPN3Fmx9Objects3d7TSphereES6_EEDTmicldtfp_4baseEcldtfp0_4baseEERKNS_11__wrap_iterIT_EERKNS8_IT0_EE 00000001400099e0     Unit1.o
 0001:00008a20       _ZNKSt3__16vectorIPN3Fmx9Objects3d7TSphereENS_9allocatorIS4_EEE6cbeginB8ne200100Ev 0000000140009a20     Unit1.o
 0001:00008a50       _ZNSt3__16vectorIPN3Fmx9Objects3d7TSphereENS_9allocatorIS4_EEE17__destruct_at_endB8ne200100EPS4_ 0000000140009a50     Unit1.o
 0001:00008aa0       _ZNSt3__14moveB8ne200100IPPN3Fmx9Objects3d7TSphereES5_EET0_T_S7_S6_ 0000000140009aa0     Unit1.o
 0001:00008ae0       _ZNSt3__16vectorIPN3Fmx9Objects3d7TSphereENS_9allocatorIS4_EEE11__make_iterB8ne200100EPS4_ 0000000140009ae0     Unit1.o
 0001:00008b10       _ZNKSt3__111__wrap_iterIPKPN3Fmx9Objects3d7TSphereEE4baseB8ne200100Ev 0000000140009b10     Unit1.o
 0001:00008b20       _ZNKSt3__16vectorIPN3Fmx9Objects3d7TSphereENS_9allocatorIS4_EEE5beginB8ne200100Ev 0000000140009b20     Unit1.o
 0001:00008b60       _ZNKSt3__16vectorIPN3Fmx9Objects3d7TSphereENS_9allocatorIS4_EEE11__make_iterB8ne200100EPKS4_ 0000000140009b60     Unit1.o
 0001:00008b90       _ZNSt3__16vectorIPN3Fmx9Objects3d7TSphereENS_9allocatorIS4_EEE26__add_alignment_assumptionB8ne200100IPS4_TnNS_9enable_ifIXsr10is_pointerIT_EE5valueEiE4typeELi0EEES9_SB_ 0000000140009b90     Unit1.o
 0001:00008ba0       _ZNSt3__111__wrap_iterIPKPN3Fmx9Objects3d7TSphereEEC1B8ne200100ES6_ 0000000140009ba0     Unit1.o
 0001:00008bd0       _ZNSt3__111__wrap_iterIPKPN3Fmx9Objects3d7TSphereEEC2B8ne200100ES6_ 0000000140009bd0     Unit1.o
 0001:00008bf0       _ZNSt3__16vectorIPN3Fmx9Objects3d7TSphereENS_9allocatorIS4_EEE22__base_destruct_at_endB8ne200100EPS4_ 0000000140009bf0     Unit1.o
 0001:00008c60       _ZNKSt3__16vectorIPN3Fmx9Objects3d7TSphereENS_9allocatorIS4_EEE17__annotate_shrinkB8ne200100Ey 0000000140009c60     Unit1.o
 0001:00008c80       _ZNSt3__16__moveB8ne200100INS_17_ClassicAlgPolicyEPPN3Fmx9Objects3d7TSphereES6_S6_EENS_4pairIT0_T2_EES8_T1_S9_ 0000000140009c80     Unit1.o
 0001:00008cc0       _ZNSt3__124__copy_move_unwrap_itersB8ne200100INS_11__move_implINS_17_ClassicAlgPolicyEEEPPN3Fmx9Objects3d7TSphereES8_S8_TnNS_9enable_ifIXsr12__can_rewrapIT0_T2_EE5valueEiE4typeELi0EEENS_4pairISA_SB_EESA_T1_SB_ 0000000140009cc0     Unit1.o
 0001:00008da0       _ZNSt3__114__unwrap_rangeB8ne200100IPPN3Fmx9Objects3d7TSphereES5_EEDaT_T0_ 0000000140009da0     Unit1.o
 0001:00008de0       _ZNKSt3__111__move_implINS_17_ClassicAlgPolicyEEclB8ne200100IPN3Fmx9Objects3d7TSphereES7_TnNS_9enable_ifIXsr38__can_lower_move_assignment_to_memmoveIT_T0_EE5valueEiE4typeELi0EEENS_4pairIPS9_PSA_EESE_SE_SF_ 0000000140009de0     Unit1.o
 0001:00008e30       _ZNSt3__113__unwrap_iterB8ne200100IPPN3Fmx9Objects3d7TSphereENS_18__unwrap_iter_implIS5_Lb1EEETnNS_9enable_ifIXsr21is_copy_constructibleIT_EE5valueEiE4typeELi0EEEDTclsrT0_8__unwrapclsr3stdE7declvalIS9_EEEES9_ 0000000140009e30     Unit1.o
 0001:00008e50       _ZNSt3__19make_pairB8ne200100IPPN3Fmx9Objects3d7TSphereES5_EENS_4pairINS_18__unwrap_referenceIu7__decayIT_EE4typeENS7_Iu7__decayIT0_EE4typeEEEOS8_OSC_ 0000000140009e50     Unit1.o
 0001:00008e90       _ZNSt3__114__rewrap_rangeB8ne200100IPPN3Fmx9Objects3d7TSphereES5_S5_EET0_S6_T1_ 0000000140009e90     Unit1.o
 0001:00008ec0       _ZNSt3__113__rewrap_iterB8ne200100IPPN3Fmx9Objects3d7TSphereES5_NS_18__unwrap_iter_implIS5_Lb1EEEEET_S8_T0_ 0000000140009ec0     Unit1.o
 0001:00008f00       _ZNSt3__119__unwrap_range_implIPPN3Fmx9Objects3d7TSphereES5_E8__unwrapB8ne200100ES5_S5_ 0000000140009f00     Unit1.o
 0001:00008f60       _ZNSt3__14pairIPPN3Fmx9Objects3d7TSphereES5_EC1B8ne200100IS5_S5_TnNS_9enable_ifIXclsr10_CheckArgsE23__is_pair_constructibleIT_T0_EEEiE4typeELi0EEEOS9_OSA_ 0000000140009f60     Unit1.o
 0001:00008f90       _ZNSt3__14pairIPPN3Fmx9Objects3d7TSphereES5_EC2B8ne200100IS5_S5_TnNS_9enable_ifIXclsr10_CheckArgsE23__is_pair_constructibleIT_T0_EEEiE4typeELi0EEEOS9_OSA_ 0000000140009f90     Unit1.o
 0001:00008fd0       _ZNSt3__119__copy_trivial_implB8ne200100IPN3Fmx9Objects3d7TSphereES4_EENS_4pairIPT_PT0_EES7_S7_S9_ 0000000140009fd0     Unit1.o
 0001:00009060       _ZNSt3__119__constexpr_memmoveB8ne200100IPN3Fmx9Objects3d7TSphereES4_TnNS_9enable_ifIXsr23__is_always_bitcastableIT0_T_EE5valueEiE4typeELi0EEEPS7_SA_PS6_NS_15__element_countE 000000014000a060     Unit1.o
 0001:000090b0       _ZNSt3__19make_pairB8ne200100IRPPN3Fmx9Objects3d7TSphereES5_EENS_4pairINS_18__unwrap_referenceIu7__decayIT_EE4typeENS8_Iu7__decayIT0_EE4typeEEEOS9_OSD_ 000000014000a0b0     Unit1.o
 0001:000090f0       _ZNSt3__14pairIPPN3Fmx9Objects3d7TSphereES5_EC1B8ne200100IRS5_S5_TnNS_9enable_ifIXclsr10_CheckArgsE23__is_pair_constructibleIT_T0_EEEiE4typeELi0EEEOSA_OSB_ 000000014000a0f0     Unit1.o
 0001:00009120       _ZNSt3__14pairIPPN3Fmx9Objects3d7TSphereES5_EC2B8ne200100IRS5_S5_TnNS_9enable_ifIXclsr10_CheckArgsE23__is_pair_constructibleIT_T0_EEEiE4typeELi0EEEOSA_OSB_ 000000014000a120     Unit1.o
 0001:00009160       _ZNSt3__118__unwrap_iter_implIPPN3Fmx9Objects3d7TSphereELb1EE8__unwrapB8ne200100ES5_ 000000014000a160     Unit1.o
 0001:00009180       _ZNSt3__119__unwrap_range_implIPPN3Fmx9Objects3d7TSphereES5_E8__rewrapB8ne200100ES5_S5_ 000000014000a180     Unit1.o
 0001:000091b0       _ZNSt3__118__unwrap_iter_implIPPN3Fmx9Objects3d7TSphereELb1EE8__rewrapB8ne200100ES5_S5_ 000000014000a1b0     Unit1.o
 0001:00009200       _ZNSt3__111__wrap_iterIPPN3Fmx9Objects3d7TSphereEEC1B8ne200100ES5_ 000000014000a200     Unit1.o
 0001:00009230       _ZNSt3__111__wrap_iterIPPN3Fmx9Objects3d7TSphereEEC2B8ne200100ES5_ 000000014000a230     Unit1.o
 0001:00009250       _ZNSt3__111__wrap_iterIPKPN3Fmx9Objects3d7TSphereEEC2B8ne200100IPS4_TnNS_9enable_ifIXsr4_AndINS_14is_convertibleIRKT_S6_EENS_7_OrImplIXaantcvbsr7is_sameIRS5_NS_15iterator_traitsISC_E9referenceEEE5valuenesZT1_Li0EEE7_ResultINS_7is_sameISH_SK_EENSN_ISH_RKu20__remove_reference_tISK_EEEEEEE5valueEiE4typeELi0EEERKNS0_ISC_EE 000000014000a250     Unit1.o
 0001:00009280       _ZNSt3__16vectorIPN3Fmx9Objects3d7TSphereENS_9allocatorIS4_EEED1B8ne200100Ev 000000014000a280     Unit1.o
 0001:000092a0       _ZN3Fmx5Forms5TFormD0Ev    000000014000a2a0     Unit1.o
 0001:000092f0       _ZNSt3__16vectorIPN3Fmx9Objects3d7TSphereENS_9allocatorIS4_EEED2B8ne200100Ev 000000014000a2f0     Unit1.o
 0001:00009330       _ZNSt3__16vectorIPN3Fmx9Objects3d7TSphereENS_9allocatorIS4_EEE16__destroy_vectorC1B8ne200100ERS7_ 000000014000a330     Unit1.o
 0001:00009360       _ZNSt3__16vectorIPN3Fmx9Objects3d7TSphereENS_9allocatorIS4_EEE16__destroy_vectorclB8ne200100Ev 000000014000a360     Unit1.o
 0001:000093d0       _ZNSt3__16vectorIPN3Fmx9Objects3d7TSphereENS_9allocatorIS4_EEE16__destroy_vectorC2B8ne200100ERS7_ 000000014000a3d0     Unit1.o
 0001:000093f0       _ZNSt3__16vectorIPN3Fmx9Objects3d7TSphereENS_9allocatorIS4_EEE5clearB8ne200100Ev 000000014000a3f0     Unit1.o
 0001:00009430       _ZN6System15DelphiInterfaceINS_8Sysutils5TProcEED2Ev 000000014000a430     Unit1.o
 0001:00009520       _ZN6System15DelphiInterfaceINS_8Sysutils5TProcEEC1Ev 000000014000a520     Unit1.o
 0001:00009550       _ZN6System15DelphiInterfaceINS_8Sysutils5TProcEEC1ERKS3_ 000000014000a550     Unit1.o
 0001:00009580       _ZN6System15DelphiInterfaceINS_8Sysutils5TProcEEC2Ev 000000014000a580     Unit1.o
 0001:000095a0       _ZN6System15DelphiInterfaceINS_8Sysutils5TProcEEC2ERKS3_ 000000014000a5a0     Unit1.o
 0001:000095f0       _ZN6System12DynamicArrayINS_3Net9Urlclient14TNameValuePairEEC2Ev 000000014000a5f0     Unit1.o
 0001:00009610       _ZN6System12DynamicArrayINS_3Net9Urlclient14TNameValuePairEED2Ev 000000014000a610     Unit1.o
 0001:000096f0       _ZN6System12DynamicArrayINS_3Net9Urlclient14TNameValuePairEEC1ERKS4_ 000000014000a6f0     Unit1.o
 0001:00009720       _ZN6System12DynamicArrayINS_3Net9Urlclient14TNameValuePairEE11DecRefCountEv 000000014000a720     Unit1.o
 0001:00009760       _ZN6System12DynamicArrayINS_3Net9Urlclient14TNameValuePairEEC2ERKS4_ 000000014000a760     Unit1.o
 0001:00009790       _ZN6System12DynamicArrayINS_3Net9Urlclient14TNameValuePairEE11IncRefCountEv 000000014000a790     Unit1.o
 0001:000097c0       _ZN6System12DynamicArrayINS_3Net9Urlclient14TNameValuePairEE8FreeDataEv 000000014000a7c0     Unit1.o
 0001:00009870       _ZNK6System12DynamicArrayINS_3Net9Urlclient14TNameValuePairEE10get_lengthEv 000000014000a870     Unit1.o
 0001:000098c0       _ZN6System3Net9Urlclient14TNameValuePairD1Ev 000000014000a8c0     Unit1.o
 0001:000098e0       _ZNK6System12DynamicArrayINS_3Net9Urlclient14TNameValuePairEE6GetRecEv 000000014000a8e0     Unit1.o
 0001:00009900       _ZN6System3Net9Urlclient14TNameValuePairD2Ev 000000014000a900     Unit1.o
 0001:00009930       _ZN6System15DelphiInterfaceINS_3Net10Httpclient13IHTTPResponseEEC2Ev 000000014000a930     Unit1.o
 0001:00009950       _ZN6System15DelphiInterfaceINS_3Net10Httpclient13IHTTPResponseEED2Ev 000000014000a950     Unit1.o
 0001:00009a40       _ZN6System15DelphiInterfaceINS_3Net10Httpclient13IHTTPResponseEEC1ERKS4_ 000000014000aa40     Unit1.o
 0001:00009a70       _ZN6System15DelphiInterfaceINS_3Net10Httpclient13IHTTPResponseEEC2ERKS4_ 000000014000aa70     Unit1.o
 0001:00009ac0       _ZN6System15DelphiInterfaceINS_9Threading5ITaskEED2Ev 000000014000aac0     Unit1.o
 0001:00009bb0       _ZN6System15DelphiInterfaceINS_9Threading5ITaskEEC1ERKS3_ 000000014000abb0     Unit1.o
 0001:00009be0       _ZN6System15DelphiInterfaceINS_9Threading5ITaskEEC2ERKS3_ 000000014000abe0     Unit1.o
 0001:00009c30       _ZN6System15DelphiInterfaceINS_9Threading5ITaskEEC2Ev 000000014000ac30     Unit1.o
 0001:00009c50       _ZNSt3__113__atomic_baseIbLb0EE5storeB8ne200100EbNS_12memory_orderE 000000014000ac50     Unit1.o
 0001:00009c90       _ZNSt3__118__cxx_atomic_storeB8ne200100IbEEvPNS_22__cxx_atomic_base_implIT_EES2_NS_12memory_orderE 000000014000ac90     Unit1.o
 0001:00009d00       _ZNSt3__121__cxx_atomic_exchangeB8ne200100IbEET_PNS_22__cxx_atomic_base_implIS1_EES1_NS_12memory_orderE 000000014000ad00     Unit1.o
 0001:00009db0       _ZN6System15DelphiInterfaceINS_8Sysutils5TProcEEaSEPS2_ 000000014000adb0     Unit1.o
 0001:00009e10       _ZN6System20TCppInterfacedObjectINS_8Sysutils5TProcE8IUnknownNS_10IInterfaceEE6AddRefEv 000000014000ae10     Unit1.o
 0001:00009e30       _ZN6System20TCppInterfacedObjectINS_8Sysutils5TProcE8IUnknownNS_10IInterfaceEE7ReleaseEv 000000014000ae30     Unit1.o
 0001:00009e50       _ZN6System20TCppInterfacedObjectINS_8Sysutils5TProcE8IUnknownNS_10IInterfaceEE14QueryInterfaceERK5_GUIDPPv 000000014000ae50     Unit1.o
 0001:00009e80       _ZThn24_N6System20TCppInterfacedObjectINS_8Sysutils5TProcE8IUnknownNS_10IInterfaceEE14QueryInterfaceERK5_GUIDPPv 000000014000ae80     Unit1.o
 0001:00009eb0       _ZThn24_N6System20TCppInterfacedObjectINS_8Sysutils5TProcE8IUnknownNS_10IInterfaceEE6AddRefEv 000000014000aeb0     Unit1.o
 0001:00009ed0       _ZThn24_N6System20TCppInterfacedObjectINS_8Sysutils5TProcE8IUnknownNS_10IInterfaceEE7ReleaseEv 000000014000aed0     Unit1.o
 0001:00009ef0       _ZThn32_N6System20TCppInterfacedObjectINS_8Sysutils5TProcE8IUnknownNS_10IInterfaceEE14QueryInterfaceERK5_GUIDPPv 000000014000aef0     Unit1.o
 0001:00009f20       _ZThn32_N6System20TCppInterfacedObjectINS_8Sysutils5TProcE8IUnknownNS_10IInterfaceEE6AddRefEv 000000014000af20     Unit1.o
 0001:00009f40       _ZThn32_N6System20TCppInterfacedObjectINS_8Sysutils5TProcE8IUnknownNS_10IInterfaceEE7ReleaseEv 000000014000af40     Unit1.o
 0001:00009f60       _ZThn40_N6System20TCppInterfacedObjectINS_8Sysutils5TProcE8IUnknownNS_10IInterfaceEE14QueryInterfaceERK5_GUIDPPv 000000014000af60     Unit1.o
 0001:00009f90       _ZThn40_N6System20TCppInterfacedObjectINS_8Sysutils5TProcE8IUnknownNS_10IInterfaceEE6AddRefEv 000000014000af90     Unit1.o
 0001:00009fb0       _ZThn40_N6System20TCppInterfacedObjectINS_8Sysutils5TProcE8IUnknownNS_10IInterfaceEE7ReleaseEv 000000014000afb0     Unit1.o
 0001:00009fd0       _ZN6System20TCppInterfacedObjectINS_8Sysutils5TProcE8IUnknownNS_10IInterfaceEED0Ev 000000014000afd0     Unit1.o
 0001:0000a020       _ZN6System20TCppInterfacedObjectINS_8Sysutils5TProcE8IUnknownNS_10IInterfaceEEC3Ev 000000014000b020     Unit1.o
 0001:0000a0f0       _ZN6System17TInterfacedObjectC3Ev 000000014000b0f0     Unit1.o
 0001:0000a160       _ZN6System8Sysutils5TProcC2Ev 000000014000b160     Unit1.o
 0001:0000a190       _ZN8IUnknownC2Ev           000000014000b190     Unit1.o
 0001:0000a1b0       _ZN6System10IInterfaceC2Ev 000000014000b1b0     Unit1.o
 0001:0000a1e0       _ZNK6System13UnicodeString7IsEmptyEv 000000014000b1e0     Unit1.o
 0001:0000a200       _ZNSt3__110unique_ptrIN6System7Classes11TStringListENS_14default_deleteIS3_EEEC1B8ne200100ILb1EvEEPS3_ 000000014000b200     Unit1.o
 0001:0000a230       _ZNKSt3__110unique_ptrIN6System7Classes11TStringListENS_14default_deleteIS3_EEEptB8ne200100Ev 000000014000b230     Unit1.o
 0001:0000a240       _ZNSt3__110unique_ptrIN6System7Classes11TStringListENS_14default_deleteIS3_EEED1B8ne200100Ev 000000014000b240     Unit1.o
 0001:0000a260       _ZN6System15DelphiInterfaceINS_7Classes16TThreadProcedureEED1Ev 000000014000b260     Unit1.o
 0001:0000a280       _ZNSt3__110unique_ptrIN6System7Classes11TStringListENS_14default_deleteIS3_EEEC2B8ne200100ILb1EvEEPS3_ 000000014000b280     Unit1.o
 0001:0000a2a0       _ZNSt3__110unique_ptrIN6System7Classes11TStringListENS_14default_deleteIS3_EEED2B8ne200100Ev 000000014000b2a0     Unit1.o
 0001:0000a2c0       _ZNSt3__110unique_ptrIN6System7Classes11TStringListENS_14default_deleteIS3_EEE5resetB8ne200100EPS3_ 000000014000b2c0     Unit1.o
 0001:0000a310       _ZNKSt3__114default_deleteIN6System7Classes11TStringListEEclB8ne200100EPS3_ 000000014000b310     Unit1.o
 0001:0000a350       _ZN6System15DelphiInterfaceINS_7Classes16TThreadProcedureEEaSEPS2_ 000000014000b350     Unit1.o
 0001:0000a3b0       _ZN6System20TCppInterfacedObjectINS_7Classes16TThreadProcedureE8IUnknownNS_10IInterfaceEE6AddRefEv 000000014000b3b0     Unit1.o
 0001:0000a3d0       _ZN6System20TCppInterfacedObjectINS_7Classes16TThreadProcedureE8IUnknownNS_10IInterfaceEE7ReleaseEv 000000014000b3d0     Unit1.o
 0001:0000a3f0       _ZN6System20TCppInterfacedObjectINS_7Classes16TThreadProcedureE8IUnknownNS_10IInterfaceEE14QueryInterfaceERK5_GUIDPPv 000000014000b3f0     Unit1.o
 0001:0000a420       _ZThn24_N6System20TCppInterfacedObjectINS_7Classes16TThreadProcedureE8IUnknownNS_10IInterfaceEE14QueryInterfaceERK5_GUIDPPv 000000014000b420     Unit1.o
 0001:0000a450       _ZThn24_N6System20TCppInterfacedObjectINS_7Classes16TThreadProcedureE8IUnknownNS_10IInterfaceEE6AddRefEv 000000014000b450     Unit1.o
 0001:0000a470       _ZThn24_N6System20TCppInterfacedObjectINS_7Classes16TThreadProcedureE8IUnknownNS_10IInterfaceEE7ReleaseEv 000000014000b470     Unit1.o
 0001:0000a490       _ZThn32_N6System20TCppInterfacedObjectINS_7Classes16TThreadProcedureE8IUnknownNS_10IInterfaceEE14QueryInterfaceERK5_GUIDPPv 000000014000b490     Unit1.o
 0001:0000a4c0       _ZThn32_N6System20TCppInterfacedObjectINS_7Classes16TThreadProcedureE8IUnknownNS_10IInterfaceEE6AddRefEv 000000014000b4c0     Unit1.o
 0001:0000a4e0       _ZThn32_N6System20TCppInterfacedObjectINS_7Classes16TThreadProcedureE8IUnknownNS_10IInterfaceEE7ReleaseEv 000000014000b4e0     Unit1.o
 0001:0000a500       _ZThn40_N6System20TCppInterfacedObjectINS_7Classes16TThreadProcedureE8IUnknownNS_10IInterfaceEE14QueryInterfaceERK5_GUIDPPv 000000014000b500     Unit1.o
 0001:0000a530       _ZThn40_N6System20TCppInterfacedObjectINS_7Classes16TThreadProcedureE8IUnknownNS_10IInterfaceEE6AddRefEv 000000014000b530     Unit1.o
 0001:0000a550       _ZThn40_N6System20TCppInterfacedObjectINS_7Classes16TThreadProcedureE8IUnknownNS_10IInterfaceEE7ReleaseEv 000000014000b550     Unit1.o
 0001:0000a570       _ZN6System20TCppInterfacedObjectINS_7Classes16TThreadProcedureE8IUnknownNS_10IInterfaceEED0Ev 000000014000b570     Unit1.o
 0001:0000a5c0       _ZN6System20TCppInterfacedObjectINS_7Classes16TThreadProcedureE8IUnknownNS_10IInterfaceEEC3Ev 000000014000b5c0     Unit1.o
 0001:0000a690       _ZN6System7Classes16TThreadProcedureC2Ev 000000014000b690     Unit1.o
 0001:0000a6c0       _ZN6System13UnicodeStringC1EOS0_ 000000014000b6c0     Unit1.o
 0001:0000a710       _ZN6System13UnicodeStringC2EOS0_ 000000014000b710     Unit1.o
 0001:0000a750       _ZN6System17TInterfacedObjectD0Ev 000000014000b750     Unit1.o
 0001:0000a7a0       _ZN6System15DelphiInterfaceINS_7Classes16TThreadProcedureEED2Ev 000000014000b7a0     Unit1.o
 0001:0000a890       _ZN6System15DelphiInterfaceINS_7Classes16TThreadProcedureEEC1Ev 000000014000b890     Unit1.o
 0001:0000a8c0       _ZN6System15DelphiInterfaceINS_7Classes16TThreadProcedureEEC1ERKS3_ 000000014000b8c0     Unit1.o
 0001:0000a8f0       _ZN6System15DelphiInterfaceINS_7Classes16TThreadProcedureEEC2Ev 000000014000b8f0     Unit1.o
 0001:0000a910       _ZN6System15DelphiInterfaceINS_7Classes16TThreadProcedureEEC2ERKS3_ 000000014000b910     Unit1.o
 0001:0000a960       __p___winitenv             000000014000b960     libucrt:lib64_libucrt_extra_a-__p___winitenv.o
 0001:0000a970       __wgetmainargs             000000014000b970     libucrt:lib64_libucrt_extra_a-ucrt__wgetmainargs.o
 0001:0000a9f0       _amsg_exit                 000000014000b9f0     libucrt:lib64_libucrt_extra_a-ucrt_amsg_exit.o
 0001:0000aa30       _Znwy                      000000014000ba30     libmingw32:lib64_libmingw32_a-new_delete.o
 0001:0000aa30       .weak._Znwy.default._ZTISt9bad_alloc 000000014000ba30     libmingw32:lib64_libmingw32_a-new_delete.o
 0001:0000ab10       _ZnwyRKSt9nothrow_t        000000014000bb10     libmingw32:lib64_libmingw32_a-new_delete.o
 0001:0000ab10       .weak._ZnwyRKSt9nothrow_t.default._ZTISt9bad_alloc 000000014000bb10     libmingw32:lib64_libmingw32_a-new_delete.o
 0001:0000ab80       _Znay                      000000014000bb80     libmingw32:lib64_libmingw32_a-new_delete.o
 0001:0000ab80       .weak._Znay.default._ZTISt9bad_alloc 000000014000bb80     libmingw32:lib64_libmingw32_a-new_delete.o
 0001:0000aba0       _ZnayRKSt9nothrow_t        000000014000bba0     libmingw32:lib64_libmingw32_a-new_delete.o
 0001:0000aba0       .weak._ZnayRKSt9nothrow_t.default._ZTISt9bad_alloc 000000014000bba0     libmingw32:lib64_libmingw32_a-new_delete.o
 0001:0000ac10       _ZdlPv                     000000014000bc10     libmingw32:lib64_libmingw32_a-new_delete.o
 0001:0000ac10       .weak._ZdlPv.default._ZTISt9bad_alloc 000000014000bc10     libmingw32:lib64_libmingw32_a-new_delete.o
 0001:0000ac40       _ZdlPvRKSt9nothrow_t       000000014000bc40     libmingw32:lib64_libmingw32_a-new_delete.o
 0001:0000ac40       .weak._ZdlPvRKSt9nothrow_t.default._ZTISt9bad_alloc 000000014000bc40     libmingw32:lib64_libmingw32_a-new_delete.o
 0001:0000ac60       _ZdlPvy                    000000014000bc60     libmingw32:lib64_libmingw32_a-new_delete.o
 0001:0000ac60       .weak._ZdlPvy.default._ZTISt9bad_alloc 000000014000bc60     libmingw32:lib64_libmingw32_a-new_delete.o
 0001:0000ac80       _ZdaPv                     000000014000bc80     libmingw32:lib64_libmingw32_a-new_delete.o
 0001:0000ac80       .weak._ZdaPv.default._ZTISt9bad_alloc 000000014000bc80     libmingw32:lib64_libmingw32_a-new_delete.o
 0001:0000aca0       _ZdaPvRKSt9nothrow_t       000000014000bca0     libmingw32:lib64_libmingw32_a-new_delete.o
 0001:0000aca0       .weak._ZdaPvRKSt9nothrow_t.default._ZTISt9bad_alloc 000000014000bca0     libmingw32:lib64_libmingw32_a-new_delete.o
 0001:0000acc0       _ZdaPvy                    000000014000bcc0     libmingw32:lib64_libmingw32_a-new_delete.o
 0001:0000acc0       .weak._ZdaPvy.default._ZTISt9bad_alloc 000000014000bcc0     libmingw32:lib64_libmingw32_a-new_delete.o
 0001:0000ace0       _ZnwySt11align_val_t       000000014000bce0     libmingw32:lib64_libmingw32_a-new_delete.o
 0001:0000ace0       .weak._ZnwySt11align_val_t.default._ZTISt9bad_alloc 000000014000bce0     libmingw32:lib64_libmingw32_a-new_delete.o
 0001:0000ada0       _ZnwySt11align_val_tRKSt9nothrow_t 000000014000bda0     libmingw32:lib64_libmingw32_a-new_delete.o
 0001:0000ada0       .weak._ZnwySt11align_val_tRKSt9nothrow_t.default._ZTISt9bad_alloc 000000014000bda0     libmingw32:lib64_libmingw32_a-new_delete.o
 0001:0000ae20       _ZnaySt11align_val_t       000000014000be20     libmingw32:lib64_libmingw32_a-new_delete.o
 0001:0000ae20       .weak._ZnaySt11align_val_t.default._ZTISt9bad_alloc 000000014000be20     libmingw32:lib64_libmingw32_a-new_delete.o
 0001:0000ae50       _ZnaySt11align_val_tRKSt9nothrow_t 000000014000be50     libmingw32:lib64_libmingw32_a-new_delete.o
 0001:0000ae50       .weak._ZnaySt11align_val_tRKSt9nothrow_t.default._ZTISt9bad_alloc 000000014000be50     libmingw32:lib64_libmingw32_a-new_delete.o
 0001:0000aed0       _ZdlPvSt11align_val_t      000000014000bed0     libmingw32:lib64_libmingw32_a-new_delete.o
 0001:0000aed0       .weak._ZdlPvSt11align_val_t.default._ZTISt9bad_alloc 000000014000bed0     libmingw32:lib64_libmingw32_a-new_delete.o
 0001:0000af20       _ZdlPvSt11align_val_tRKSt9nothrow_t 000000014000bf20     libmingw32:lib64_libmingw32_a-new_delete.o
 0001:0000af20       .weak._ZdlPvSt11align_val_tRKSt9nothrow_t.default._ZTISt9bad_alloc 000000014000bf20     libmingw32:lib64_libmingw32_a-new_delete.o
 0001:0000af50       _ZdlPvySt11align_val_t     000000014000bf50     libmingw32:lib64_libmingw32_a-new_delete.o
 0001:0000af50       .weak._ZdlPvySt11align_val_t.default._ZTISt9bad_alloc 000000014000bf50     libmingw32:lib64_libmingw32_a-new_delete.o
 0001:0000af80       _ZdaPvSt11align_val_t      000000014000bf80     libmingw32:lib64_libmingw32_a-new_delete.o
 0001:0000af80       .weak._ZdaPvSt11align_val_t.default._ZTISt9bad_alloc 000000014000bf80     libmingw32:lib64_libmingw32_a-new_delete.o
 0001:0000afb0       _ZdaPvSt11align_val_tRKSt9nothrow_t 000000014000bfb0     libmingw32:lib64_libmingw32_a-new_delete.o
 0001:0000afb0       .weak._ZdaPvSt11align_val_tRKSt9nothrow_t.default._ZTISt9bad_alloc 000000014000bfb0     libmingw32:lib64_libmingw32_a-new_delete.o
 0001:0000afe0       _ZdaPvySt11align_val_t     000000014000bfe0     libmingw32:lib64_libmingw32_a-new_delete.o
 0001:0000afe0       .weak._ZdaPvySt11align_val_t.default._ZTISt9bad_alloc 000000014000bfe0     libmingw32:lib64_libmingw32_a-new_delete.o
 0001:0000b040       __dyn_tls_init             000000014000c040     libmingw32:lib64_libmingw32_a-tlssup.o
 0001:0000b100       __tlregdtor                000000014000c100     libmingw32:lib64_libmingw32_a-tlssup.o
 0001:0000b130       __dyn_tls_dtor             000000014000c130     libmingw32:lib64_libmingw32_a-tlssup.o
 0001:0000b170       __do_global_dtors          000000014000c170     libmingw32:lib64_libmingw32_a-gccmain.o
 0001:0000b1b0       __do_global_ctors          000000014000c1b0     libmingw32:lib64_libmingw32_a-gccmain.o
 0001:0000b250       __main                     000000014000c250     libmingw32:lib64_libmingw32_a-gccmain.o
 0001:0000b280       _gnu_exception_handler     000000014000c280     libmingw32:lib64_libmingw32_a-crt_handler.o
 0001:0000b520       __mingw_raise_matherr      000000014000c520     libmingw32:lib64_libmingw32_a-usermatherr.o
 0001:0000b5b0       __mingw_setusermatherr     000000014000c5b0     libmingw32:lib64_libmingw32_a-usermatherr.o
 0001:0000b5e0       _matherr                   000000014000c5e0     libmingw32:lib64_libmingw32_a-merr.o
 0001:0000b6e0       _pei386_runtime_relocator  000000014000c6e0     libmingw32:lib64_libmingw32_a-pseudo-reloc.o
 0001:0000bf10       _wsetargv                  000000014000cf10     libmingw32:lib64_libmingw32_a-udllargc.o
 0001:0000bf20       malloc                     000000014000cf20     libmingw32:lib64_libmingw32_a-malloc.o
 0001:0000bf70       wmain                      000000014000cf70     libmingw32:lib64_libmingw32_a-ucrtexewin.o
 0001:0000c120       __guard_dispatch_icall_dummy 000000014000d120     libmingwex:lib64_libmingwex_a-mingw_cfguard_support.o
 0001:0000c140       _ZN6System18LoadResourceStringEPKNS_13TResStringRecE 000000014000d140     rtle:syssupp.o
 0001:0000c170       _ZN6System19CheckSafecallResultEl 000000014000d170     rtle:syssupp.o
 0001:0000c190       _ZN6System16InterLockedExchgEPPvS0_ 000000014000d190     rtle:syssupp.o
 0001:0000c1c0       _ZN6System17TAggregatedObject13GetControllerEv 000000014000d1c0     rtle:syssupp.o
 0001:0000c1c0       .weak._ZN6System17TAggregatedObject13GetControllerEv.default._ZN6System18LoadResourceStringEPKNS_13TResStringRecE 000000014000d1c0     rtle:syssupp.o
 0001:0000c270       __dynamic_delphi_cast      000000014000d270     rtle:syssupp.o
 0001:0000c340       __delphi_type_info         000000014000d340     rtle:syssupp.o
 0001:0000c7d0       __dynamic_delphi_type_info 000000014000d7d0     rtle:syssupp.o
 0001:0000c820       System_InstWeakClear       000000014000d820     rtle:syssupp.o
 0001:0000c830       System_InstWeakCopy        000000014000d830     rtle:syssupp.o
 0001:0000c850       System_AsgClosureObj       000000014000d850     rtle:syssupp.o
 0001:0000c870       System_ClosureAddWeakRef   000000014000d870     rtle:syssupp.o
 0001:0000c880       System_ClosureRemoveWeakRef 000000014000d880     rtle:syssupp.o
 0001:0000c890       System_CopyClosure         000000014000d890     rtle:syssupp.o
 0001:0000c8b0       bcp_storeStrong            000000014000d8b0     rtle:syssupp.o
 0001:0000c9a0       bcp_initStrong             000000014000d9a0     rtle:syssupp.o
 0001:0000ca80       bcp_addref                 000000014000da80     rtle:syssupp.o
 0001:0000caf0       bcp_release                000000014000daf0     rtle:syssupp.o
 0001:0000cbb0       bcp_initWeak               000000014000dbb0     rtle:syssupp.o
 0001:0000cc90       bcp_releaseWeak            000000014000dc90     rtle:syssupp.o
 0001:0000cd40       bcp_storeWeak              000000014000dd40     rtle:syssupp.o
 0001:0000ce10       bcp_closureAddref          000000014000de10     rtle:syssupp.o
 0001:0000ce30       bcp_closureRelease         000000014000de30     rtle:syssupp.o
 0001:0000ce50       bcp_closureCopy            000000014000de50     rtle:syssupp.o
 0001:0000ce80       bcp_closureAsg             000000014000de80     rtle:syssupp.o
 0001:0000ceb0       _Z17DebugHlpr_HRCHECKIKcEllPT_S2_i 000000014000deb0     rtle:syssupp.o
 0001:0000cf40       _ZN6System15DelphiInterfaceINS_10IInterfaceEEadEv 000000014000df40     rtle:syssupp.o
 0001:0000cf50       _ZN6System15DelphiInterfaceINS_10IInterfaceEED2Ev 000000014000df50     rtle:syssupp.o
 0001:0000cfa0       _ZNSt3__110lock_guardINS_5mutexEEC2B8ne200100ERS1_ 000000014000dfa0     rtle:syssupp.o
 0001:0000cfd0       _ZNSt3__113unordered_mapIPN6System7Typinfo9TTypeInfoEPSt9type_infoNS_4hashIS4_EENS_8equal_toIS4_EENS_9allocatorINS_4pairIKS4_S6_EEEEEC2B8ne200100Ev 000000014000dfd0     rtle:syssupp.o
 0001:0000cff0       _ZNSt3__113unordered_mapIPN6System7Typinfo9TTypeInfoEPSt9type_infoNS_4hashIS4_EENS_8equal_toIS4_EENS_9allocatorINS_4pairIKS4_S6_EEEEED2B8ne200100Ev 000000014000dff0     rtle:syssupp.o
 0001:0000d010       _ZNSt3__113unordered_mapIPN6System7Typinfo9TTypeInfoEPSt9type_infoNS_4hashIS4_EENS_8equal_toIS4_EENS_9allocatorINS_4pairIKS4_S6_EEEEEixERSD_ 000000014000e010     rtle:syssupp.o
 0001:0000d090       _ZN6System11AnsiStringTILt65001EEC2ERKNS_13UnicodeStringE 000000014000e090     rtle:syssupp.o
 0001:0000d0e0       _ZNK6System11AnsiStringTILt65001EEplERKS1_ 000000014000e0e0     rtle:syssupp.o
 0001:0000d170       _ZN6System11AnsiStringTILt65001EEC2EPKc 000000014000e170     rtle:syssupp.o
 0001:0000d1c0       _ZN6System11AnsiStringTILt65001EEC2Ev 000000014000e1c0     rtle:syssupp.o
 0001:0000d1f0       _ZN6System11AnsiStringTILt65001EEaSEOS1_ 000000014000e1f0     rtle:syssupp.o
 0001:0000d240       _ZN6System11AnsiStringTILt65001EED2Ev 000000014000e240     rtle:syssupp.o
 0001:0000d260       _ZN10__cxxabiv117__class_type_infoC2Ev 000000014000e260     rtle:syssupp.o
 0001:0000d290       _ZNK6System11AnsiStringTILt65001EE5c_strEv 000000014000e290     rtle:syssupp.o
 0001:0000d2d0       _ZNSt3__110lock_guardINS_5mutexEED2B8ne200100Ev 000000014000e2d0     rtle:syssupp.o
 0001:0000d2f0       _ZN10__cxxabiv116__shim_type_infoC2Ev 000000014000e2f0     rtle:syssupp.o
 0001:0000d320       _ZNSt3__112__hash_tableINS_17__hash_value_typeIPN6System7Typinfo9TTypeInfoEPSt9type_infoEENS_22__unordered_map_hasherIS5_S8_NS_4hashIS5_EENS_8equal_toIS5_EELb1EEENS_21__unordered_map_equalIS5_S8_SD_SB_Lb1EEENS_9allocatorIS8_EEEC2Ev 000000014000e320     rtle:syssupp.o
 0001:0000d380       _ZNSt3__110unique_ptrIA_PNS_16__hash_node_baseIPNS_11__hash_nodeINS_17__hash_value_typeIPN6System7Typinfo9TTypeInfoEPSt9type_infoEEPvEEEENS_25__bucket_list_deallocatorINS_9allocatorISF_EEEEEC2B8ne200100ILb1EvEEv 000000014000e380     rtle:syssupp.o
 0001:0000d3b0       _ZNSt3__116__hash_node_baseIPNS_11__hash_nodeINS_17__hash_value_typeIPN6System7Typinfo9TTypeInfoEPSt9type_infoEEPvEEEC2B8ne200100Ev 000000014000e3b0     rtle:syssupp.o
 0001:0000d3d0       _ZNSt3__19allocatorINS_11__hash_nodeINS_17__hash_value_typeIPN6System7Typinfo9TTypeInfoEPSt9type_infoEEPvEEEC2B8ne200100Ev 000000014000e3d0     rtle:syssupp.o
 0001:0000d3f0       _ZNSt3__122__unordered_map_hasherIPN6System7Typinfo9TTypeInfoENS_17__hash_value_typeIS4_PSt9type_infoEENS_4hashIS4_EENS_8equal_toIS4_EELb1EEC2B8ne200100Ev 000000014000e3f0     rtle:syssupp.o
 0001:0000d400       _ZNSt3__121__unordered_map_equalIPN6System7Typinfo9TTypeInfoENS_17__hash_value_typeIS4_PSt9type_infoEENS_8equal_toIS4_EENS_4hashIS4_EELb1EEC2B8ne200100Ev 000000014000e400     rtle:syssupp.o
 0001:0000d410       _ZNSt3__125__bucket_list_deallocatorINS_9allocatorIPNS_16__hash_node_baseIPNS_11__hash_nodeINS_17__hash_value_typeIPN6System7Typinfo9TTypeInfoEPSt9type_infoEEPvEEEEEEEC2B8ne200100Ev 000000014000e410     rtle:syssupp.o
 0001:0000d430       _ZNSt3__19allocatorIPNS_16__hash_node_baseIPNS_11__hash_nodeINS_17__hash_value_typeIPN6System7Typinfo9TTypeInfoEPSt9type_infoEEPvEEEEEC2B8ne200100Ev 000000014000e430     rtle:syssupp.o
 0001:0000d450       _ZNSt3__116__non_trivial_ifILb1ENS_9allocatorIPNS_16__hash_node_baseIPNS_11__hash_nodeINS_17__hash_value_typeIPN6System7Typinfo9TTypeInfoEPSt9type_infoEEPvEEEEEEEC2B8ne200100Ev 000000014000e450     rtle:syssupp.o
 0001:0000d460       _ZNSt3__116__non_trivial_ifILb1ENS_9allocatorINS_11__hash_nodeINS_17__hash_value_typeIPN6System7Typinfo9TTypeInfoEPSt9type_infoEEPvEEEEEC2B8ne200100Ev 000000014000e460     rtle:syssupp.o
 0001:0000d470       _ZNSt3__112__hash_tableINS_17__hash_value_typeIPN6System7Typinfo9TTypeInfoEPSt9type_infoEENS_22__unordered_map_hasherIS5_S8_NS_4hashIS5_EENS_8equal_toIS5_EELb1EEENS_21__unordered_map_equalIS5_S8_SD_SB_Lb1EEENS_9allocatorIS8_EEED2Ev 000000014000e470     rtle:syssupp.o
 0001:0000d4a0       _ZNSt3__112__hash_tableINS_17__hash_value_typeIPN6System7Typinfo9TTypeInfoEPSt9type_infoEENS_22__unordered_map_hasherIS5_S8_NS_4hashIS5_EENS_8equal_toIS5_EELb1EEENS_21__unordered_map_equalIS5_S8_SD_SB_Lb1EEENS_9allocatorIS8_EEE17__deallocate_nodeEPNS_16__hash_node_baseIPNS_11__hash_nodeIS8_PvEEEE 000000014000e4a0     rtle:syssupp.o
 0001:0000d560       _ZNSt3__110unique_ptrIA_PNS_16__hash_node_baseIPNS_11__hash_nodeINS_17__hash_value_typeIPN6System7Typinfo9TTypeInfoEPSt9type_infoEEPvEEEENS_25__bucket_list_deallocatorINS_9allocatorISF_EEEEED2B8ne200100Ev 000000014000e560     rtle:syssupp.o
 0001:0000d580       _ZNSt3__112__hash_tableINS_17__hash_value_typeIPN6System7Typinfo9TTypeInfoEPSt9type_infoEENS_22__unordered_map_hasherIS5_S8_NS_4hashIS5_EENS_8equal_toIS5_EELb1EEENS_21__unordered_map_equalIS5_S8_SD_SB_Lb1EEENS_9allocatorIS8_EEE12__node_allocB8ne200100Ev 000000014000e580     rtle:syssupp.o
 0001:0000d590       _ZNSt3__116__hash_node_baseIPNS_11__hash_nodeINS_17__hash_value_typeIPN6System7Typinfo9TTypeInfoEPSt9type_infoEEPvEEE8__upcastB8ne200100Ev 000000014000e590     rtle:syssupp.o
 0001:0000d5b0       _ZNSt3__116allocator_traitsINS_9allocatorINS_11__hash_nodeINS_17__hash_value_typeIPN6System7Typinfo9TTypeInfoEPSt9type_infoEEPvEEEEE7destroyB8ne200100INS_4pairIKS7_S9_EEvTnNS_9enable_ifIXntsr13__has_destroyISD_PT_EE5valueEiE4typeELi0EEEvRSD_SL_ 000000014000e5b0     rtle:syssupp.o
 0001:0000d5d0       _ZNSt3__122__hash_key_value_typesINS_17__hash_value_typeIPN6System7Typinfo9TTypeInfoEPSt9type_infoEEE9__get_ptrB8ne200100ERS8_ 000000014000e5d0     rtle:syssupp.o
 0001:0000d5f0       _ZNSt3__111__hash_nodeINS_17__hash_value_typeIPN6System7Typinfo9TTypeInfoEPSt9type_infoEEPvE11__get_valueB8ne200100Ev 000000014000e5f0     rtle:syssupp.o
 0001:0000d600       _ZNSt3__112__destroy_atB8ne200100INS_11__hash_nodeINS_17__hash_value_typeIPN6System7Typinfo9TTypeInfoEPSt9type_infoEEPvEETnNS_9enable_ifIXntsr8is_arrayIT_EE5valueEiE4typeELi0EEEvPSD_ 000000014000e600     rtle:syssupp.o
 0001:0000d620       _ZNSt3__116allocator_traitsINS_9allocatorINS_11__hash_nodeINS_17__hash_value_typeIPN6System7Typinfo9TTypeInfoEPSt9type_infoEEPvEEEEE10deallocateB8ne200100ERSD_PSC_y 000000014000e620     rtle:syssupp.o
 0001:0000d650       _ZNSt3__114pointer_traitsIPNS_16__hash_node_baseIPNS_11__hash_nodeINS_17__hash_value_typeIPN6System7Typinfo9TTypeInfoEPSt9type_infoEEPvEEEEE10pointer_toB8ne200100ERSE_ 000000014000e650     rtle:syssupp.o
 0001:0000d660       _ZNSt3__112__destroy_atB8ne200100INS_4pairIKPN6System7Typinfo9TTypeInfoEPSt9type_infoEETnNS_9enable_ifIXntsr8is_arrayIT_EE5valueEiE4typeELi0EEEvPSB_ 000000014000e660     rtle:syssupp.o
 0001:0000d670       _ZNSt3__117__hash_value_typeIPN6System7Typinfo9TTypeInfoEPSt9type_infoE11__get_valueB8ne200100Ev 000000014000e670     rtle:syssupp.o
 0001:0000d690       _ZNSt3__17launderB8ne200100INS_4pairIKPN6System7Typinfo9TTypeInfoEPSt9type_infoEEEEPT_SB_ 000000014000e690     rtle:syssupp.o
 0001:0000d6b0       _ZNSt3__19__launderB8ne200100INS_4pairIKPN6System7Typinfo9TTypeInfoEPSt9type_infoEEEEPT_SB_ 000000014000e6b0     rtle:syssupp.o
 0001:0000d6c0       _ZNSt3__111__hash_nodeINS_17__hash_value_typeIPN6System7Typinfo9TTypeInfoEPSt9type_infoEEPvED2B8ne200100Ev 000000014000e6c0     rtle:syssupp.o
 0001:0000d6d0       _ZNSt3__19allocatorINS_11__hash_nodeINS_17__hash_value_typeIPN6System7Typinfo9TTypeInfoEPSt9type_infoEEPvEEE10deallocateB8ne200100EPSB_y 000000014000e6d0     rtle:syssupp.o
 0001:0000d700       _ZNSt3__119__libcpp_deallocateB8ne200100INS_11__hash_nodeINS_17__hash_value_typeIPN6System7Typinfo9TTypeInfoEPSt9type_infoEEPvEEEEvPNS_15__type_identityIT_E4typeENS_15__element_countEy 000000014000e700     rtle:syssupp.o
 0001:0000d760       _ZNSt3__124__libcpp_operator_deleteB8ne200100IJPNS_11__hash_nodeINS_17__hash_value_typeIPN6System7Typinfo9TTypeInfoEPSt9type_infoEEPvEESt11align_val_tEEEvDpT_ 000000014000e760     rtle:syssupp.o
 0001:0000d790       _ZNSt3__124__libcpp_operator_deleteB8ne200100IJPNS_11__hash_nodeINS_17__hash_value_typeIPN6System7Typinfo9TTypeInfoEPSt9type_infoEEPvEEEEEvDpT_ 000000014000e790     rtle:syssupp.o
 0001:0000d7b0       _ZNSt3__110unique_ptrIA_PNS_16__hash_node_baseIPNS_11__hash_nodeINS_17__hash_value_typeIPN6System7Typinfo9TTypeInfoEPSt9type_infoEEPvEEEENS_25__bucket_list_deallocatorINS_9allocatorISF_EEEEE5resetB8ne200100EDn 000000014000e7b0     rtle:syssupp.o
 0001:0000d800       _ZNSt3__125__bucket_list_deallocatorINS_9allocatorIPNS_16__hash_node_baseIPNS_11__hash_nodeINS_17__hash_value_typeIPN6System7Typinfo9TTypeInfoEPSt9type_infoEEPvEEEEEEEclB8ne200100EPSG_ 000000014000e800     rtle:syssupp.o
 0001:0000d850       _ZNSt3__116allocator_traitsINS_9allocatorIPNS_16__hash_node_baseIPNS_11__hash_nodeINS_17__hash_value_typeIPN6System7Typinfo9TTypeInfoEPSt9type_infoEEPvEEEEEEE10deallocateB8ne200100ERSH_PSG_y 000000014000e850     rtle:syssupp.o
 0001:0000d880       _ZNSt3__125__bucket_list_deallocatorINS_9allocatorIPNS_16__hash_node_baseIPNS_11__hash_nodeINS_17__hash_value_typeIPN6System7Typinfo9TTypeInfoEPSt9type_infoEEPvEEEEEEE7__allocB8ne200100Ev 000000014000e880     rtle:syssupp.o
 0001:0000d890       _ZNSt3__125__bucket_list_deallocatorINS_9allocatorIPNS_16__hash_node_baseIPNS_11__hash_nodeINS_17__hash_value_typeIPN6System7Typinfo9TTypeInfoEPSt9type_infoEEPvEEEEEEE4sizeB8ne200100Ev 000000014000e890     rtle:syssupp.o
 0001:0000d8a0       _ZNSt3__19allocatorIPNS_16__hash_node_baseIPNS_11__hash_nodeINS_17__hash_value_typeIPN6System7Typinfo9TTypeInfoEPSt9type_infoEEPvEEEEE10deallocateB8ne200100EPSF_y 000000014000e8a0     rtle:syssupp.o
 0001:0000d8d0       _ZNSt3__119__libcpp_deallocateB8ne200100IPNS_16__hash_node_baseIPNS_11__hash_nodeINS_17__hash_value_typeIPN6System7Typinfo9TTypeInfoEPSt9type_infoEEPvEEEEEEvPNS_15__type_identityIT_E4typeENS_15__element_countEy 000000014000e8d0     rtle:syssupp.o
 0001:0000d930       _ZNSt3__124__libcpp_operator_deleteB8ne200100IJPPNS_16__hash_node_baseIPNS_11__hash_nodeINS_17__hash_value_typeIPN6System7Typinfo9TTypeInfoEPSt9type_infoEEPvEEEESt11align_val_tEEEvDpT_ 000000014000e930     rtle:syssupp.o
 0001:0000d960       _ZNSt3__124__libcpp_operator_deleteB8ne200100IJPPNS_16__hash_node_baseIPNS_11__hash_nodeINS_17__hash_value_typeIPN6System7Typinfo9TTypeInfoEPSt9type_infoEEPvEEEEEEEvDpT_ 000000014000e960     rtle:syssupp.o
 0001:0000d980       _ZNSt3__112__hash_tableINS_17__hash_value_typeIPN6System7Typinfo9TTypeInfoEPSt9type_infoEENS_22__unordered_map_hasherIS5_S8_NS_4hashIS5_EENS_8equal_toIS5_EELb1EEENS_21__unordered_map_equalIS5_S8_SD_SB_Lb1EEENS_9allocatorIS8_EEE25__emplace_unique_key_argsIS5_JRKNS_21piecewise_construct_tENS_5tupleIJRKS5_EEENSO_IJEEEEEENS_4pairINS_15__hash_iteratorIPNS_11__hash_nodeIS8_PvEEEEbEERKT_DpOT0_ 000000014000e980     rtle:syssupp.o
 0001:0000e0b0       _ZNSt3__116forward_as_tupleB8ne200100IJRKPN6System7Typinfo9TTypeInfoEEEENS_5tupleIJDpOT_EEESA_ 000000014000f0b0     rtle:syssupp.o
 0001:0000e0e0       _ZNSt3__116forward_as_tupleB8ne200100IJEEENS_5tupleIJDpOT_EEES4_ 000000014000f0e0     rtle:syssupp.o
 0001:0000e0f0       _ZNKSt3__115__hash_iteratorIPNS_11__hash_nodeINS_17__hash_value_typeIPN6System7Typinfo9TTypeInfoEPSt9type_infoEEPvEEEptB8ne200100Ev 000000014000f0f0     rtle:syssupp.o
 0001:0000e120       _ZNSt3__112__hash_tableINS_17__hash_value_typeIPN6System7Typinfo9TTypeInfoEPSt9type_infoEENS_22__unordered_map_hasherIS5_S8_NS_4hashIS5_EENS_8equal_toIS5_EELb1EEENS_21__unordered_map_equalIS5_S8_SD_SB_Lb1EEENS_9allocatorIS8_EEE13hash_functionB8ne200100Ev 000000014000f120     rtle:syssupp.o
 0001:0000e130       _ZNKSt3__122__unordered_map_hasherIPN6System7Typinfo9TTypeInfoENS_17__hash_value_typeIS4_PSt9type_infoEENS_4hashIS4_EENS_8equal_toIS4_EELb1EEclB8ne200100ERKS4_ 000000014000f130     rtle:syssupp.o
 0001:0000e160       _ZNKSt3__112__hash_tableINS_17__hash_value_typeIPN6System7Typinfo9TTypeInfoEPSt9type_infoEENS_22__unordered_map_hasherIS5_S8_NS_4hashIS5_EENS_8equal_toIS5_EELb1EEENS_21__unordered_map_equalIS5_S8_SD_SB_Lb1EEENS_9allocatorIS8_EEE12bucket_countB8ne200100Ev 000000014000f160     rtle:syssupp.o
 0001:0000e190       _ZNSt3__116__constrain_hashB8ne200100Eyy 000000014000f190     rtle:syssupp.o
 0001:0000e210       _ZNKSt3__110unique_ptrIA_PNS_16__hash_node_baseIPNS_11__hash_nodeINS_17__hash_value_typeIPN6System7Typinfo9TTypeInfoEPSt9type_infoEEPvEEEENS_25__bucket_list_deallocatorINS_9allocatorISF_EEEEEixB8ne200100Ey 000000014000f210     rtle:syssupp.o
 0001:0000e240       _ZNKSt3__116__hash_node_baseIPNS_11__hash_nodeINS_17__hash_value_typeIPN6System7Typinfo9TTypeInfoEPSt9type_infoEEPvEEE6__hashB8ne200100Ev 000000014000f240     rtle:syssupp.o
 0001:0000e250       _ZNSt3__112__hash_tableINS_17__hash_value_typeIPN6System7Typinfo9TTypeInfoEPSt9type_infoEENS_22__unordered_map_hasherIS5_S8_NS_4hashIS5_EENS_8equal_toIS5_EELb1EEENS_21__unordered_map_equalIS5_S8_SD_SB_Lb1EEENS_9allocatorIS8_EEE6key_eqB8ne200100Ev 000000014000f250     rtle:syssupp.o
 0001:0000e260       _ZNKSt3__121__unordered_map_equalIPN6System7Typinfo9TTypeInfoENS_17__hash_value_typeIS4_PSt9type_infoEENS_8equal_toIS4_EENS_4hashIS4_EELb1EEclB8ne200100ERKS8_RKS4_ 000000014000f260     rtle:syssupp.o
 0001:0000e2a0       _ZNSt3__112__hash_tableINS_17__hash_value_typeIPN6System7Typinfo9TTypeInfoEPSt9type_infoEENS_22__unordered_map_hasherIS5_S8_NS_4hashIS5_EENS_8equal_toIS5_EELb1EEENS_21__unordered_map_equalIS5_S8_SD_SB_Lb1EEENS_9allocatorIS8_EEE21__construct_node_hashIRKNS_21piecewise_construct_tEJNS_5tupleIJRKS5_EEENSO_IJEEEEEENS_10unique_ptrINS_11__hash_nodeIS8_PvEENS_22__hash_node_destructorINSH_ISW_EEEEEEyOT_DpOT0_ 000000014000f2a0     rtle:syssupp.o
 0001:0000e440       _ZNSt3__112__hash_tableINS_17__hash_value_typeIPN6System7Typinfo9TTypeInfoEPSt9type_infoEENS_22__unordered_map_hasherIS5_S8_NS_4hashIS5_EENS_8equal_toIS5_EELb1EEENS_21__unordered_map_equalIS5_S8_SD_SB_Lb1EEENS_9allocatorIS8_EEE4sizeB8ne200100Ev 000000014000f440     rtle:syssupp.o
 0001:0000e450       _ZNSt3__112__hash_tableINS_17__hash_value_typeIPN6System7Typinfo9TTypeInfoEPSt9type_infoEENS_22__unordered_map_hasherIS5_S8_NS_4hashIS5_EENS_8equal_toIS5_EELb1EEENS_21__unordered_map_equalIS5_S8_SD_SB_Lb1EEENS_9allocatorIS8_EEE15max_load_factorB8ne200100Ev 000000014000f450     rtle:syssupp.o
 0001:0000e460       _ZNSt3__112__hash_tableINS_17__hash_value_typeIPN6System7Typinfo9TTypeInfoEPSt9type_infoEENS_22__unordered_map_hasherIS5_S8_NS_4hashIS5_EENS_8equal_toIS5_EELb1EEENS_21__unordered_map_equalIS5_S8_SD_SB_Lb1EEENS_9allocatorIS8_EEE15__rehash_uniqueB8ne200100Ey 000000014000f460     rtle:syssupp.o
 0001:0000e490       _ZNSt3__116__is_hash_power2B8ne200100Ey 000000014000f490     rtle:syssupp.o
 0001:0000e4d0       _ZNSt3__16__math4ceilB8ne200100Ef 000000014000f4d0     rtle:syssupp.o
 0001:0000e4f0       _ZNSt3__116__hash_node_baseIPNS_11__hash_nodeINS_17__hash_value_typeIPN6System7Typinfo9TTypeInfoEPSt9type_infoEEPvEEE5__ptrB8ne200100Ev 000000014000f4f0     rtle:syssupp.o
 0001:0000e510       _ZNKSt3__110unique_ptrINS_11__hash_nodeINS_17__hash_value_typeIPN6System7Typinfo9TTypeInfoEPSt9type_infoEEPvEENS_22__hash_node_destructorINS_9allocatorISB_EEEEEptB8ne200100Ev 000000014000f510     rtle:syssupp.o
 0001:0000e520       _ZNKSt3__110unique_ptrINS_11__hash_nodeINS_17__hash_value_typeIPN6System7Typinfo9TTypeInfoEPSt9type_infoEEPvEENS_22__hash_node_destructorINS_9allocatorISB_EEEEE3getB8ne200100Ev 000000014000f520     rtle:syssupp.o
 0001:0000e530       _ZNSt3__110unique_ptrINS_11__hash_nodeINS_17__hash_value_typeIPN6System7Typinfo9TTypeInfoEPSt9type_infoEEPvEENS_22__hash_node_destructorINS_9allocatorISB_EEEEE7releaseB8ne200100Ev 000000014000f530     rtle:syssupp.o
 0001:0000e560       _ZNSt3__110unique_ptrINS_11__hash_nodeINS_17__hash_value_typeIPN6System7Typinfo9TTypeInfoEPSt9type_infoEEPvEENS_22__hash_node_destructorINS_9allocatorISB_EEEEED2B8ne200100Ev 000000014000f560     rtle:syssupp.o
 0001:0000e580       _ZNSt3__115__hash_iteratorIPNS_11__hash_nodeINS_17__hash_value_typeIPN6System7Typinfo9TTypeInfoEPSt9type_infoEEPvEEEC2B8ne200100EPNS_16__hash_node_baseISC_EE 000000014000f580     rtle:syssupp.o
 0001:0000e5a0       _ZNSt3__14pairINS_15__hash_iteratorIPNS_11__hash_nodeINS_17__hash_value_typeIPN6System7Typinfo9TTypeInfoEPSt9type_infoEEPvEEEEbEC2B8ne200100ISE_RbTnNS_9enable_ifIXclsr10_CheckArgsE23__is_pair_constructibleIT_T0_EEEiE4typeELi0EEEOSJ_OSK_ 000000014000f5a0     rtle:syssupp.o
 0001:0000e5e0       _ZNKSt3__14hashIPN6System7Typinfo9TTypeInfoEEclB8ne200100ES4_ 000000014000f5e0     rtle:syssupp.o
 0001:0000e630       _ZNKSt3__121__murmur2_or_cityhashIyLy64EEclB8ne200100EPKvy 000000014000f630     rtle:syssupp.o
 0001:0000eb30       _ZNSt3__121__murmur2_or_cityhashIyLy64EE18__hash_len_0_to_16B8ne200100EPKcy 000000014000fb30     rtle:syssupp.o
 0001:0000ecd0       _ZNSt3__121__murmur2_or_cityhashIyLy64EE19__hash_len_17_to_32B8ne200100EPKcy 000000014000fcd0     rtle:syssupp.o
 0001:0000ede0       _ZNSt3__121__murmur2_or_cityhashIyLy64EE19__hash_len_33_to_64B8ne200100EPKcy 000000014000fde0     rtle:syssupp.o
 0001:0000f120       _ZNSt3__110__loadwordB8ne200100IyEET_PKv 0000000140010120     rtle:syssupp.o
 0001:0000f140       _ZNSt3__121__murmur2_or_cityhashIyLy64EE13__hash_len_16B8ne200100Eyy 0000000140010140     rtle:syssupp.o
 0001:0000f1e0       _ZNSt3__121__murmur2_or_cityhashIyLy64EE29__weak_hash_len_32_with_seedsB8ne200100EPKcyy 00000001400101e0     rtle:syssupp.o
 0001:0000f290       _ZNSt3__121__murmur2_or_cityhashIyLy64EE8__rotateB8ne200100Eyi 0000000140010290     rtle:syssupp.o
 0001:0000f2f0       _ZNSt3__14pairIyyEaSB8ne200100EOS1_ 00000001400102f0     rtle:syssupp.o
 0001:0000f320       _ZNSt3__14swapB8ne200100IyEENS_9enable_ifIXaasr21is_move_constructibleIT_EE5valuesr18is_move_assignableIS2_EE5valueEvE4typeERS2_S5_ 0000000140010320     rtle:syssupp.o
 0001:0000f360       _ZNSt3__121__murmur2_or_cityhashIyLy64EE11__shift_mixB8ne200100Ey 0000000140010360     rtle:syssupp.o
 0001:0000f380       _ZNSt3__121__murmur2_or_cityhashIyLy64EE22__rotate_by_at_least_1B8ne200100Eyi 0000000140010380     rtle:syssupp.o
 0001:0000f3c0       _ZNSt3__110__loadwordB8ne200100IjEET_PKv 00000001400103c0     rtle:syssupp.o
 0001:0000f3e0       _ZNSt3__121__murmur2_or_cityhashIyLy64EE29__weak_hash_len_32_with_seedsB8ne200100Eyyyyyy 00000001400103e0     rtle:syssupp.o
 0001:0000f500       _ZNSt3__14pairIyyEC2B8ne200100IyyTnNS_9enable_ifIXclsr10_CheckArgsE23__is_pair_constructibleIT_T0_EEEiE4typeELi0EEEOS4_OS5_ 0000000140010500     rtle:syssupp.o
 0001:0000f540       _ZNKSt3__110unique_ptrIA_PNS_16__hash_node_baseIPNS_11__hash_nodeINS_17__hash_value_typeIPN6System7Typinfo9TTypeInfoEPSt9type_infoEEPvEEEENS_25__bucket_list_deallocatorINS_9allocatorISF_EEEEE11get_deleterB8ne200100Ev 0000000140010540     rtle:syssupp.o
 0001:0000f550       _ZNKSt3__125__bucket_list_deallocatorINS_9allocatorIPNS_16__hash_node_baseIPNS_11__hash_nodeINS_17__hash_value_typeIPN6System7Typinfo9TTypeInfoEPSt9type_infoEEPvEEEEEEE4sizeB8ne200100Ev 0000000140010550     rtle:syssupp.o
 0001:0000f560       _ZNKSt3__18equal_toIPN6System7Typinfo9TTypeInfoEEclB8ne200100ERKS4_S7_ 0000000140010560     rtle:syssupp.o
 0001:0000f590       _ZNKSt3__117__hash_value_typeIPN6System7Typinfo9TTypeInfoEPSt9type_infoE11__get_valueB8ne200100Ev 0000000140010590     rtle:syssupp.o
 0001:0000f5b0       _ZNSt3__17launderB8ne200100IKNS_4pairIKPN6System7Typinfo9TTypeInfoEPSt9type_infoEEEEPT_SC_ 00000001400105b0     rtle:syssupp.o
 0001:0000f5d0       _ZNSt3__19__launderB8ne200100IKNS_4pairIKPN6System7Typinfo9TTypeInfoEPSt9type_infoEEEEPT_SC_ 00000001400105d0     rtle:syssupp.o
 0001:0000f5e0       _ZNSt3__116allocator_traitsINS_9allocatorINS_11__hash_nodeINS_17__hash_value_typeIPN6System7Typinfo9TTypeInfoEPSt9type_infoEEPvEEEEE8allocateB8ne200100ERSD_y 00000001400105e0     rtle:syssupp.o
 0001:0000f610       _ZNSt3__122__hash_node_destructorINS_9allocatorINS_11__hash_nodeINS_17__hash_value_typeIPN6System7Typinfo9TTypeInfoEPSt9type_infoEEPvEEEEEC2B8ne200100ERSD_b 0000000140010610     rtle:syssupp.o
 0001:0000f650       _ZNSt3__110unique_ptrINS_11__hash_nodeINS_17__hash_value_typeIPN6System7Typinfo9TTypeInfoEPSt9type_infoEEPvEENS_22__hash_node_destructorINS_9allocatorISB_EEEEEC2B8ne200100ILb1EvEEPSB_NS_16__dependent_typeINS_27__unique_ptr_deleter_sfinaeISF_EEXT_EE20__good_rval_ref_typeE 0000000140010650     rtle:syssupp.o
 0001:0000f6a0       _ZNSt3__114__construct_atB8ne200100INS_11__hash_nodeINS_17__hash_value_typeIPN6System7Typinfo9TTypeInfoEPSt9type_infoEEPvEEJDnRyEPSB_EEPT_SF_DpOT0_ 00000001400106a0     rtle:syssupp.o
 0001:0000f6d0       _ZNKSt3__110unique_ptrINS_11__hash_nodeINS_17__hash_value_typeIPN6System7Typinfo9TTypeInfoEPSt9type_infoEEPvEENS_22__hash_node_destructorINS_9allocatorISB_EEEEEdeB8ne200100Ev 00000001400106d0     rtle:syssupp.o
 0001:0000f6e0       _ZNSt3__116allocator_traitsINS_9allocatorINS_11__hash_nodeINS_17__hash_value_typeIPN6System7Typinfo9TTypeInfoEPSt9type_infoEEPvEEEEE9constructB8ne200100INS_4pairIKS7_S9_EEJRKNS_21piecewise_construct_tENS_5tupleIJRSH_EEENSM_IJEEEEvTnNS_9enable_ifIXntsr15__has_constructISD_PT_DpT0_EE5valueEiE4typeELi0EEEvRSD_SS_DpOST_ 00000001400106e0     rtle:syssupp.o
 0001:0000f720       _ZNSt3__110unique_ptrINS_11__hash_nodeINS_17__hash_value_typeIPN6System7Typinfo9TTypeInfoEPSt9type_infoEEPvEENS_22__hash_node_destructorINS_9allocatorISB_EEEEE11get_deleterB8ne200100Ev 0000000140010720     rtle:syssupp.o
 0001:0000f730       _ZNSt3__19allocatorINS_11__hash_nodeINS_17__hash_value_typeIPN6System7Typinfo9TTypeInfoEPSt9type_infoEEPvEEE8allocateB8ne200100Ey 0000000140010730     rtle:syssupp.o
 0001:0000f780       _ZNSt3__116allocator_traitsINS_9allocatorINS_11__hash_nodeINS_17__hash_value_typeIPN6System7Typinfo9TTypeInfoEPSt9type_infoEEPvEEEEE8max_sizeB8ne200100ISD_vTnNS_9enable_ifIXntsr14__has_max_sizeIKT_EE5valueEiE4typeELi0EEEyRKSD_ 0000000140010780     rtle:syssupp.o
 0001:0000f7a0       _ZNSt3__117__libcpp_allocateB8ne200100INS_11__hash_nodeINS_17__hash_value_typeIPN6System7Typinfo9TTypeInfoEPSt9type_infoEEPvEEEEPT_NS_15__element_countEy 00000001400107a0     rtle:syssupp.o
 0001:0000f810       _ZNSt3__125__compressed_pair_paddingINS_22__hash_node_destructorINS_9allocatorINS_11__hash_nodeINS_17__hash_value_typeIPN6System7Typinfo9TTypeInfoEPSt9type_infoEEPvEEEEEELb0EEC2Ev 0000000140010810     rtle:syssupp.o
 0001:0000f850       _ZNSt3__112construct_atB8ne200100INS_11__hash_nodeINS_17__hash_value_typeIPN6System7Typinfo9TTypeInfoEPSt9type_infoEEPvEEJDnRyEPSB_EEPT_SF_DpOT0_ 0000000140010850     rtle:syssupp.o
 0001:0000f890       _ZNSt3__111__hash_nodeINS_17__hash_value_typeIPN6System7Typinfo9TTypeInfoEPSt9type_infoEEPvEC2B8ne200100EPNS_16__hash_node_baseIPSA_EEy 0000000140010890     rtle:syssupp.o
 0001:0000f8d0       _ZNSt3__116__hash_node_baseIPNS_11__hash_nodeINS_17__hash_value_typeIPN6System7Typinfo9TTypeInfoEPSt9type_infoEEPvEEEC2B8ne200100EPSD_ 00000001400108d0     rtle:syssupp.o
 0001:0000f8f0       _ZNSt3__114__construct_atB8ne200100INS_4pairIKPN6System7Typinfo9TTypeInfoEPSt9type_infoEEJRKNS_21piecewise_construct_tENS_5tupleIJRS6_EEENSD_IJEEEEPS9_EEPT_SJ_DpOT0_ 00000001400108f0     rtle:syssupp.o
 0001:0000f930       _ZNSt3__112construct_atB8ne200100INS_4pairIKPN6System7Typinfo9TTypeInfoEPSt9type_infoEEJRKNS_21piecewise_construct_tENS_5tupleIJRS6_EEENSD_IJEEEEPS9_EEPT_SJ_DpOT0_ 0000000140010930     rtle:syssupp.o
 0001:0000f980       _ZNSt3__14pairIKPN6System7Typinfo9TTypeInfoEPSt9type_infoEC2B8ne200100IJRS5_EJEEENS_21piecewise_construct_tENS_5tupleIJDpT_EEENSC_IJDpT0_EEE 0000000140010980     rtle:syssupp.o
 0001:0000f9e0       _ZNSt3__14pairIKPN6System7Typinfo9TTypeInfoEPSt9type_infoEC2B8ne200100IJRS5_EJEJLy0EETpTnyJEEENS_21piecewise_construct_tERNS_5tupleIJDpT_EEERNSC_IJDpT0_EEENS_15__tuple_indicesIJXspT1_EEEENSL_IJXspT2_EEEE 00000001400109e0     rtle:syssupp.o
 0001:0000fa40       _ZNSt3__13getB8ne200100ILy0EJRKPN6System7Typinfo9TTypeInfoEEEERNS_13tuple_elementIXT_ENS_5tupleIJDpT0_EEEE4typeERSB_ 0000000140010a40     rtle:syssupp.o
 0001:0000fa60       _ZNSt3__112__tuple_leafILy0ERKPN6System7Typinfo9TTypeInfoELb0EE3getB8ne200100Ev 0000000140010a60     rtle:syssupp.o
 0001:0000fa70       _ZNSt3__112__hash_tableINS_17__hash_value_typeIPN6System7Typinfo9TTypeInfoEPSt9type_infoEENS_22__unordered_map_hasherIS5_S8_NS_4hashIS5_EENS_8equal_toIS5_EELb1EEENS_21__unordered_map_equalIS5_S8_SD_SB_Lb1EEENS_9allocatorIS8_EEE8__rehashILb1EEEvy 0000000140010a70     rtle:syssupp.o
 0001:0000fca0       _ZNSt3__112__hash_tableINS_17__hash_value_typeIPN6System7Typinfo9TTypeInfoEPSt9type_infoEENS_22__unordered_map_hasherIS5_S8_NS_4hashIS5_EENS_8equal_toIS5_EELb1EEENS_21__unordered_map_equalIS5_S8_SD_SB_Lb1EEENS_9allocatorIS8_EEE11__do_rehashILb1EEEvy 0000000140010ca0     rtle:syssupp.o
 0001:0000ff30       _ZNSt3__116__next_hash_pow2B8ne200100Ey 0000000140010f30     rtle:syssupp.o
 0001:0000ff80       _ZNSt3__110unique_ptrIA_PNS_16__hash_node_baseIPNS_11__hash_nodeINS_17__hash_value_typeIPN6System7Typinfo9TTypeInfoEPSt9type_infoEEPvEEEENS_25__bucket_list_deallocatorINS_9allocatorISF_EEEEE11get_deleterB8ne200100Ev 0000000140010f80     rtle:syssupp.o
 0001:0000ff90       _ZNSt3__110unique_ptrIA_PNS_16__hash_node_baseIPNS_11__hash_nodeINS_17__hash_value_typeIPN6System7Typinfo9TTypeInfoEPSt9type_infoEEPvEEEENS_25__bucket_list_deallocatorINS_9allocatorISF_EEEEE5resetB8ne200100IPSF_TnNS_9enable_ifIXsr28_CheckArrayPointerConversionIT_EE5valueEiE4typeELi0EEEvSP_ 0000000140010f90     rtle:syssupp.o
 0001:0000ffe0       _ZNSt3__116allocator_traitsINS_9allocatorIPNS_16__hash_node_baseIPNS_11__hash_nodeINS_17__hash_value_typeIPN6System7Typinfo9TTypeInfoEPSt9type_infoEEPvEEEEEEE8allocateB8ne200100ERSH_y 0000000140010fe0     rtle:syssupp.o
 0001:00010010       _ZNSt3__19allocatorIPNS_16__hash_node_baseIPNS_11__hash_nodeINS_17__hash_value_typeIPN6System7Typinfo9TTypeInfoEPSt9type_infoEEPvEEEEE8allocateB8ne200100Ey 0000000140011010     rtle:syssupp.o
 0001:00010060       _ZNSt3__116allocator_traitsINS_9allocatorIPNS_16__hash_node_baseIPNS_11__hash_nodeINS_17__hash_value_typeIPN6System7Typinfo9TTypeInfoEPSt9type_infoEEPvEEEEEEE8max_sizeB8ne200100ISH_vTnNS_9enable_ifIXntsr14__has_max_sizeIKT_EE5valueEiE4typeELi0EEEyRKSH_ 0000000140011060     rtle:syssupp.o
 0001:00010080       _ZNSt3__117__libcpp_allocateB8ne200100IPNS_16__hash_node_baseIPNS_11__hash_nodeINS_17__hash_value_typeIPN6System7Typinfo9TTypeInfoEPSt9type_infoEEPvEEEEEEPT_NS_15__element_countEy 0000000140011080     rtle:syssupp.o
 0001:000100f0       _ZNSt3__112__libcpp_clzB8ne200100Ey 00000001400110f0     rtle:syssupp.o
 0001:00010110       _ZNSt3__110unique_ptrINS_11__hash_nodeINS_17__hash_value_typeIPN6System7Typinfo9TTypeInfoEPSt9type_infoEEPvEENS_22__hash_node_destructorINS_9allocatorISB_EEEEE5resetB8ne200100EPSB_ 0000000140011110     rtle:syssupp.o
 0001:00010160       _ZNSt3__122__hash_node_destructorINS_9allocatorINS_11__hash_nodeINS_17__hash_value_typeIPN6System7Typinfo9TTypeInfoEPSt9type_infoEEPvEEEEEclB8ne200100EPSC_ 0000000140011160     rtle:syssupp.o
 0001:000101f0       _ZNSt3__15tupleIJRKPN6System7Typinfo9TTypeInfoEEEC2B8ne200100INS_4_AndETnNS_9enable_ifIXsrT_IJNS_17integral_constantIbLb1EEENS_21is_copy_constructibleIS6_EEEE5valueEiE4typeELi0EEES6_ 00000001400111f0     rtle:syssupp.o
 0001:00010230       _ZNSt3__112__tuple_implINS_15__tuple_indicesIJLy0EEEEJRKPN6System7Typinfo9TTypeInfoEEEC2B8ne200100IJLy0EEJS8_ETpTnyJEJEJS8_EEENS1_IJXspT_EEEENS_13__tuple_typesIJDpT0_EEENS1_IJXspT1_EEEENSC_IJDpT2_EEEDpOT3_ 0000000140011230     rtle:syssupp.o
 0001:00010270       _ZNSt3__112__tuple_leafILy0ERKPN6System7Typinfo9TTypeInfoELb0EEC2B8ne200100IS6_TnNS_9enable_ifIXsr4_AndINS_17integral_constantIbXntu9__is_sameu14__remove_cvrefIT_ES7_EEEENS_16is_constructibleIS6_JSB_EEEEE5valueEiE4typeELi0EEEOSB_ 0000000140011270     rtle:syssupp.o
 0001:00010290       _ZNSt3__114pointer_traitsIPNS_17__hash_value_typeIPN6System7Typinfo9TTypeInfoEPSt9type_infoEEE10pointer_toB8ne200100ERS8_ 0000000140011290     rtle:syssupp.o
 0001:000102a0       _ZN6System14AnsiStringBaseC2Ev 00000001400112a0     rtle:syssupp.o
 0001:000102c0       _ZN6System11AnsiStringTILt65001EE4swapERS1_ 00000001400112c0     rtle:syssupp.o
 0001:000102f0       _ZNK6System13UnicodeString6GetRecEv 00000001400112f0     rtle:ustring.o
 0001:00010310       _ZN6System13UnicodeString6GetRecEv 0000000140011310     rtle:ustring.o
 0001:00010330       _ZNK6System13UnicodeString6LengthEv 0000000140011330     rtle:ustring.o
 0001:00010370       _ZNK6System13UnicodeString17ThrowIfOutOfRangeEi 0000000140011370     rtle:ustring.o
 0001:00010450       _ZN6System13UnicodeStringC1Ev 0000000140011450     rtle:ustring.o
 0001:00010450       _ZN6System13UnicodeStringC2Ev 0000000140011450     rtle:ustring.o
 0001:00010470       _ZN6System13UnicodeStringC1EPKc 0000000140011470     rtle:ustring.o
 0001:00010470       _ZN6System13UnicodeStringC2EPKc 0000000140011470     rtle:ustring.o
 0001:000104a0       _ZN6System13UnicodeStringC1ERKS0_ 00000001400114a0     rtle:ustring.o
 0001:000104a0       _ZN6System13UnicodeStringC2ERKS0_ 00000001400114a0     rtle:ustring.o
 0001:00010510       _ZN6System13UnicodeStringC2ERKNS_10WideStringE 0000000140011510     rtle:ustring.o
 0001:00010510       _ZN6System13UnicodeStringC1ERKNS_10WideStringE 0000000140011510     rtle:ustring.o
 0001:00010540       _ZN6System13UnicodeStringC2EPKwi 0000000140011540     rtle:ustring.o
 0001:00010540       _ZN6System13UnicodeStringC1EPKwi 0000000140011540     rtle:ustring.o
 0001:000105c0       _ZN6System13UnicodeString9SetLengthEi 00000001400115c0     rtle:ustring.o
 0001:000105f0       _ZN6System13UnicodeStringC1EPKw 00000001400115f0     rtle:ustring.o
 0001:000105f0       _ZN6System13UnicodeStringC2EPKw 00000001400115f0     rtle:ustring.o
 0001:00010660       _ZN6System13UnicodeStringC2EPKDsi 0000000140011660     rtle:ustring.o
 0001:00010660       _ZN6System13UnicodeStringC1EPKDsi 0000000140011660     rtle:ustring.o
 0001:000106f0       _ZN6System13UnicodeStringC2EPKDii 00000001400116f0     rtle:ustring.o
 0001:000106f0       _ZN6System13UnicodeStringC1EPKDii 00000001400116f0     rtle:ustring.o
 0001:000108d0       _ZN6System13UnicodeStringC2EPKci 00000001400118d0     rtle:ustring.o
 0001:000108d0       _ZN6System13UnicodeStringC1EPKci 00000001400118d0     rtle:ustring.o
 0001:00010960       _ZN6System13UnicodeStringC1Ed 0000000140011960     rtle:ustring.o
 0001:00010960       _ZN6System13UnicodeStringC2Ed 0000000140011960     rtle:ustring.o
 0001:000109e0       _ZN6System13UnicodeStringD1Ev 00000001400119e0     rtle:ustring.o
 0001:000109e0       _ZN6System13UnicodeStringD2Ev 00000001400119e0     rtle:ustring.o
 0001:00010a10       _ZN6System13UnicodeStringaSERKS0_ 0000000140011a10     rtle:ustring.o
 0001:00010a40       _ZN6System13UnicodeStringpLERKS0_ 0000000140011a40     rtle:ustring.o
 0001:00010a70       _ZNK6System13UnicodeStringplERKS0_ 0000000140011a70     rtle:ustring.o
 0001:00010b10       _ZNK6System13UnicodeStringeqERKS0_ 0000000140011b10     rtle:ustring.o
 0001:00010b40       _ZNK6System13UnicodeStringneERKS0_ 0000000140011b40     rtle:ustring.o
 0001:00010b70       _ZNK6System13UnicodeStringltERKS0_ 0000000140011b70     rtle:ustring.o
 0001:00010ba0       _ZNK6System13UnicodeStringgtERKS0_ 0000000140011ba0     rtle:ustring.o
 0001:00010bd0       _ZNK6System13UnicodeStringleERKS0_ 0000000140011bd0     rtle:ustring.o
 0001:00010c00       _ZNK6System13UnicodeStringgeERKS0_ 0000000140011c00     rtle:ustring.o
 0001:00010c30       _ZNK6System13UnicodeString7CompareERKS0_ 0000000140011c30     rtle:ustring.o
 0001:00010d00       _ZNK6System13UnicodeString9CompareICERKS0_ 0000000140011d00     rtle:ustring.o
 0001:00010dd0       _ZN6System13UnicodeString12StringOfCharEwi 0000000140011dd0     rtle:ustring.o
 0001:00010e90       _ZN6System13UnicodeString7LoadStrEi 0000000140011e90     rtle:ustring.o
 0001:00010ec0       _ZN6System13UnicodeString7LoadStrEP11HINSTANCE__i 0000000140011ec0     rtle:ustring.o
 0001:00010f50       _ZN6System13UnicodeString11LoadStringAEP11HINSTANCE__i 0000000140011f50     rtle:ustring.o
 0001:000110d0       _ZN6System13UnicodeString10FmtLoadStrEiPKNS_7TVarRecEi 00000001400120d0     rtle:ustring.o
 0001:00011110       _ZN6System13UnicodeString6FormatERKS0_PKNS_7TVarRecEi 0000000140012110     rtle:ustring.o
 0001:00011160       _ZN6System13UnicodeString11FormatFloatERKS0_RKe 0000000140012160     rtle:ustring.o
 0001:000111a0       _ZN6System13UnicodeString7vprintfEPKwPc 00000001400121a0     rtle:ustring.o
 0001:00011230       _ZN6System13UnicodeString11cat_vprintfEPKwPc 0000000140012230     rtle:ustring.o
 0001:000112e0       _ZN6System13UnicodeString6printfEPKwz 00000001400122e0     rtle:ustring.o
 0001:00011330       _ZN6System13UnicodeString7sprintfEPKwz 0000000140012330     rtle:ustring.o
 0001:00011380       _ZN6System13UnicodeString10cat_printfEPKwz 0000000140012380     rtle:ustring.o
 0001:000113d0       _ZN6System13UnicodeString11cat_sprintfEPKwz 00000001400123d0     rtle:ustring.o
 0001:00011420       _ZN6System13UnicodeString11FloatToStrFEeNS0_18TStringFloatFormatEii 0000000140012420     rtle:ustring.o
 0001:00011470       _ZN6System13UnicodeString8IntToHexEii 0000000140012470     rtle:ustring.o
 0001:000114b0       _ZN6System13UnicodeString9CurrToStrENS_8CurrencyE 00000001400124b0     rtle:ustring.o
 0001:000114e0       _ZN6System13UnicodeString10CurrToStrFENS_8CurrencyENS0_18TStringFloatFormatEi 00000001400124e0     rtle:ustring.o
 0001:00011520       _ZN6System13UnicodeString6UniqueEv 0000000140012520     rtle:ustring.o
 0001:00011550       _ZN6System13UnicodeString7Insert1ERKS0_i 0000000140012550     rtle:ustring.o
 0001:00011590       _ZN6System13UnicodeString7Insert0ERKS0_i 0000000140012590     rtle:ustring.o
 0001:000115d0       _ZN6System13UnicodeString7Delete1Eii 00000001400125d0     rtle:ustring.o
 0001:00011610       _ZN6System13UnicodeString7Delete0Eii 0000000140012610     rtle:ustring.o
 0001:00011640       _ZNK6System13UnicodeString4Pos1ERKS0_ 0000000140012640     rtle:ustring.o
 0001:00011670       _ZNK6System13UnicodeString4Pos0ERKS0_ 0000000140012670     rtle:ustring.o
 0001:000116a0       _ZNK6System13UnicodeString9LowerCaseEv 00000001400126a0     rtle:ustring.o
 0001:000116e0       _ZNK6System13UnicodeString9UpperCaseEv 00000001400126e0     rtle:ustring.o
 0001:00011720       _ZNK6System13UnicodeString4TrimEv 0000000140012720     rtle:ustring.o
 0001:00011760       _ZNK6System13UnicodeString8TrimLeftEv 0000000140012760     rtle:ustring.o
 0001:000117a0       _ZNK6System13UnicodeString9TrimRightEv 00000001400127a0     rtle:ustring.o
 0001:000117e0       _ZNK6System13UnicodeString10SubString1Eii 00000001400127e0     rtle:ustring.o
 0001:000118b0       _ZNK6System13UnicodeString10SubString0Eii 00000001400128b0     rtle:ustring.o
 0001:00011980       _ZNK6System13UnicodeString5ToIntEv 0000000140012980     rtle:ustring.o
 0001:000119a0       _ZNK6System13UnicodeString8ToIntDefEi 00000001400129a0     rtle:ustring.o
 0001:000119d0       _ZNK6System13UnicodeString8ToDoubleEv 00000001400129d0     rtle:ustring.o
 0001:000119f0       _ZNK6System13UnicodeString12IsDelimiter1ERKS0_i 00000001400129f0     rtle:ustring.o
 0001:00011a30       _ZNK6System13UnicodeString12IsDelimiter0ERKS0_i 0000000140012a30     rtle:ustring.o
 0001:00011a70       _ZNK6System13UnicodeString16IsPathDelimiter1Ei 0000000140012a70     rtle:ustring.o
 0001:00011aa0       _ZNK6System13UnicodeString16IsPathDelimiter0Ei 0000000140012aa0     rtle:ustring.o
 0001:00011ad0       _ZNK6System13UnicodeString14LastDelimiter1ERKS0_ 0000000140012ad0     rtle:ustring.o
 0001:00011b00       _ZNK6System13UnicodeString14LastDelimiter0ERKS0_ 0000000140012b00     rtle:ustring.o
 0001:00011b30       _ZNK6System13UnicodeString9ByteType1Ei 0000000140012b30     rtle:ustring.o
 0001:00011b60       _ZNK6System13UnicodeString9ByteType0Ei 0000000140012b60     rtle:ustring.o
 0001:00011ba0       _ZNK6System13UnicodeString16IsLeadSurrogate1Ei 0000000140012ba0     rtle:ustring.o
 0001:00011be0       _ZNK6System13UnicodeString16IsLeadSurrogate0Ei 0000000140012be0     rtle:ustring.o
 0001:00011c10       _ZNK6System13UnicodeString17IsTrailSurrogate1Ei 0000000140012c10     rtle:ustring.o
 0001:00011c50       _ZNK6System13UnicodeString17IsTrailSurrogate0Ei 0000000140012c50     rtle:ustring.o
 0001:00011c80       _ZNK6System13UnicodeString7BytesOfEv 0000000140012c80     rtle:ustring.o
 0001:00011cc0       _ZN6SystemplEPKcRKNS_13UnicodeStringE 0000000140012cc0     rtle:ustring.o
 0001:00011d50       _ZN6SystemplEPKwRKNS_13UnicodeStringE 0000000140012d50     rtle:ustring.o
 0001:00011de0       _ZN6SystemplEPKDsRKNS_13UnicodeStringE 0000000140012de0     rtle:ustring.o
 0001:00011e70       _ZN6SystemplEPKDiRKNS_13UnicodeStringE 0000000140012e70     rtle:ustring.o
 0001:00011f00       _ZNK6System13UnicodeString9FirstCharEv 0000000140012f00     rtle:ustring.o
 0001:00011f10       _ZNK6System13UnicodeString8LastCharEv 0000000140012f10     rtle:ustring.o
 0001:00011f30       _ZN6System13UnicodeString9FirstCharEv 0000000140012f30     rtle:ustring.o
 0001:00011f40       _ZN6System13UnicodeString8LastCharEv 0000000140012f40     rtle:ustring.o
 0001:00011f60       _ZN6System13UnicodeString4swapERS0_ 0000000140012f60     rtle:ustring.o
 0001:00011fa0       _ZN6System9to_stringERNS_13UnicodeStringEb 0000000140012fa0     rtle:ustring.o
 0001:00012010       _ZN6System9to_stringERNS_13UnicodeStringEc 0000000140013010     rtle:ustring.o
 0001:000120c0       _ZN6System9to_stringERNS_13UnicodeStringEa 00000001400130c0     rtle:ustring.o
 0001:00012120       _ZN6System9to_stringERNS_13UnicodeStringEh 0000000140013120     rtle:ustring.o
 0001:00012180       _ZN6System9to_stringERNS_13UnicodeStringEs 0000000140013180     rtle:ustring.o
 0001:000121e0       _ZN6System9to_stringERNS_13UnicodeStringEt 00000001400131e0     rtle:ustring.o
 0001:00012240       _ZN6System9to_stringERNS_13UnicodeStringEi 0000000140013240     rtle:ustring.o
 0001:000122a0       _ZN6System9to_stringERNS_13UnicodeStringEj 00000001400132a0     rtle:ustring.o
 0001:00012300       _ZN6System9to_stringERNS_13UnicodeStringEl 0000000140013300     rtle:ustring.o
 0001:00012370       _ZN6System9to_stringERNS_13UnicodeStringEm 0000000140013370     rtle:ustring.o
 0001:000123d0       _ZN6System9to_stringERNS_13UnicodeStringEw 00000001400133d0     rtle:ustring.o
 0001:00012440       _ZN6System9to_stringERNS_13UnicodeStringEx 0000000140013440     rtle:ustring.o
 0001:000124b0       _ZN6System9to_stringERNS_13UnicodeStringEy 00000001400134b0     rtle:ustring.o
 0001:00012520       _ZN6System9to_stringERNS_13UnicodeStringEf 0000000140013520     rtle:ustring.o
 0001:00012590       _ZN6System9to_stringERNS_13UnicodeStringEfRKNS_8Sysutils15TFormatSettingsE 0000000140013590     rtle:ustring.o
 0001:00012610       _ZN6System9to_stringERNS_13UnicodeStringEd 0000000140013610     rtle:ustring.o
 0001:00012680       _ZN6System9to_stringERNS_13UnicodeStringEdRKNS_8Sysutils15TFormatSettingsE 0000000140013680     rtle:ustring.o
 0001:00012700       _ZN6System9to_stringERNS_13UnicodeStringEe 0000000140013700     rtle:ustring.o
 0001:00012770       _ZN6System9to_stringERNS_13UnicodeStringEeRKNS_8Sysutils15TFormatSettingsE 0000000140013770     rtle:ustring.o
 0001:000127f0       _ZN6System11from_stringERKNS_13UnicodeStringERb 00000001400137f0     rtle:ustring.o
 0001:00012820       _ZN6System11from_stringERKNS_13UnicodeStringERe 0000000140013820     rtle:ustring.o
 0001:00012850       _ZN6System11from_stringERKNS_13UnicodeStringERKNS_8Sysutils15TFormatSettingsERe 0000000140013850     rtle:ustring.o
 0001:00012890       _ZN6System11from_stringERKNS_13UnicodeStringERi 0000000140013890     rtle:ustring.o
 0001:000128c0       _ZN6System11from_stringERKNS_13UnicodeStringERx 00000001400138c0     rtle:ustring.o
 0001:000128f0       _ZN6System11from_stringERKNS_13UnicodeStringERj 00000001400138f0     rtle:ustring.o
 0001:00012920       _ZN6System11from_stringERKNS_13UnicodeStringERy 0000000140013920     rtle:ustring.o
 0001:00012950       _ZN6System13UnicodeString6CreateEwi 0000000140013950     rtle:ustring.o
 0001:00012990       _ZN6System13UnicodeString6CreateEPKwiii 0000000140013990     rtle:ustring.o
 0001:000129e0       _ZN6System13UnicodeString6CreateEPKwi 00000001400139e0     rtle:ustring.o
 0001:00012a20       _ZN6System13UnicodeString7CompareES0_S0_ 0000000140013a20     rtle:ustring.o
 0001:00012ad0       _ZN6System13UnicodeString7CompareES0_S0_j 0000000140013ad0     rtle:ustring.o
 0001:00012b90       _ZN6System13UnicodeString7CompareES0_S0_b 0000000140013b90     rtle:ustring.o
 0001:00012c50       _ZN6System13UnicodeString7CompareES0_S0_bj 0000000140013c50     rtle:ustring.o
 0001:00012d20       _ZN6System13UnicodeString7CompareES0_iS0_ii 0000000140013d20     rtle:ustring.o
 0001:00012e10       _ZN6System13UnicodeString7CompareES0_iS0_iij 0000000140013e10     rtle:ustring.o
 0001:00012f30       _ZN6System13UnicodeString7CompareES0_iS0_iib 0000000140013f30     rtle:ustring.o
 0001:00013050       _ZN6System13UnicodeString7CompareES0_iS0_iibj 0000000140014050     rtle:ustring.o
 0001:000131a0       _ZN6System13UnicodeString14CompareOrdinalES0_S0_ 00000001400141a0     rtle:ustring.o
 0001:00013250       _ZN6System13UnicodeString14CompareOrdinalES0_iS0_ii 0000000140014250     rtle:ustring.o
 0001:00013340       _ZN6System13UnicodeString11CompareTextES0_S0_ 0000000140014340     rtle:ustring.o
 0001:000133f0       _ZN6System13UnicodeString5ParseEi 00000001400143f0     rtle:ustring.o
 0001:00013420       _ZN6System13UnicodeString5ParseEx 0000000140014420     rtle:ustring.o
 0001:00013450       _ZN6System13UnicodeString5ParseEb 0000000140014450     rtle:ustring.o
 0001:00013480       _ZN6System13UnicodeString5ParseEe 0000000140014480     rtle:ustring.o
 0001:000134b0       _ZN6System13UnicodeString9ToBooleanES0_ 00000001400144b0     rtle:ustring.o
 0001:00013510       _ZN6System13UnicodeString9ToIntegerES0_ 0000000140014510     rtle:ustring.o
 0001:00013570       _ZN6System13UnicodeString7ToInt64ES0_ 0000000140014570     rtle:ustring.o
 0001:000135d0       _ZN6System13UnicodeString8ToSingleES0_ 00000001400145d0     rtle:ustring.o
 0001:00013630       _ZN6System13UnicodeString8ToDoubleES0_ 0000000140014630     rtle:ustring.o
 0001:00013690       _ZN6System13UnicodeString10ToExtendedES0_ 0000000140014690     rtle:ustring.o
 0001:000136f0       _ZN6System13UnicodeString9LowerCaseES0_ 00000001400146f0     rtle:ustring.o
 0001:00013760       _ZN6System13UnicodeString9UpperCaseES0_ 0000000140014760     rtle:ustring.o
 0001:000137d0       _ZN6System13UnicodeString9CompareToES0_ 00000001400147d0     rtle:ustring.o
 0001:00013860       _ZN6System13UnicodeString8ContainsES0_ 0000000140014860     rtle:ustring.o
 0001:000138f0       _ZN6System13UnicodeString8ContainsES0_b 00000001400148f0     rtle:ustring.o
 0001:000139a0       _ZN6System13UnicodeString4CopyES0_ 00000001400149a0     rtle:ustring.o
 0001:00013a10       _ZN6System13UnicodeString9CountCharEw 0000000140014a10     rtle:ustring.o
 0001:00013a60       _ZN6System13UnicodeString14DeQuotedStringEv 0000000140014a60     rtle:ustring.o
 0001:00013ac0       _ZN6System13UnicodeString14DeQuotedStringEw 0000000140014ac0     rtle:ustring.o
 0001:00013b30       _ZN6System13UnicodeString8EndsTextES0_S0_ 0000000140014b30     rtle:ustring.o
 0001:00013be0       _ZN6System13UnicodeString8EndsWithES0_ 0000000140014be0     rtle:ustring.o
 0001:00013c70       _ZN6System13UnicodeString8EndsWithES0_b 0000000140014c70     rtle:ustring.o
 0001:00013d20       _ZN6System13UnicodeString6EqualsES0_ 0000000140014d20     rtle:ustring.o
 0001:00013db0       _ZN6System13UnicodeString6EqualsES0_S0_ 0000000140014db0     rtle:ustring.o
 0001:00013e60       _ZN6System13UnicodeString11GetHashCodeEv 0000000140014e60     rtle:ustring.o
 0001:00013eb0       _ZN6System13UnicodeString7IndexOfEw 0000000140014eb0     rtle:ustring.o
 0001:00013f00       _ZN6System13UnicodeString7IndexOfES0_ 0000000140014f00     rtle:ustring.o
 0001:00013f90       _ZN6System13UnicodeString7IndexOfEwi 0000000140014f90     rtle:ustring.o
 0001:00013ff0       _ZN6System13UnicodeString7IndexOfES0_i 0000000140014ff0     rtle:ustring.o
 0001:00014090       _ZN6System13UnicodeString7IndexOfEwii 0000000140015090     rtle:ustring.o
 0001:00014100       _ZN6System13UnicodeString7IndexOfES0_ii 0000000140015100     rtle:ustring.o
 0001:000141c0       _ZN6System13UnicodeString10IndexOfAnyEPKwi 00000001400151c0     rtle:ustring.o
 0001:00014220       _ZN6System13UnicodeString10IndexOfAnyEPKwii 0000000140015220     rtle:ustring.o
 0001:00014290       _ZN6System13UnicodeString10IndexOfAnyEPKwiii 0000000140015290     rtle:ustring.o
 0001:00014310       _ZN6System13UnicodeString18IndexOfAnyUnquotedEPKwiww 0000000140015310     rtle:ustring.o
 0001:00014390       _ZN6System13UnicodeString18IndexOfAnyUnquotedEPKwiwwi 0000000140015390     rtle:ustring.o
 0001:00014420       _ZN6System13UnicodeString18IndexOfAnyUnquotedEPKwiwwii 0000000140015420     rtle:ustring.o
 0001:000144d0       _ZN6System13UnicodeString13IsNullOrEmptyES0_ 00000001400154d0     rtle:ustring.o
 0001:00014530       _ZN6System13UnicodeString18IsNullOrWhiteSpaceES0_ 0000000140015530     rtle:ustring.o
 0001:00014590       _ZN6System13UnicodeString4JoinES0_PKNS_7TVarRecEi 0000000140015590     rtle:ustring.o
 0001:00014630       _ZN6System13UnicodeString4JoinES0_PKS0_i 0000000140015630     rtle:ustring.o
 0001:000146d0       _ZN6System13UnicodeString4JoinES0_NS_15DelphiInterfaceINS_14IEnumerator__1IS0_EEEE 00000001400156d0     rtle:ustring.o
 0001:00014790       _ZN6System13UnicodeString4JoinES0_NS_15DelphiInterfaceINS_14IEnumerable__1IS0_EEEE 0000000140015790     rtle:ustring.o
 0001:00014850       _ZN6System13UnicodeString4JoinES0_PKS0_iii 0000000140015850     rtle:ustring.o
 0001:00014920       _ZN6System13UnicodeString7PadLeftEi 0000000140015920     rtle:ustring.o
 0001:00014990       _ZN6System13UnicodeString7PadLeftEiw 0000000140015990     rtle:ustring.o
 0001:00014a10       _ZN6System13UnicodeString8PadRightEi 0000000140015a10     rtle:ustring.o
 0001:00014a80       _ZN6System13UnicodeString8PadRightEiw 0000000140015a80     rtle:ustring.o
 0001:00014b00       _ZN6System13UnicodeString12QuotedStringEv 0000000140015b00     rtle:ustring.o
 0001:00014b60       _ZN6System13UnicodeString12QuotedStringEw 0000000140015b60     rtle:ustring.o
 0001:00014bd0       _ZN6System13UnicodeString7ReplaceEww 0000000140015bd0     rtle:ustring.o
 0001:00014c50       _ZN6System13UnicodeString7ReplaceES0_S0_ 0000000140015c50     rtle:ustring.o
 0001:00014d40       _ZN6System13UnicodeString5SplitEPKwi 0000000140015d40     rtle:ustring.o
 0001:00014dc0       _ZN6System13UnicodeString5SplitEPKwii 0000000140015dc0     rtle:ustring.o
 0001:00014e50       _ZN6System13UnicodeString5SplitEPKS0_i 0000000140015e50     rtle:ustring.o
 0001:00014ed0       _ZN6System13UnicodeString5SplitEPKS0_ii 0000000140015ed0     rtle:ustring.o
 0001:00014f60       _ZN6System13UnicodeString5SplitEPKwiw 0000000140015f60     rtle:ustring.o
 0001:00014ff0       _ZN6System13UnicodeString5SplitEPKwiww 0000000140015ff0     rtle:ustring.o
 0001:00015090       _ZN6System13UnicodeString5SplitEPKwiwwi 0000000140016090     rtle:ustring.o
 0001:00015150       _ZN6System13UnicodeString5SplitEPKS0_iw 0000000140016150     rtle:ustring.o
 0001:000151e0       _ZN6System13UnicodeString5SplitEPKS0_iww 00000001400161e0     rtle:ustring.o
 0001:00015280       _ZN6System13UnicodeString5SplitEPKS0_iwwi 0000000140016280     rtle:ustring.o
 0001:00015340       _ZN6System13UnicodeString10StartsTextES0_S0_ 0000000140016340     rtle:ustring.o
 0001:000153f0       _ZN6System13UnicodeString10StartsWithES0_ 00000001400163f0     rtle:ustring.o
 0001:00015480       _ZN6System13UnicodeString10StartsWithES0_b 0000000140016480     rtle:ustring.o
 0001:00015530       _ZN6System13UnicodeString9ToBooleanEv 0000000140016530     rtle:ustring.o
 0001:00015580       _ZN6System13UnicodeString9ToIntegerEv 0000000140016580     rtle:ustring.o
 0001:000155d0       _ZN6System13UnicodeString7ToInt64Ev 00000001400165d0     rtle:ustring.o
 0001:00015620       _ZN6System13UnicodeString8ToSingleEv 0000000140016620     rtle:ustring.o
 0001:00015670       _ZN6System13UnicodeString8ToDoubleEv 0000000140016670     rtle:ustring.o
 0001:000156c0       _ZN6System13UnicodeString10ToExtendedEv 00000001400166c0     rtle:ustring.o
 0001:00015710       _ZN6System13UnicodeString11ToCharArrayEv 0000000140016710     rtle:ustring.o
 0001:00015770       _ZN6System13UnicodeString11ToCharArrayEii 0000000140016770     rtle:ustring.o
 0001:000157f0       _ZN6System13UnicodeString7ToLowerEv 00000001400167f0     rtle:ustring.o
 0001:00015850       _ZN6System13UnicodeString7ToLowerEj 0000000140016850     rtle:ustring.o
 0001:000158c0       _ZN6System13UnicodeString16ToLowerInvariantEv 00000001400168c0     rtle:ustring.o
 0001:00015920       _ZN6System13UnicodeString7ToUpperEv 0000000140016920     rtle:ustring.o
 0001:00015980       _ZN6System13UnicodeString7ToUpperEj 0000000140016980     rtle:ustring.o
 0001:000159f0       _ZN6System13UnicodeString16ToUpperInvariantEv 00000001400169f0     rtle:ustring.o
 0001:00015a50       _ZN6System13UnicodeString7TrimEndEPKwi 0000000140016a50     rtle:ustring.o
 0001:00015ad0       _ZN6System13UnicodeString9TrimStartEPKwi 0000000140016ad0     rtle:ustring.o
 0001:00015c10       _ZN6System8Sysutils11ERangeErrorC3ENS_13UnicodeStringE 0000000140016c10     rtle:ustring.o
 0001:00015ce0       _ZN6System8Sysutils11ERangeErrorD0Ev 0000000140016ce0     rtle:ustring.o
 0001:00015d30       _ZN6System11WideCharLenIwEEiPKT_ 0000000140016d30     rtle:ustring.o
 0001:00015d80       _ZN6System11WideCharLenIDsEEiPKT_ 0000000140016d80     rtle:ustring.o
 0001:00015dd0       _ZN6System11AnsiStringTILt0EEC2EPKci 0000000140016dd0     rtle:ustring.o
 0001:00015e30       _ZN6System11AnsiStringTILt0EED2Ev 0000000140016e30     rtle:ustring.o
 0001:00015f00       _ZN6System11AnsiStringTILt0EEC2Ev 0000000140016f00     rtle:ustring.o
 0001:00015f30       _ZN6System13UnicodeStringC2ILt0EEERKNS_11AnsiStringTIXT_EEE 0000000140016f30     rtle:ustring.o
 0001:00015f60       _ZN6System15DelphiInterfaceINS_14IEnumerator__1INS_13UnicodeStringEEEEC2ERKS4_ 0000000140016f60     rtle:ustring.o
 0001:00015fb0       _ZN6System15DelphiInterfaceINS_14IEnumerator__1INS_13UnicodeStringEEEED2Ev 0000000140016fb0     rtle:ustring.o
 0001:000160a0       _ZN6System15DelphiInterfaceINS_14IEnumerable__1INS_13UnicodeStringEEEEC2ERKS4_ 00000001400170a0     rtle:ustring.o
 0001:000160f0       _ZN6System15DelphiInterfaceINS_14IEnumerable__1INS_13UnicodeStringEEEED2Ev 00000001400170f0     rtle:ustring.o
 0001:000161e0       _ZN6System8Sysutils9EIntErrorC3ENS_13UnicodeStringE 00000001400171e0     rtle:ustring.o
 0001:000162b0       _ZN6System8Sysutils9EExternalC3ENS_13UnicodeStringE 00000001400172b0     rtle:ustring.o
 0001:00016380       _ZN6System8Sysutils9EIntErrorD0Ev 0000000140017380     rtle:ustring.o
 0001:000163d0       _ZN6System8Sysutils9EExternalD0Ev 00000001400173d0     rtle:ustring.o
 0001:00016420       _ZN6System11AnsiStringTILt0EEC2ERKS1_ 0000000140017420     rtle:ustring.o
 0001:00016450       _ZN6System15DelphiInterfaceINS_14IEnumerator__1INS_13UnicodeStringEEEEC2Ev 0000000140017450     rtle:ustring.o
 0001:00016470       _ZN6System15DelphiInterfaceINS_14IEnumerable__1INS_13UnicodeStringEEEEC2Ev 0000000140017470     rtle:ustring.o
 0001:00016490       __ClassCreate              0000000140017490     rtle:classcre64.o
 0001:0001649b       __ClassDestroy             000000014001749b     rtle:classcre64.o
 0001:000164a1       __AfterConstruction        00000001400174a1     rtle:classcre64.o
 0001:000164aa       __BeforeDestruction        00000001400174aa     rtle:classcre64.o
 0001:000164bc       __currMul__                00000001400174bc     rtle:classcre64.o
 0001:000164e0       fprintf                    00000001400174e0     libucrt:lib64_libucrt_extra_a-ucrt_fprintf.o
 0001:00016540       free                       0000000140017540     libmingw32:lib64_libmingw32_a-free.o
 0001:00016580       _aligned_free              0000000140017580     libmingw32:lib64_libmingw32_a-_aligned_free.o
 0001:000165d0       _aligned_malloc            00000001400175d0     libmingw32:lib64_libmingw32_a-_aligned_malloc.o
 0001:000166a0       ___w64_mingwthr_add_key_dtor 00000001400176a0     libmingw32:lib64_libmingw32_a-tlsthrd.o
 0001:00016750       ___w64_mingwthr_remove_key_dtor 0000000140017750     libmingw32:lib64_libmingw32_a-tlsthrd.o
 0001:00016820       __mingw_TLScallback        0000000140017820     libmingw32:lib64_libmingw32_a-tlsthrd.o
 0001:00016990       _ValidateImageBase         0000000140017990     libmingw32:lib64_libmingw32_a-pesect.o
 0001:00016a20       _FindPESection             0000000140017a20     libmingw32:lib64_libmingw32_a-pesect.o
 0001:00016af0       _FindPESectionByName       0000000140017af0     libmingw32:lib64_libmingw32_a-pesect.o
 0001:00016be0       __mingw_GetSectionForAddress 0000000140017be0     libmingw32:lib64_libmingw32_a-pesect.o
 0001:00016c40       __mingw_GetSectionCount    0000000140017c40     libmingw32:lib64_libmingw32_a-pesect.o
 0001:00016ca0       _FindPESectionExec         0000000140017ca0     libmingw32:lib64_libmingw32_a-pesect.o
 0001:00016d80       _GetPEImageBase            0000000140017d80     libmingw32:lib64_libmingw32_a-pesect.o
 0001:00016dc0       _IsNonwritableInCurrentImage 0000000140017dc0     libmingw32:lib64_libmingw32_a-pesect.o
 0001:00016e50       __mingw_enum_import_library_names 0000000140017e50     libmingw32:lib64_libmingw32_a-pesect.o
 0001:00016f70       ___chkstk_ms               0000000140017f70     libclang_rt.builtins-x86_64:chkstk.S.obj
 0001:00016fa0       vfprintf                   0000000140017fa0     libucrt:lib64_libucrt_extra_a-ucrt_vfprintf.o
 0001:00016fe0       _init_crt_memory_manager   0000000140017fe0     libmingw32:lib64_libmingw32_a-crtmm_init.o
 0001:00017040       strdup                     0000000140018040     libmingw32:lib64_libmingw32_a-_strdup.o
 0001:00017040       _strdup                    0000000140018040     libmingw32:lib64_libmingw32_a-_strdup.o
 0001:000170e0       _ZNK6System14AnsiStringBase6GetRecEv 00000001400180e0     rtle:dstring.o
 0001:00017100       _ZN6System14AnsiStringBase6GetRecEv 0000000140018100     rtle:dstring.o
 0001:00017120       _ZNK6System14AnsiStringBase6LengthEv 0000000140018120     rtle:dstring.o
 0001:00017160       _ZNK6System14AnsiStringBase17ThrowIfOutOfRangeEi 0000000140018160     rtle:dstring.o
 0001:00017240       _ZN6System14AnsiStringBaseC2EPKci 0000000140018240     rtle:dstring.o
 0001:00017240       _ZN6System14AnsiStringBaseC1EPKci 0000000140018240     rtle:dstring.o
 0001:000172b0       _ZN6System14AnsiStringBaseC2ERKS0_ 00000001400182b0     rtle:dstring.o
 0001:000172b0       _ZN6System14AnsiStringBaseC1ERKS0_ 00000001400182b0     rtle:dstring.o
 0001:00017320       _ZN6System14AnsiStringBaseC2ERKNS_10WideStringEi 0000000140018320     rtle:dstring.o
 0001:00017320       _ZN6System14AnsiStringBaseC1ERKNS_10WideStringEi 0000000140018320     rtle:dstring.o
 0001:00017390       _ZN6System14AnsiStringBaseC2ERKNS_13UnicodeStringEi 0000000140018390     rtle:dstring.o
 0001:00017390       _ZN6System14AnsiStringBaseC1ERKNS_13UnicodeStringEi 0000000140018390     rtle:dstring.o
 0001:00017400       _ZN6System14AnsiStringBaseC2EPKcii 0000000140018400     rtle:dstring.o
 0001:00017400       _ZN6System14AnsiStringBaseC1EPKcii 0000000140018400     rtle:dstring.o
 0001:00017480       _ZN6System14AnsiStringBase9SetLengthEii 0000000140018480     rtle:dstring.o
 0001:000174e0       _ZN6System14AnsiStringBase15_AnsiFromPWCharERS0_PKwii 00000001400184e0     rtle:dstring.o
 0001:00017560       _ZN6System14AnsiStringBaseC2EPKwii 0000000140018560     rtle:dstring.o
 0001:00017560       _ZN6System14AnsiStringBaseC1EPKwii 0000000140018560     rtle:dstring.o
 0001:000175c0       _ZN6System14AnsiStringBaseC2EPKDsii 00000001400185c0     rtle:dstring.o
 0001:000175c0       _ZN6System14AnsiStringBaseC1EPKDsii 00000001400185c0     rtle:dstring.o
 0001:00017620       _ZN6System14AnsiStringBaseC2EPKDiii 0000000140018620     rtle:dstring.o
 0001:00017620       _ZN6System14AnsiStringBaseC1EPKDiii 0000000140018620     rtle:dstring.o
 0001:00017710       _ZN6System14AnsiStringBaseaSERKS0_ 0000000140018710     rtle:dstring.o
 0001:00017740       _ZN6System14AnsiStringBaseC2Ewi 0000000140018740     rtle:dstring.o
 0001:00017740       _ZN6System14AnsiStringBaseC1Ewi 0000000140018740     rtle:dstring.o
 0001:000177b0       _ZN6System14AnsiStringBaseC2EDii 00000001400187b0     rtle:dstring.o
 0001:000177b0       _ZN6System14AnsiStringBaseC1EDii 00000001400187b0     rtle:dstring.o
 0001:00017890       _ZN6System14AnsiStringBaseC2Edi 0000000140018890     rtle:dstring.o
 0001:00017890       _ZN6System14AnsiStringBaseC1Edi 0000000140018890     rtle:dstring.o
 0001:00017970       _ZN6System14AnsiStringBaseD2Ev 0000000140018970     rtle:dstring.o
 0001:00017970       _ZN6System14AnsiStringBaseD1Ev 0000000140018970     rtle:dstring.o
 0001:000179a0       _ZN6System14AnsiStringBase8_AnsiCatERS0_RKS0_ 00000001400189a0     rtle:dstring.o
 0001:000179d0       _ZN6System14AnsiStringBase8_AnsiCatERS0_RKS0_S3_ 00000001400189d0     rtle:dstring.o
 0001:00017a10       _ZNK6System14AnsiStringBaseeqERKS0_ 0000000140018a10     rtle:dstring.o
 0001:00017a40       _ZNK6System14AnsiStringBase11AnsiCompareERKS0_ 0000000140018a40     rtle:dstring.o
 0001:00017ab0       _ZNK6System14AnsiStringBaseneERKS0_ 0000000140018ab0     rtle:dstring.o
 0001:00017ae0       _ZNK6System14AnsiStringBaseltERKS0_ 0000000140018ae0     rtle:dstring.o
 0001:00017b10       _ZNK6System14AnsiStringBasegtERKS0_ 0000000140018b10     rtle:dstring.o
 0001:00017b40       _ZNK6System14AnsiStringBase13AnsiCompareICERKS0_ 0000000140018b40     rtle:dstring.o
 0001:00017b70       _ZN6System14AnsiStringBase12StringOfCharEci 0000000140018b70     rtle:dstring.o
 0001:00017c20       _ZN6System14AnsiStringBase7LoadStrEii 0000000140018c20     rtle:dstring.o
 0001:00017cd0       _ZN6System14AnsiStringBase7LoadStrEP11HINSTANCE__ii 0000000140018cd0     rtle:dstring.o
 0001:00017d60       _ZN6System14AnsiStringBase11LoadStringAEP11HINSTANCE__ii 0000000140018d60     rtle:dstring.o
 0001:00017f00       _ZN6System14AnsiStringBase10FmtLoadStrEiPKNS_7TVarRecEii 0000000140018f00     rtle:dstring.o
 0001:00017fe0       _ZN6System14AnsiStringBase6FormatERKS0_PKNS_7TVarRecEii 0000000140018fe0     rtle:dstring.o
 0001:000180c0       _ZN6System14AnsiStringBase11FormatFloatERKS0_RKei 00000001400190c0     rtle:dstring.o
 0001:000181b0       _ZN6System14AnsiStringBase7vprintfEiPKcPc 00000001400191b0     rtle:dstring.o
 0001:00018240       _ZN6System14AnsiStringBase11cat_vprintfEiPKcPc 0000000140019240     rtle:dstring.o
 0001:000182f0       _ZN6System14AnsiStringBase11FloatToStrFEeNS0_18TStringFloatFormatEiii 00000001400192f0     rtle:dstring.o
 0001:000183f0       _ZN6System14AnsiStringBase8IntToHexEiii 00000001400193f0     rtle:dstring.o
 0001:000184b0       _ZN6System14AnsiStringBase9CurrToStrERKNS_8CurrencyEi 00000001400194b0     rtle:dstring.o
 0001:00018560       _ZN6System14AnsiStringBase10CurrToStrFERKNS_8CurrencyENS0_18TStringFloatFormatEii 0000000140019560     rtle:dstring.o
 0001:00018640       _ZNK6System14AnsiStringBase15WideCharBufSizeEi 0000000140019640     rtle:dstring.o
 0001:000186c0       _ZNK6System14AnsiStringBase8WideCharEPwii 00000001400196c0     rtle:dstring.o
 0001:00018740       _ZN6System14AnsiStringBase7Insert1ERKS0_i 0000000140019740     rtle:dstring.o
 0001:00018780       _ZN6System14AnsiStringBase7Insert0ERKS0_i 0000000140019780     rtle:dstring.o
 0001:00018970       _ZN6System14AnsiStringBase4swapERS0_ 0000000140019970     rtle:dstring.o
 0001:000189b0       _ZN6System14AnsiStringBase7Delete1Eii 00000001400199b0     rtle:dstring.o
 0001:000189f0       _ZN6System14AnsiStringBase7Delete0Eii 00000001400199f0     rtle:dstring.o
 0001:00018bb0       _ZNK6System14AnsiStringBase4Pos1ERKS0_ 0000000140019bb0     rtle:dstring.o
 0001:00018be0       _ZNK6System14AnsiStringBase4Pos0ERKS0_ 0000000140019be0     rtle:dstring.o
 0001:00018c10       _ZNK6System14AnsiStringBase9LowerCaseEi 0000000140019c10     rtle:dstring.o
 0001:00018cc0       _ZNK6System14AnsiStringBase9UpperCaseEi 0000000140019cc0     rtle:dstring.o
 0001:00018d70       _ZNK6System14AnsiStringBase4TrimEi 0000000140019d70     rtle:dstring.o
 0001:00018e20       _ZNK6System14AnsiStringBase8TrimLeftEi 0000000140019e20     rtle:dstring.o
 0001:00018ed0       _ZNK6System14AnsiStringBase9TrimRightEi 0000000140019ed0     rtle:dstring.o
 0001:00018f80       _ZNK6System14AnsiStringBase10SubString1Eii 0000000140019f80     rtle:dstring.o
 0001:00019060       _ZNK6System14AnsiStringBase10SubString0Eii 000000014001a060     rtle:dstring.o
 0001:000190b0       _ZNK6System14AnsiStringBase5ToIntEv 000000014001a0b0     rtle:dstring.o
 0001:00019120       _ZNK6System14AnsiStringBase8ToIntDefEi 000000014001a120     rtle:dstring.o
 0001:00019190       _ZNK6System14AnsiStringBase8ToDoubleEv 000000014001a190     rtle:dstring.o
 0001:00019200       _ZNK6System14AnsiStringBase12IsDelimiter1ERKS0_i 000000014001a200     rtle:dstring.o
 0001:00019240       _ZNK6System14AnsiStringBase12IsDelimiter0ERKS0_i 000000014001a240     rtle:dstring.o
 0001:00019300       _ZNK6System14AnsiStringBase8AnsiPos1ERKS0_ 000000014001a300     rtle:dstring.o
 0001:00019330       _ZNK6System14AnsiStringBase8AnsiPos0ERKS0_ 000000014001a330     rtle:dstring.o
 0001:00019360       _ZNK6System14AnsiStringBase16IsPathDelimiter1Ei 000000014001a360     rtle:dstring.o
 0001:00019390       _ZNK6System14AnsiStringBase16IsPathDelimiter0Ei 000000014001a390     rtle:dstring.o
 0001:000193c0       _ZNK6System14AnsiStringBase14LastDelimiter1ERKS0_ 000000014001a3c0     rtle:dstring.o
 0001:000193f0       _ZNK6System14AnsiStringBase14LastDelimiter0ERKS0_ 000000014001a3f0     rtle:dstring.o
 0001:000194b0       _ZNK6System14AnsiStringBase9ByteType1Ei 000000014001a4b0     rtle:dstring.o
 0001:000194e0       _ZNK6System14AnsiStringBase9ByteType0Ei 000000014001a4e0     rtle:dstring.o
 0001:00019510       _ZNK6System14AnsiStringBase11IsLeadByte1Ei 000000014001a510     rtle:dstring.o
 0001:00019550       _ZNK6System14AnsiStringBase11IsLeadByte0Ei 000000014001a550     rtle:dstring.o
 0001:00019580       _ZNK6System14AnsiStringBase12IsTrailByte1Ei 000000014001a580     rtle:dstring.o
 0001:000195c0       _ZNK6System14AnsiStringBase12IsTrailByte0Ei 000000014001a5c0     rtle:dstring.o
 0001:000195f0       _ZNK6System14AnsiStringBase7BytesOfEv 000000014001a5f0     rtle:dstring.o
 0001:00019630       _ZNK6System14AnsiStringBase12AnsiLastCharEv 000000014001a630     rtle:dstring.o
 0001:00019690       _ZN6System8_CharLenIwEEiPKT_ 000000014001a690     rtle:dstring.o
 0001:000196e0       _ZN6System8_CharLenIDsEEiPKT_ 000000014001a6e0     rtle:dstring.o
 0001:00019730       _ZN6System14AnsiStringBaseC2ILt0EEEONS_11AnsiStringTIXT_EEE 000000014001a730     rtle:dstring.o
 0001:00019760       _ZNK6System14AnsiStringBase8CodePageEv 000000014001a760     rtle:dstring.o
 0001:000197b0       _ZNK6System14AnsiStringBaseixEi 000000014001a7b0     rtle:dstring.o
 0001:000197f0       sprintf                    000000014001a7f0     libucrt:lib64_libucrt_extra_a-ucrt_sprintf.o
 0001:00019860       _ZN6System8Internal7Strhlpr15UnicodeFromAnsiERNS_13UnicodeStringERNS_11AnsiStringTILt65535EEE 000000014001a860     rtl:System.Internal.StrHlpr.o
 0001:00019880       _ZN6System8Internal7Strhlpr16UnicodeFromPCharERNS_13UnicodeStringEPcb 000000014001a880     rtl:System.Internal.StrHlpr.o
 0001:00019910       _ZN6System8Internal7Strhlpr15UnicodeFromUTF8ERNS_13UnicodeStringEPKc 000000014001a910     rtl:System.Internal.StrHlpr.o
 0001:00019920       _ZN6System8Internal7Strhlpr20UnicodeFromPWideCharERNS_13UnicodeStringEPw 000000014001a920     rtl:System.Internal.StrHlpr.o
 0001:00019940       _ZN6System8Internal7Strhlpr13UnicodeAppendERNS_13UnicodeStringES3_ 000000014001a940     rtl:System.Internal.StrHlpr.o
 0001:00019960       _ZN6System8Internal7Strhlpr10UnicodeCatERNS_13UnicodeStringES3_ 000000014001a960     rtl:System.Internal.StrHlpr.o
 0001:00019980       _ZN6System8Internal7Strhlpr13UnicodeDeleteERNS_13UnicodeStringEii 000000014001a980     rtl:System.Internal.StrHlpr.o
 0001:00019990       _ZN6System8Internal7Strhlpr16UnicodeSetLengthERNS_13UnicodeStringEi 000000014001a990     rtl:System.Internal.StrHlpr.o
 0001:000199a0       _ZN6System8Internal7Strhlpr10UnicodePosERNS_13UnicodeStringES3_ 000000014001a9a0     rtl:System.Internal.StrHlpr.o
 0001:000199c0       _ZN6System8Internal7Strhlpr11UnicodeCopyERNS_13UnicodeStringEii 000000014001a9c0     rtl:System.Internal.StrHlpr.o
 0001:000199e0       _ZN6System8Internal7Strhlpr13UnicodeInsertERNS_13UnicodeStringES3_i 000000014001a9e0     rtl:System.Internal.StrHlpr.o
 0001:00019a00       _ZN6System8Internal7Strhlpr13UnicodeAssignERNS_13UnicodeStringES3_ 000000014001aa00     rtl:System.Internal.StrHlpr.o
 0001:00019a20       _ZN6System8Internal7Strhlpr11UnicodeFreeERNS_13UnicodeStringE 000000014001aa20     rtl:System.Internal.StrHlpr.o
 0001:00019a30       _ZN6System8Internal7Strhlpr12UnicodeEqualERNS_13UnicodeStringES3_ 000000014001aa30     rtl:System.Internal.StrHlpr.o
 0001:00019a50       _ZN6System8Internal7Strhlpr11UnicodeLessERNS_13UnicodeStringES3_ 000000014001aa50     rtl:System.Internal.StrHlpr.o
 0001:00019a70       _ZN6System8Internal7Strhlpr14UnicodeGreaterERNS_13UnicodeStringES3_ 000000014001aa70     rtl:System.Internal.StrHlpr.o
 0001:00019a90       _ZN6System8Internal7Strhlpr10AnsiAppendERNS_11AnsiStringTILt65535EEES4_ 000000014001aa90     rtl:System.Internal.StrHlpr.o
 0001:00019ab0       _ZN6System8Internal7Strhlpr7AnsiCatERNS_11AnsiStringTILt65535EEES4_ 000000014001aab0     rtl:System.Internal.StrHlpr.o
 0001:00019ad0       _ZN6System8Internal7Strhlpr10AnsiDeleteERNS_11AnsiStringTILt65535EEEii 000000014001aad0     rtl:System.Internal.StrHlpr.o
 0001:00019ae0       _ZN6System8Internal7Strhlpr13AnsiSetLengthERNS_11AnsiStringTILt65535EEEi 000000014001aae0     rtl:System.Internal.StrHlpr.o
 0001:00019b00       _ZN6System8Internal7Strhlpr7AnsiPosERNS_11AnsiStringTILt65535EEES4_ 000000014001ab00     rtl:System.Internal.StrHlpr.o
 0001:00019b20       _ZN6System8Internal7Strhlpr8AnsiCopyERNS_11AnsiStringTILt65535EEEii 000000014001ab20     rtl:System.Internal.StrHlpr.o
 0001:00019b40       _ZN6System8Internal7Strhlpr10AnsiInsertERNS_11AnsiStringTILt65535EEES4_i 000000014001ab40     rtl:System.Internal.StrHlpr.o
 0001:00019b60       _ZN6System8Internal7Strhlpr9AnsiEqualERNS_11AnsiStringTILt65535EEES4_ 000000014001ab60     rtl:System.Internal.StrHlpr.o
 0001:00019b80       _ZN6System8Internal7Strhlpr11AnsiGreaterERNS_11AnsiStringTILt65535EEES4_ 000000014001ab80     rtl:System.Internal.StrHlpr.o
 0001:00019ba0       _ZN6System8Internal7Strhlpr8AnsiLessERNS_11AnsiStringTILt65535EEES4_ 000000014001aba0     rtl:System.Internal.StrHlpr.o
 0001:00019bc0       _ZN6System8Internal7Strhlpr10AnsiAssignERNS_11AnsiStringTILt65535EEES4_ 000000014001abc0     rtl:System.Internal.StrHlpr.o
 0001:00019be0       _ZN6System8Internal7Strhlpr8AnsiFreeERNS_11AnsiStringTILt65535EEE 000000014001abe0     rtl:System.Internal.StrHlpr.o
 0001:00019bf0       _ZN6System8Internal7Strhlpr10WideAssignERNS_10WideStringES3_ 000000014001abf0     rtl:System.Internal.StrHlpr.o
 0001:00019c10       _ZN6System8Internal7Strhlpr8WideFreeERNS_10WideStringE 000000014001ac10     rtl:System.Internal.StrHlpr.o
 0001:00019c20       _ZN6System8Internal7Strhlpr12WideFromAnsiERNS_10WideStringERNS_11AnsiStringTILt65535EEE 000000014001ac20     rtl:System.Internal.StrHlpr.o
 0001:00019c40       _ZN6System8Internal7Strhlpr15WideFromUnicodeERNS_10WideStringERNS_13UnicodeStringE 000000014001ac40     rtl:System.Internal.StrHlpr.o
 0001:00019c60       _ZN6System8Internal7Strhlpr13WideFromPCharERNS_10WideStringEPcb 000000014001ac60     rtl:System.Internal.StrHlpr.o
 0001:00019cf0       _ZN6System8Internal7Strhlpr9WideEqualERNS_10WideStringES3_ 000000014001acf0     rtl:System.Internal.StrHlpr.o
 0001:00019d10       _ZN6System8Internal7Strhlpr8WideLessERNS_10WideStringES3_ 000000014001ad10     rtl:System.Internal.StrHlpr.o
 0001:00019d30       _ZN6System8Internal7Strhlpr11WideGreaterERNS_10WideStringES3_ 000000014001ad30     rtl:System.Internal.StrHlpr.o
 0001:00019d50       _ZN6System8Internal7Strhlpr7WideCatERNS_10WideStringES3_ 000000014001ad50     rtl:System.Internal.StrHlpr.o
 0001:00019d70       _ZN6System8Internal7Strhlpr10WideLengthERNS_10WideStringE 000000014001ad70     rtl:System.Internal.StrHlpr.o
 0001:00019d90       _ZN6System8Internal7Strhlpr7WidePosERNS_10WideStringES3_ 000000014001ad90     rtl:System.Internal.StrHlpr.o
 0001:00019db0       _ZN6System8Internal7Strhlpr13WideSetLengthERNS_10WideStringEi 000000014001adb0     rtl:System.Internal.StrHlpr.o
 0001:00019dc0       _ZN6System8Internal7Strhlpr10WideDeleteERNS_10WideStringEii 000000014001adc0     rtl:System.Internal.StrHlpr.o
 0001:00019dd0       _ZN6System8Internal7Strhlpr10WideInsertERNS_10WideStringES3_i 000000014001add0     rtl:System.Internal.StrHlpr.o
 0001:00019df0       _ZN6System8Internal7Strhlpr8WideCopyERNS_10WideStringEii 000000014001adf0     rtl:System.Internal.StrHlpr.o
 0001:00019e10       _ZN6System8Internal7Strhlpr10WideAppendERNS_10WideStringES3_ 000000014001ae10     rtl:System.Internal.StrHlpr.o
 0001:00019e30       _ZN6System8Internal7Strhlpr12WideFromUTF8ERNS_10WideStringEPKc 000000014001ae30     rtl:System.Internal.StrHlpr.o
 0001:00019ea0       _ZN6System8Internal7Strhlpr15UnicodeFromWideERNS_13UnicodeStringERNS_10WideStringE 000000014001aea0     rtl:System.Internal.StrHlpr.o
 0001:00019ec0       _ZN6System8Internal7Strhlpr12FinalizationEv 000000014001aec0     rtl:System.Internal.StrHlpr.o
 0001:00019ed0       _ZN6System8Internal7Strhlpr14initializationEv 000000014001aed0     rtl:System.Internal.StrHlpr.o
 0001:00019ee0       vsnwprintf                 000000014001aee0     libucrt:lib64_libucrt_extra_a-ucrt_vsnwprintf.o
 0001:00019f40       _ZN6System8Internal10Helperhlpr9TGUIDHlprC1ER5_GUID 000000014001af40     rtl:System.Internal.HelperHlpr.o
 0001:00019f50       _ZN6System8Internal10Helperhlpr9TGUIDHlprC1ERK5_GUID 000000014001af50     rtl:System.Internal.HelperHlpr.o
 0001:00019f60       _ZN6System8Internal10Helperhlpr9TGUIDHlpr6CreateEPKvNS_5Types7TEndianE 000000014001af60     rtl:System.Internal.HelperHlpr.o
 0001:00019f90       _ZN6System8Internal10Helperhlpr9TGUIDHlpr6CreateENS_12DynamicArrayIhEENS_5Types7TEndianE 000000014001af90     rtl:System.Internal.HelperHlpr.o
 0001:00019fc0       _ZN6System8Internal10Helperhlpr9TGUIDHlpr6CreateENS_12DynamicArrayIhEEjNS_5Types7TEndianE 000000014001afc0     rtl:System.Internal.HelperHlpr.o
 0001:00019fe0       _ZN6System8Internal10Helperhlpr9TGUIDHlpr6CreateENS_13UnicodeStringE 000000014001afe0     rtl:System.Internal.HelperHlpr.o
 0001:0001a000       _ZN6System8Internal10Helperhlpr9TGUIDHlpr6CreateEissNS_12DynamicArrayIhEE 000000014001b000     rtl:System.Internal.HelperHlpr.o
 0001:0001a030       _ZN6System8Internal10Helperhlpr9TGUIDHlpr6CreateEisshhhhhhhh 000000014001b030     rtl:System.Internal.HelperHlpr.o
 0001:0001a0c0       _ZN6System8Internal10Helperhlpr9TGUIDHlpr6CreateEjtthhhhhhhh 000000014001b0c0     rtl:System.Internal.HelperHlpr.o
 0001:0001a150       _ZN6System8Internal10Helperhlpr9TGUIDHlpr7NewGuidEv 000000014001b150     rtl:System.Internal.HelperHlpr.o
 0001:0001a170       _ZN6System8Internal10Helperhlpr9TGUIDHlpr11ToByteArrayENS_5Types7TEndianE 000000014001b170     rtl:System.Internal.HelperHlpr.o
 0001:0001a190       _ZN6System8Internal10Helperhlpr9TGUIDHlpr8ToStringEv 000000014001b190     rtl:System.Internal.HelperHlpr.o
 0001:0001a1b0       _ZN6System8Internal10Helperhlpr9TGUIDHlpr8ToStringEw 000000014001b1b0     rtl:System.Internal.HelperHlpr.o
 0001:0001a1d0       _ZN6System8Internal10Helperhlpr11TStringHlprC1ERNS_13UnicodeStringE 000000014001b1d0     rtl:System.Internal.HelperHlpr.o
 0001:0001a1e0       _ZN6System8Internal10Helperhlpr11TStringHlpr6CreateEwi 000000014001b1e0     rtl:System.Internal.HelperHlpr.o
 0001:0001a200       _ZN6System8Internal10Helperhlpr11TStringHlpr6CreateEPKwxii 000000014001b200     rtl:System.Internal.HelperHlpr.o
 0001:0001a230       _ZN6System8Internal10Helperhlpr11TStringHlpr6CreateEPKwx 000000014001b230     rtl:System.Internal.HelperHlpr.o
 0001:0001a250       _ZN6System8Internal10Helperhlpr11TStringHlpr7CompareENS_13UnicodeStringES3_ 000000014001b250     rtl:System.Internal.HelperHlpr.o
 0001:0001a2d0       _ZN6System8Internal10Helperhlpr11TStringHlpr7CompareENS_13UnicodeStringES3_j 000000014001b2d0     rtl:System.Internal.HelperHlpr.o
 0001:0001a340       _ZN6System8Internal10Helperhlpr11TStringHlpr7CompareENS_13UnicodeStringES3_b 000000014001b340     rtl:System.Internal.HelperHlpr.o
 0001:0001a3b0       _ZN6System8Internal10Helperhlpr11TStringHlpr7CompareENS_13UnicodeStringES3_bj 000000014001b3b0     rtl:System.Internal.HelperHlpr.o
 0001:0001a420       _ZN6System8Internal10Helperhlpr11TStringHlpr7CompareENS_13UnicodeStringES3_NS_3SetINS_8Sysutils14TCompareOptionELS6_0ELS6_9EEE 000000014001b420     rtl:System.Internal.HelperHlpr.o
 0001:0001a4a0       _ZN6System8Internal10Helperhlpr11TStringHlpr7CompareENS_13UnicodeStringES3_NS_3SetINS_8Sysutils14TCompareOptionELS6_0ELS6_9EEEj 000000014001b4a0     rtl:System.Internal.HelperHlpr.o
 0001:0001a510       _ZN6System8Internal10Helperhlpr11TStringHlpr7CompareENS_13UnicodeStringEiS3_ii 000000014001b510     rtl:System.Internal.HelperHlpr.o
 0001:0001a540       _ZN6System8Internal10Helperhlpr11TStringHlpr7CompareENS_13UnicodeStringEiS3_iij 000000014001b540     rtl:System.Internal.HelperHlpr.o
 0001:0001a570       _ZN6System8Internal10Helperhlpr11TStringHlpr7CompareENS_13UnicodeStringEiS3_iib 000000014001b570     rtl:System.Internal.HelperHlpr.o
 0001:0001a5a0       _ZN6System8Internal10Helperhlpr11TStringHlpr7CompareENS_13UnicodeStringEiS3_iibj 000000014001b5a0     rtl:System.Internal.HelperHlpr.o
 0001:0001a5e0       _ZN6System8Internal10Helperhlpr11TStringHlpr7CompareENS_13UnicodeStringEiS3_iiNS_3SetINS_8Sysutils14TCompareOptionELS6_0ELS6_9EEE 000000014001b5e0     rtl:System.Internal.HelperHlpr.o
 0001:0001a620       _ZN6System8Internal10Helperhlpr11TStringHlpr7CompareENS_13UnicodeStringEiS3_iiNS_3SetINS_8Sysutils14TCompareOptionELS6_0ELS6_9EEEj 000000014001b620     rtl:System.Internal.HelperHlpr.o
 0001:0001a660       _ZN6System8Internal10Helperhlpr11TStringHlpr14CompareOrdinalENS_13UnicodeStringES3_ 000000014001b660     rtl:System.Internal.HelperHlpr.o
 0001:0001a670       _ZN6System8Internal10Helperhlpr11TStringHlpr14CompareOrdinalENS_13UnicodeStringEiS3_ii 000000014001b670     rtl:System.Internal.HelperHlpr.o
 0001:0001a690       _ZN6System8Internal10Helperhlpr11TStringHlpr11CompareTextENS_13UnicodeStringES3_ 000000014001b690     rtl:System.Internal.HelperHlpr.o
 0001:0001a6a0       _ZN6System8Internal10Helperhlpr11TStringHlpr5ParseEi 000000014001b6a0     rtl:System.Internal.HelperHlpr.o
 0001:0001a6c0       _ZN6System8Internal10Helperhlpr11TStringHlpr5ParseEx 000000014001b6c0     rtl:System.Internal.HelperHlpr.o
 0001:0001a6e0       _ZN6System8Internal10Helperhlpr11TStringHlpr5ParseEb 000000014001b6e0     rtl:System.Internal.HelperHlpr.o
 0001:0001a700       _ZN6System8Internal10Helperhlpr11TStringHlpr5ParseEe 000000014001b700     rtl:System.Internal.HelperHlpr.o
 0001:0001a720       _ZN6System8Internal10Helperhlpr11TStringHlpr9ToBooleanENS_13UnicodeStringE 000000014001b720     rtl:System.Internal.HelperHlpr.o
 0001:0001a730       _ZN6System8Internal10Helperhlpr11TStringHlpr9ToIntegerENS_13UnicodeStringE 000000014001b730     rtl:System.Internal.HelperHlpr.o
 0001:0001a740       _ZN6System8Internal10Helperhlpr11TStringHlpr7ToInt64ENS_13UnicodeStringE 000000014001b740     rtl:System.Internal.HelperHlpr.o
 0001:0001a750       _ZN6System8Internal10Helperhlpr11TStringHlpr8ToSingleENS_13UnicodeStringE 000000014001b750     rtl:System.Internal.HelperHlpr.o
 0001:0001a760       _ZN6System8Internal10Helperhlpr11TStringHlpr8ToDoubleENS_13UnicodeStringE 000000014001b760     rtl:System.Internal.HelperHlpr.o
 0001:0001a770       _ZN6System8Internal10Helperhlpr11TStringHlpr10ToExtendedENS_13UnicodeStringE 000000014001b770     rtl:System.Internal.HelperHlpr.o
 0001:0001a780       _ZN6System8Internal10Helperhlpr11TStringHlpr9LowerCaseENS_13UnicodeStringE 000000014001b780     rtl:System.Internal.HelperHlpr.o
 0001:0001a7a0       _ZN6System8Internal10Helperhlpr11TStringHlpr9LowerCaseENS_13UnicodeStringENS_8Sysutils14TLocaleOptionsE 000000014001b7a0     rtl:System.Internal.HelperHlpr.o
 0001:0001a7d0       _ZN6System8Internal10Helperhlpr11TStringHlpr9UpperCaseENS_13UnicodeStringE 000000014001b7d0     rtl:System.Internal.HelperHlpr.o
 0001:0001a7f0       _ZN6System8Internal10Helperhlpr11TStringHlpr9UpperCaseENS_13UnicodeStringENS_8Sysutils14TLocaleOptionsE 000000014001b7f0     rtl:System.Internal.HelperHlpr.o
 0001:0001a820       _ZN6System8Internal10Helperhlpr11TStringHlpr9CompareToENS_13UnicodeStringE 000000014001b820     rtl:System.Internal.HelperHlpr.o
 0001:0001a840       _ZN6System8Internal10Helperhlpr11TStringHlpr8ContainsENS_13UnicodeStringE 000000014001b840     rtl:System.Internal.HelperHlpr.o
 0001:0001a870       _ZN6System8Internal10Helperhlpr11TStringHlpr8ContainsENS_13UnicodeStringEb 000000014001b870     rtl:System.Internal.HelperHlpr.o
 0001:0001a890       _ZN6System8Internal10Helperhlpr11TStringHlpr4CopyENS_13UnicodeStringE 000000014001b890     rtl:System.Internal.HelperHlpr.o
 0001:0001a8d0       _ZN6System8Internal10Helperhlpr11TStringHlpr9CountCharEw 000000014001b8d0     rtl:System.Internal.HelperHlpr.o
 0001:0001a8f0       _ZN6System8Internal10Helperhlpr11TStringHlpr14DeQuotedStringEv 000000014001b8f0     rtl:System.Internal.HelperHlpr.o
 0001:0001a910       _ZN6System8Internal10Helperhlpr11TStringHlpr14DeQuotedStringEw 000000014001b910     rtl:System.Internal.HelperHlpr.o
 0001:0001a930       _ZN6System8Internal10Helperhlpr11TStringHlpr8EndsTextENS_13UnicodeStringES3_ 000000014001b930     rtl:System.Internal.HelperHlpr.o
 0001:0001a940       _ZN6System8Internal10Helperhlpr11TStringHlpr8EndsWithENS_13UnicodeStringE 000000014001b940     rtl:System.Internal.HelperHlpr.o
 0001:0001a970       _ZN6System8Internal10Helperhlpr11TStringHlpr8EndsWithENS_13UnicodeStringEb 000000014001b970     rtl:System.Internal.HelperHlpr.o
 0001:0001a990       _ZN6System8Internal10Helperhlpr11TStringHlpr6EqualsENS_13UnicodeStringE 000000014001b990     rtl:System.Internal.HelperHlpr.o
 0001:0001a9b0       _ZN6System8Internal10Helperhlpr11TStringHlpr6EqualsENS_13UnicodeStringES3_ 000000014001b9b0     rtl:System.Internal.HelperHlpr.o
 0001:0001a9c0       _ZN6System8Internal10Helperhlpr11TStringHlpr6FormatENS_13UnicodeStringEPKNS_7TVarRecEx 000000014001b9c0     rtl:System.Internal.HelperHlpr.o
 0001:0001a9e0       _ZN6System8Internal10Helperhlpr11TStringHlpr11GetHashCodeEv 000000014001b9e0     rtl:System.Internal.HelperHlpr.o
 0001:0001aa00       _ZN6System8Internal10Helperhlpr11TStringHlpr7IndexOfEw 000000014001ba00     rtl:System.Internal.HelperHlpr.o
 0001:0001aa20       _ZN6System8Internal10Helperhlpr11TStringHlpr7IndexOfENS_13UnicodeStringE 000000014001ba20     rtl:System.Internal.HelperHlpr.o
 0001:0001aa50       _ZN6System8Internal10Helperhlpr11TStringHlpr7IndexOfEwi 000000014001ba50     rtl:System.Internal.HelperHlpr.o
 0001:0001aa70       _ZN6System8Internal10Helperhlpr11TStringHlpr7IndexOfENS_13UnicodeStringEi 000000014001ba70     rtl:System.Internal.HelperHlpr.o
 0001:0001aa90       _ZN6System8Internal10Helperhlpr11TStringHlpr7IndexOfEwii 000000014001ba90     rtl:System.Internal.HelperHlpr.o
 0001:0001aab0       _ZN6System8Internal10Helperhlpr11TStringHlpr7IndexOfENS_13UnicodeStringEii 000000014001bab0     rtl:System.Internal.HelperHlpr.o
 0001:0001aad0       _ZN6System8Internal10Helperhlpr11TStringHlpr10IndexOfAnyEPKwx 000000014001bad0     rtl:System.Internal.HelperHlpr.o
 0001:0001aaf0       _ZN6System8Internal10Helperhlpr11TStringHlpr10IndexOfAnyEPKwxi 000000014001baf0     rtl:System.Internal.HelperHlpr.o
 0001:0001ab10       _ZN6System8Internal10Helperhlpr11TStringHlpr10IndexOfAnyEPKwxii 000000014001bb10     rtl:System.Internal.HelperHlpr.o
 0001:0001ab30       _ZN6System8Internal10Helperhlpr11TStringHlpr18IndexOfAnyUnquotedEPKwxww 000000014001bb30     rtl:System.Internal.HelperHlpr.o
 0001:0001ab50       _ZN6System8Internal10Helperhlpr11TStringHlpr18IndexOfAnyUnquotedEPKwxwwi 000000014001bb50     rtl:System.Internal.HelperHlpr.o
 0001:0001ab80       _ZN6System8Internal10Helperhlpr11TStringHlpr18IndexOfAnyUnquotedEPKwxwwii 000000014001bb80     rtl:System.Internal.HelperHlpr.o
 0001:0001abb0       _ZN6System8Internal10Helperhlpr11TStringHlpr6InsertEiNS_13UnicodeStringE 000000014001bbb0     rtl:System.Internal.HelperHlpr.o
 0001:0001abd0       _ZN6System8Internal10Helperhlpr11TStringHlpr11IsDelimiterENS_13UnicodeStringEi 000000014001bbd0     rtl:System.Internal.HelperHlpr.o
 0001:0001abf0       _ZN6System8Internal10Helperhlpr11TStringHlpr7IsEmptyEv 000000014001bbf0     rtl:System.Internal.HelperHlpr.o
 0001:0001ac10       _ZN6System8Internal10Helperhlpr11TStringHlpr13IsNullOrEmptyENS_13UnicodeStringE 000000014001bc10     rtl:System.Internal.HelperHlpr.o
 0001:0001ac20       _ZN6System8Internal10Helperhlpr11TStringHlpr18IsNullOrWhiteSpaceENS_13UnicodeStringE 000000014001bc20     rtl:System.Internal.HelperHlpr.o
 0001:0001ac30       _ZN6System8Internal10Helperhlpr11TStringHlpr4JoinENS_13UnicodeStringEPKNS_7TVarRecEx 000000014001bc30     rtl:System.Internal.HelperHlpr.o
 0001:0001ac50       _ZN6System8Internal10Helperhlpr11TStringHlpr4JoinENS_13UnicodeStringEPKS3_x 000000014001bc50     rtl:System.Internal.HelperHlpr.o
 0001:0001ac70       _ZN6System8Internal10Helperhlpr11TStringHlpr4JoinENS_13UnicodeStringENS_15DelphiInterfaceINS_14IEnumerator__1IS3_EEEE 000000014001bc70     rtl:System.Internal.HelperHlpr.o
 0001:0001ac90       _ZN6System8Internal10Helperhlpr11TStringHlpr4JoinENS_13UnicodeStringENS_15DelphiInterfaceINS_14IEnumerable__1IS3_EEEE 000000014001bc90     rtl:System.Internal.HelperHlpr.o
 0001:0001ad20       _ZN6System8Internal10Helperhlpr11TStringHlpr4JoinENS_13UnicodeStringEPKS3_xii 000000014001bd20     rtl:System.Internal.HelperHlpr.o
 0001:0001ad50       _ZN6System8Internal10Helperhlpr11TStringHlpr13LastDelimiterENS_13UnicodeStringE 000000014001bd50     rtl:System.Internal.HelperHlpr.o
 0001:0001ad70       _ZN6System8Internal10Helperhlpr11TStringHlpr13LastDelimiterERKNS_3SetIcLc0ELcn1EEE 000000014001bd70     rtl:System.Internal.HelperHlpr.o
 0001:0001ad90       _ZN6System8Internal10Helperhlpr11TStringHlpr11LastIndexOfEw 000000014001bd90     rtl:System.Internal.HelperHlpr.o
 0001:0001adb0       _ZN6System8Internal10Helperhlpr11TStringHlpr11LastIndexOfENS_13UnicodeStringE 000000014001bdb0     rtl:System.Internal.HelperHlpr.o
 0001:0001add0       _ZN6System8Internal10Helperhlpr11TStringHlpr11LastIndexOfEwi 000000014001bdd0     rtl:System.Internal.HelperHlpr.o
 0001:0001adf0       _ZN6System8Internal10Helperhlpr11TStringHlpr11LastIndexOfENS_13UnicodeStringEi 000000014001bdf0     rtl:System.Internal.HelperHlpr.o
 0001:0001ae10       _ZN6System8Internal10Helperhlpr11TStringHlpr11LastIndexOfEwii 000000014001be10     rtl:System.Internal.HelperHlpr.o
 0001:0001ae30       _ZN6System8Internal10Helperhlpr11TStringHlpr11LastIndexOfENS_13UnicodeStringEii 000000014001be30     rtl:System.Internal.HelperHlpr.o
 0001:0001ae50       _ZN6System8Internal10Helperhlpr11TStringHlpr14LastIndexOfAnyEPKwx 000000014001be50     rtl:System.Internal.HelperHlpr.o
 0001:0001ae70       _ZN6System8Internal10Helperhlpr11TStringHlpr14LastIndexOfAnyEPKwxi 000000014001be70     rtl:System.Internal.HelperHlpr.o
 0001:0001ae90       _ZN6System8Internal10Helperhlpr11TStringHlpr14LastIndexOfAnyEPKwxii 000000014001be90     rtl:System.Internal.HelperHlpr.o
 0001:0001aeb0       _ZN6System8Internal10Helperhlpr11TStringHlpr7PadLeftEi 000000014001beb0     rtl:System.Internal.HelperHlpr.o
 0001:0001af60       _ZN6System8Internal10Helperhlpr11TStringHlpr7PadLeftEiw 000000014001bf60     rtl:System.Internal.HelperHlpr.o
 0001:0001b020       _ZN6System8Internal10Helperhlpr11TStringHlpr8PadRightEi 000000014001c020     rtl:System.Internal.HelperHlpr.o
 0001:0001b0d0       _ZN6System8Internal10Helperhlpr11TStringHlpr8PadRightEiw 000000014001c0d0     rtl:System.Internal.HelperHlpr.o
 0001:0001b190       _ZN6System8Internal10Helperhlpr11TStringHlpr12QuotedStringEv 000000014001c190     rtl:System.Internal.HelperHlpr.o
 0001:0001b1b0       _ZN6System8Internal10Helperhlpr11TStringHlpr12QuotedStringEw 000000014001c1b0     rtl:System.Internal.HelperHlpr.o
 0001:0001b1d0       _ZN6System8Internal10Helperhlpr11TStringHlpr6RemoveEi 000000014001c1d0     rtl:System.Internal.HelperHlpr.o
 0001:0001b220       _ZN6System8Internal10Helperhlpr11TStringHlpr6RemoveEii 000000014001c220     rtl:System.Internal.HelperHlpr.o
 0001:0001b270       _ZN6System8Internal10Helperhlpr11TStringHlpr7ReplaceEww 000000014001c270     rtl:System.Internal.HelperHlpr.o
 0001:0001b290       _ZN6System8Internal10Helperhlpr11TStringHlpr7ReplaceEwwNS_3SetINS_8Sysutils12TReplaceFlagELS5_0ELS5_1EEE 000000014001c290     rtl:System.Internal.HelperHlpr.o
 0001:0001b2c0       _ZN6System8Internal10Helperhlpr11TStringHlpr7ReplaceENS_13UnicodeStringES3_ 000000014001c2c0     rtl:System.Internal.HelperHlpr.o
 0001:0001b2e0       _ZN6System8Internal10Helperhlpr11TStringHlpr7ReplaceENS_13UnicodeStringES3_NS_3SetINS_8Sysutils12TReplaceFlagELS6_0ELS6_1EEE 000000014001c2e0     rtl:System.Internal.HelperHlpr.o
 0001:0001b310       _ZN6System8Internal10Helperhlpr11TStringHlpr5SplitEPKwx 000000014001c310     rtl:System.Internal.HelperHlpr.o
 0001:0001b330       _ZN6System8Internal10Helperhlpr11TStringHlpr5SplitEPKwxi 000000014001c330     rtl:System.Internal.HelperHlpr.o
 0001:0001b360       _ZN6System8Internal10Helperhlpr11TStringHlpr5SplitEPKwxNS_8Sysutils19TStringSplitOptionsE 000000014001c360     rtl:System.Internal.HelperHlpr.o
 0001:0001b390       _ZN6System8Internal10Helperhlpr11TStringHlpr5SplitEPKwxiNS_8Sysutils19TStringSplitOptionsE 000000014001c390     rtl:System.Internal.HelperHlpr.o
 0001:0001b3c0       _ZN6System8Internal10Helperhlpr11TStringHlpr5SplitEPKNS_13UnicodeStringEx 000000014001c3c0     rtl:System.Internal.HelperHlpr.o
 0001:0001b3e0       _ZN6System8Internal10Helperhlpr11TStringHlpr5SplitEPKNS_13UnicodeStringExi 000000014001c3e0     rtl:System.Internal.HelperHlpr.o
 0001:0001b410       _ZN6System8Internal10Helperhlpr11TStringHlpr5SplitEPKNS_13UnicodeStringExNS_8Sysutils19TStringSplitOptionsE 000000014001c410     rtl:System.Internal.HelperHlpr.o
 0001:0001b440       _ZN6System8Internal10Helperhlpr11TStringHlpr5SplitEPKNS_13UnicodeStringExiNS_8Sysutils19TStringSplitOptionsE 000000014001c440     rtl:System.Internal.HelperHlpr.o
 0001:0001b470       _ZN6System8Internal10Helperhlpr11TStringHlpr5SplitEPKwxw 000000014001c470     rtl:System.Internal.HelperHlpr.o
 0001:0001b4a0       _ZN6System8Internal10Helperhlpr11TStringHlpr5SplitEPKwxww 000000014001c4a0     rtl:System.Internal.HelperHlpr.o
 0001:0001b4e0       _ZN6System8Internal10Helperhlpr11TStringHlpr5SplitEPKwxwwNS_8Sysutils19TStringSplitOptionsE 000000014001c4e0     rtl:System.Internal.HelperHlpr.o
 0001:0001b520       _ZN6System8Internal10Helperhlpr11TStringHlpr5SplitEPKwxwwi 000000014001c520     rtl:System.Internal.HelperHlpr.o
 0001:0001b560       _ZN6System8Internal10Helperhlpr11TStringHlpr5SplitEPKwxwwiNS_8Sysutils19TStringSplitOptionsE 000000014001c560     rtl:System.Internal.HelperHlpr.o
 0001:0001b5b0       _ZN6System8Internal10Helperhlpr11TStringHlpr5SplitEPKNS_13UnicodeStringExw 000000014001c5b0     rtl:System.Internal.HelperHlpr.o
 0001:0001b5e0       _ZN6System8Internal10Helperhlpr11TStringHlpr5SplitEPKNS_13UnicodeStringExww 000000014001c5e0     rtl:System.Internal.HelperHlpr.o
 0001:0001b620       _ZN6System8Internal10Helperhlpr11TStringHlpr5SplitEPKNS_13UnicodeStringExwwNS_8Sysutils19TStringSplitOptionsE 000000014001c620     rtl:System.Internal.HelperHlpr.o
 0001:0001b660       _ZN6System8Internal10Helperhlpr11TStringHlpr5SplitEPKNS_13UnicodeStringExwwi 000000014001c660     rtl:System.Internal.HelperHlpr.o
 0001:0001b6a0       _ZN6System8Internal10Helperhlpr11TStringHlpr5SplitEPKNS_13UnicodeStringExwwiNS_8Sysutils19TStringSplitOptionsE 000000014001c6a0     rtl:System.Internal.HelperHlpr.o
 0001:0001b6f0       _ZN6System8Internal10Helperhlpr11TStringHlpr10StartsTextENS_13UnicodeStringES3_ 000000014001c6f0     rtl:System.Internal.HelperHlpr.o
 0001:0001b700       _ZN6System8Internal10Helperhlpr11TStringHlpr10StartsWithENS_13UnicodeStringE 000000014001c700     rtl:System.Internal.HelperHlpr.o
 0001:0001b730       _ZN6System8Internal10Helperhlpr11TStringHlpr10StartsWithENS_13UnicodeStringEb 000000014001c730     rtl:System.Internal.HelperHlpr.o
 0001:0001b750       _ZN6System8Internal10Helperhlpr11TStringHlpr9SubstringEi 000000014001c750     rtl:System.Internal.HelperHlpr.o
 0001:0001b7a0       _ZN6System8Internal10Helperhlpr11TStringHlpr9SubstringEii 000000014001c7a0     rtl:System.Internal.HelperHlpr.o
 0001:0001b7d0       _ZN6System8Internal10Helperhlpr11TStringHlpr9ToBooleanEv 000000014001c7d0     rtl:System.Internal.HelperHlpr.o
 0001:0001b800       _ZN6System8Internal10Helperhlpr11TStringHlpr9ToIntegerEv 000000014001c800     rtl:System.Internal.HelperHlpr.o
 0001:0001b830       _ZN6System8Internal10Helperhlpr11TStringHlpr7ToInt64Ev 000000014001c830     rtl:System.Internal.HelperHlpr.o
 0001:0001b860       _ZN6System8Internal10Helperhlpr11TStringHlpr8ToSingleEv 000000014001c860     rtl:System.Internal.HelperHlpr.o
 0001:0001b890       _ZN6System8Internal10Helperhlpr11TStringHlpr8ToDoubleEv 000000014001c890     rtl:System.Internal.HelperHlpr.o
 0001:0001b8c0       _ZN6System8Internal10Helperhlpr11TStringHlpr10ToExtendedEv 000000014001c8c0     rtl:System.Internal.HelperHlpr.o
 0001:0001b8f0       _ZN6System8Internal10Helperhlpr11TStringHlpr11ToCharArrayEv 000000014001c8f0     rtl:System.Internal.HelperHlpr.o
 0001:0001b910       _ZN6System8Internal10Helperhlpr11TStringHlpr11ToCharArrayEii 000000014001c910     rtl:System.Internal.HelperHlpr.o
 0001:0001b930       _ZN6System8Internal10Helperhlpr11TStringHlpr7ToLowerEv 000000014001c930     rtl:System.Internal.HelperHlpr.o
 0001:0001b970       _ZN6System8Internal10Helperhlpr11TStringHlpr7ToLowerEj 000000014001c970     rtl:System.Internal.HelperHlpr.o
 0001:0001b990       _ZN6System8Internal10Helperhlpr11TStringHlpr16ToLowerInvariantEv 000000014001c990     rtl:System.Internal.HelperHlpr.o
 0001:0001b9b0       _ZN6System8Internal10Helperhlpr11TStringHlpr7ToUpperEv 000000014001c9b0     rtl:System.Internal.HelperHlpr.o
 0001:0001b9f0       _ZN6System8Internal10Helperhlpr11TStringHlpr7ToUpperEj 000000014001c9f0     rtl:System.Internal.HelperHlpr.o
 0001:0001ba10       _ZN6System8Internal10Helperhlpr11TStringHlpr16ToUpperInvariantEv 000000014001ca10     rtl:System.Internal.HelperHlpr.o
 0001:0001ba30       _ZN6System8Internal10Helperhlpr11TStringHlpr4TrimEv 000000014001ca30     rtl:System.Internal.HelperHlpr.o
 0001:0001ba50       _ZN6System8Internal10Helperhlpr11TStringHlpr8TrimLeftEv 000000014001ca50     rtl:System.Internal.HelperHlpr.o
 0001:0001ba70       _ZN6System8Internal10Helperhlpr11TStringHlpr9TrimRightEv 000000014001ca70     rtl:System.Internal.HelperHlpr.o
 0001:0001ba90       _ZN6System8Internal10Helperhlpr11TStringHlpr4TrimEPKwx 000000014001ca90     rtl:System.Internal.HelperHlpr.o
 0001:0001bab0       _ZN6System8Internal10Helperhlpr11TStringHlpr8TrimLeftEPKwx 000000014001cab0     rtl:System.Internal.HelperHlpr.o
 0001:0001bad0       _ZN6System8Internal10Helperhlpr11TStringHlpr9TrimRightEPKwx 000000014001cad0     rtl:System.Internal.HelperHlpr.o
 0001:0001baf0       _ZN6System8Internal10Helperhlpr11TStringHlpr7TrimEndEPKwx 000000014001caf0     rtl:System.Internal.HelperHlpr.o
 0001:0001bb10       _ZN6System8Internal10Helperhlpr11TStringHlpr9TrimStartEPKwx 000000014001cb10     rtl:System.Internal.HelperHlpr.o
 0001:0001bb30       _ZN6System8Internal10Helperhlpr11TStringHlpr6CopyToEiPwxii 000000014001cb30     rtl:System.Internal.HelperHlpr.o
 0001:0001bb60       _ZN6System8Internal10Helperhlpr12TIntegerHlprC1ERi 000000014001cb60     rtl:System.Internal.HelperHlpr.o
 0001:0001bb70       _ZN6System8Internal10Helperhlpr12TIntegerHlpr8ToStringEv 000000014001cb70     rtl:System.Internal.HelperHlpr.o
 0001:0001bb90       _ZN6System8Internal10Helperhlpr12TIntegerHlpr9ToBooleanEv 000000014001cb90     rtl:System.Internal.HelperHlpr.o
 0001:0001bba0       _ZN6System8Internal10Helperhlpr12TIntegerHlpr11ToHexStringEv 000000014001cba0     rtl:System.Internal.HelperHlpr.o
 0001:0001bbd0       _ZN6System8Internal10Helperhlpr12TIntegerHlpr11ToHexStringEi 000000014001cbd0     rtl:System.Internal.HelperHlpr.o
 0001:0001bbf0       _ZN6System8Internal10Helperhlpr12TIntegerHlpr8ToSingleEv 000000014001cbf0     rtl:System.Internal.HelperHlpr.o
 0001:0001bc00       _ZN6System8Internal10Helperhlpr12TIntegerHlpr8ToDoubleEv 000000014001cc00     rtl:System.Internal.HelperHlpr.o
 0001:0001bc10       _ZN6System8Internal10Helperhlpr12TIntegerHlpr10ToExtendedEv 000000014001cc10     rtl:System.Internal.HelperHlpr.o
 0001:0001bc20       _ZN6System8Internal10Helperhlpr12TIntegerHlpr4SizeEv 000000014001cc20     rtl:System.Internal.HelperHlpr.o
 0001:0001bc30       _ZN6System8Internal10Helperhlpr12TIntegerHlpr8ToStringEi 000000014001cc30     rtl:System.Internal.HelperHlpr.o
 0001:0001bc50       _ZN6System8Internal10Helperhlpr12TIntegerHlpr5ParseENS_13UnicodeStringE 000000014001cc50     rtl:System.Internal.HelperHlpr.o
 0001:0001bc60       _ZN6System8Internal10Helperhlpr12TIntegerHlpr8TryParseENS_13UnicodeStringERi 000000014001cc60     rtl:System.Internal.HelperHlpr.o
 0001:0001bc90       _ZN6System8Internal10Helperhlpr10TInt64HlprC1ERx 000000014001cc90     rtl:System.Internal.HelperHlpr.o
 0001:0001bca0       _ZN6System8Internal10Helperhlpr10TInt64Hlpr8ToStringEv 000000014001cca0     rtl:System.Internal.HelperHlpr.o
 0001:0001bcc0       _ZN6System8Internal10Helperhlpr10TInt64Hlpr9ToBooleanEv 000000014001ccc0     rtl:System.Internal.HelperHlpr.o
 0001:0001bcd0       _ZN6System8Internal10Helperhlpr10TInt64Hlpr11ToHexStringEv 000000014001ccd0     rtl:System.Internal.HelperHlpr.o
 0001:0001bd00       _ZN6System8Internal10Helperhlpr10TInt64Hlpr11ToHexStringEi 000000014001cd00     rtl:System.Internal.HelperHlpr.o
 0001:0001bd20       _ZN6System8Internal10Helperhlpr10TInt64Hlpr8ToSingleEv 000000014001cd20     rtl:System.Internal.HelperHlpr.o
 0001:0001bd30       _ZN6System8Internal10Helperhlpr10TInt64Hlpr8ToDoubleEv 000000014001cd30     rtl:System.Internal.HelperHlpr.o
 0001:0001bd40       _ZN6System8Internal10Helperhlpr10TInt64Hlpr10ToExtendedEv 000000014001cd40     rtl:System.Internal.HelperHlpr.o
 0001:0001bd50       _ZN6System8Internal10Helperhlpr10TInt64Hlpr4SizeEv 000000014001cd50     rtl:System.Internal.HelperHlpr.o
 0001:0001bd60       _ZN6System8Internal10Helperhlpr10TInt64Hlpr8ToStringEx 000000014001cd60     rtl:System.Internal.HelperHlpr.o
 0001:0001bd80       _ZN6System8Internal10Helperhlpr10TInt64Hlpr5ParseENS_13UnicodeStringE 000000014001cd80     rtl:System.Internal.HelperHlpr.o
 0001:0001bd90       _ZN6System8Internal10Helperhlpr10TInt64Hlpr8TryParseENS_13UnicodeStringERx 000000014001cd90     rtl:System.Internal.HelperHlpr.o
 0001:0001bdc0       _ZN6System8Internal10Helperhlpr13TCurrencyHlprC1ERNS_8CurrencyE 000000014001cdc0     rtl:System.Internal.HelperHlpr.o
 0001:0001bdd0       _ZN6System8Internal10Helperhlpr13TCurrencyHlprC1ERKNS_8CurrencyE 000000014001cdd0     rtl:System.Internal.HelperHlpr.o
 0001:0001bde0       _ZN6System8Internal10Helperhlpr13TCurrencyHlpr8ToStringERKNS_8Sysutils15TFormatSettingsE 000000014001cde0     rtl:System.Internal.HelperHlpr.o
 0001:0001be00       _ZN6System8Internal10Helperhlpr13TCurrencyHlpr8ToStringEv 000000014001ce00     rtl:System.Internal.HelperHlpr.o
 0001:0001be30       _ZN6System8Internal10Helperhlpr13TCurrencyHlpr4FracEv 000000014001ce30     rtl:System.Internal.HelperHlpr.o
 0001:0001be60       _ZN6System8Internal10Helperhlpr13TCurrencyHlpr4CeilEv 000000014001ce60     rtl:System.Internal.HelperHlpr.o
 0001:0001be90       _ZN6System8Internal10Helperhlpr13TCurrencyHlpr5FloorEv 000000014001ce90     rtl:System.Internal.HelperHlpr.o
 0001:0001bec0       _ZN6System8Internal10Helperhlpr13TCurrencyHlpr5TruncEv 000000014001cec0     rtl:System.Internal.HelperHlpr.o
 0001:0001bef0       _ZN6System8Internal10Helperhlpr13TCurrencyHlpr4SizeEv 000000014001cef0     rtl:System.Internal.HelperHlpr.o
 0001:0001bf00       _ZN6System8Internal10Helperhlpr13TCurrencyHlpr8ToStringENS_8CurrencyERKNS_8Sysutils15TFormatSettingsE 000000014001cf00     rtl:System.Internal.HelperHlpr.o
 0001:0001bf20       _ZN6System8Internal10Helperhlpr13TCurrencyHlpr8ToStringENS_8CurrencyE 000000014001cf20     rtl:System.Internal.HelperHlpr.o
 0001:0001bf40       _ZN6System8Internal10Helperhlpr13TCurrencyHlpr5ParseENS_13UnicodeStringERKNS_8Sysutils15TFormatSettingsE 000000014001cf40     rtl:System.Internal.HelperHlpr.o
 0001:0001bf50       _ZN6System8Internal10Helperhlpr13TCurrencyHlpr5ParseENS_13UnicodeStringE 000000014001cf50     rtl:System.Internal.HelperHlpr.o
 0001:0001bf70       _ZN6System8Internal10Helperhlpr13TCurrencyHlpr8TryParseENS_13UnicodeStringERNS_8CurrencyERKNS_8Sysutils15TFormatSettingsE 000000014001cf70     rtl:System.Internal.HelperHlpr.o
 0001:0001bf90       _ZN6System8Internal10Helperhlpr13TCurrencyHlpr8TryParseENS_13UnicodeStringERNS_8CurrencyE 000000014001cf90     rtl:System.Internal.HelperHlpr.o
 0001:0001bfb0       _ZN6System8Internal10Helperhlpr13TDateTimeHlprC1ERNS_9TDateTimeE 000000014001cfb0     rtl:System.Internal.HelperHlpr.o
 0001:0001bfc0       _ZN6System8Internal10Helperhlpr13TDateTimeHlprC1ERKNS_9TDateTimeE 000000014001cfc0     rtl:System.Internal.HelperHlpr.o
 0001:0001bfd0       _ZN6System8Internal10Helperhlpr13TDateTimeHlpr3NowEv 000000014001cfd0     rtl:System.Internal.HelperHlpr.o
 0001:0001bfe0       _ZN6System8Internal10Helperhlpr13TDateTimeHlpr6NowUTCEv 000000014001cfe0     rtl:System.Internal.HelperHlpr.o
 0001:0001bff0       _ZN6System8Internal10Helperhlpr13TDateTimeHlpr7GetDateEv 000000014001cff0     rtl:System.Internal.HelperHlpr.o
 0001:0001c010       _ZN6System8Internal10Helperhlpr13TDateTimeHlpr7GetTimeEv 000000014001d010     rtl:System.Internal.HelperHlpr.o
 0001:0001c030       _ZN6System8Internal10Helperhlpr13TDateTimeHlpr12IsInLeapYearEv 000000014001d030     rtl:System.Internal.HelperHlpr.o
 0001:0001c050       _ZN6System8Internal10Helperhlpr13TDateTimeHlpr4IsPMEv 000000014001d050     rtl:System.Internal.HelperHlpr.o
 0001:0001c070       _ZN6System8Internal10Helperhlpr13TDateTimeHlpr4IsAMEv 000000014001d070     rtl:System.Internal.HelperHlpr.o
 0001:0001c090       _ZN6System8Internal10Helperhlpr13TDateTimeHlpr11WeeksInYearEv 000000014001d090     rtl:System.Internal.HelperHlpr.o
 0001:0001c0b0       _ZN6System8Internal10Helperhlpr13TDateTimeHlpr10DaysInYearEv 000000014001d0b0     rtl:System.Internal.HelperHlpr.o
 0001:0001c0d0       _ZN6System8Internal10Helperhlpr13TDateTimeHlpr11DaysInMonthEv 000000014001d0d0     rtl:System.Internal.HelperHlpr.o
 0001:0001c0f0       _ZN6System8Internal10Helperhlpr13TDateTimeHlpr5TodayEv 000000014001d0f0     rtl:System.Internal.HelperHlpr.o
 0001:0001c100       _ZN6System8Internal10Helperhlpr13TDateTimeHlpr9YesterdayEv 000000014001d100     rtl:System.Internal.HelperHlpr.o
 0001:0001c110       _ZN6System8Internal10Helperhlpr13TDateTimeHlpr8TomorrowEv 000000014001d110     rtl:System.Internal.HelperHlpr.o
 0001:0001c120       _ZN6System8Internal10Helperhlpr13TDateTimeHlpr7IsTodayEv 000000014001d120     rtl:System.Internal.HelperHlpr.o
 0001:0001c140       _ZN6System8Internal10Helperhlpr13TDateTimeHlpr9IsSameDayENS_9TDateTimeE 000000014001d140     rtl:System.Internal.HelperHlpr.o
 0001:0001c160       _ZN6System8Internal10Helperhlpr13TDateTimeHlpr7GetYearEv 000000014001d160     rtl:System.Internal.HelperHlpr.o
 0001:0001c180       _ZN6System8Internal10Helperhlpr13TDateTimeHlpr8GetMonthEv 000000014001d180     rtl:System.Internal.HelperHlpr.o
 0001:0001c1a0       _ZN6System8Internal10Helperhlpr13TDateTimeHlpr7GetWeekEv 000000014001d1a0     rtl:System.Internal.HelperHlpr.o
 0001:0001c1c0       _ZN6System8Internal10Helperhlpr13TDateTimeHlpr6GetDayEv 000000014001d1c0     rtl:System.Internal.HelperHlpr.o
 0001:0001c1e0       _ZN6System8Internal10Helperhlpr13TDateTimeHlpr7GetHourEv 000000014001d1e0     rtl:System.Internal.HelperHlpr.o
 0001:0001c200       _ZN6System8Internal10Helperhlpr13TDateTimeHlpr9GetMinuteEv 000000014001d200     rtl:System.Internal.HelperHlpr.o
 0001:0001c220       _ZN6System8Internal10Helperhlpr13TDateTimeHlpr9GetSecondEv 000000014001d220     rtl:System.Internal.HelperHlpr.o
 0001:0001c240       _ZN6System8Internal10Helperhlpr13TDateTimeHlpr14GetMilliSecondEv 000000014001d240     rtl:System.Internal.HelperHlpr.o
 0001:0001c260       _ZN6System8Internal10Helperhlpr13TDateTimeHlpr14StartOfTheYearEv 000000014001d260     rtl:System.Internal.HelperHlpr.o
 0001:0001c280       _ZN6System8Internal10Helperhlpr13TDateTimeHlpr12EndOfTheYearEv 000000014001d280     rtl:System.Internal.HelperHlpr.o
 0001:0001c2a0       _ZN6System8Internal10Helperhlpr13TDateTimeHlpr15StartOfTheMonthEv 000000014001d2a0     rtl:System.Internal.HelperHlpr.o
 0001:0001c2c0       _ZN6System8Internal10Helperhlpr13TDateTimeHlpr13EndOfTheMonthEv 000000014001d2c0     rtl:System.Internal.HelperHlpr.o
 0001:0001c2e0       _ZN6System8Internal10Helperhlpr13TDateTimeHlpr14StartOfTheWeekEv 000000014001d2e0     rtl:System.Internal.HelperHlpr.o
 0001:0001c300       _ZN6System8Internal10Helperhlpr13TDateTimeHlpr12EndOfTheWeekEv 000000014001d300     rtl:System.Internal.HelperHlpr.o
 0001:0001c320       _ZN6System8Internal10Helperhlpr13TDateTimeHlpr13StartOfTheDayEv 000000014001d320     rtl:System.Internal.HelperHlpr.o
 0001:0001c340       _ZN6System8Internal10Helperhlpr13TDateTimeHlpr11EndOfTheDayEv 000000014001d340     rtl:System.Internal.HelperHlpr.o
 0001:0001c360       _ZN6System8Internal10Helperhlpr13TDateTimeHlpr13WeekOfTheYearEv 000000014001d360     rtl:System.Internal.HelperHlpr.o
 0001:0001c380       _ZN6System8Internal10Helperhlpr13TDateTimeHlpr12DayOfTheYearEv 000000014001d380     rtl:System.Internal.HelperHlpr.o
 0001:0001c3a0       _ZN6System8Internal10Helperhlpr13TDateTimeHlpr13HourOfTheYearEv 000000014001d3a0     rtl:System.Internal.HelperHlpr.o
 0001:0001c3c0       _ZN6System8Internal10Helperhlpr13TDateTimeHlpr15MinuteOfTheYearEv 000000014001d3c0     rtl:System.Internal.HelperHlpr.o
 0001:0001c3e0       _ZN6System8Internal10Helperhlpr13TDateTimeHlpr15SecondOfTheYearEv 000000014001d3e0     rtl:System.Internal.HelperHlpr.o
 0001:0001c400       _ZN6System8Internal10Helperhlpr13TDateTimeHlpr20MilliSecondOfTheYearEv 000000014001d400     rtl:System.Internal.HelperHlpr.o
 0001:0001c420       _ZN6System8Internal10Helperhlpr13TDateTimeHlpr14WeekOfTheMonthEv 000000014001d420     rtl:System.Internal.HelperHlpr.o
 0001:0001c440       _ZN6System8Internal10Helperhlpr13TDateTimeHlpr13DayOfTheMonthEv 000000014001d440     rtl:System.Internal.HelperHlpr.o
 0001:0001c460       _ZN6System8Internal10Helperhlpr13TDateTimeHlpr14HourOfTheMonthEv 000000014001d460     rtl:System.Internal.HelperHlpr.o
 0001:0001c480       _ZN6System8Internal10Helperhlpr13TDateTimeHlpr16MinuteOfTheMonthEv 000000014001d480     rtl:System.Internal.HelperHlpr.o
 0001:0001c4a0       _ZN6System8Internal10Helperhlpr13TDateTimeHlpr16SecondOfTheMonthEv 000000014001d4a0     rtl:System.Internal.HelperHlpr.o
 0001:0001c4c0       _ZN6System8Internal10Helperhlpr13TDateTimeHlpr21MilliSecondOfTheMonthEv 000000014001d4c0     rtl:System.Internal.HelperHlpr.o
 0001:0001c4e0       _ZN6System8Internal10Helperhlpr13TDateTimeHlpr12DayOfTheWeekEv 000000014001d4e0     rtl:System.Internal.HelperHlpr.o
 0001:0001c500       _ZN6System8Internal10Helperhlpr13TDateTimeHlpr13HourOfTheWeekEv 000000014001d500     rtl:System.Internal.HelperHlpr.o
 0001:0001c520       _ZN6System8Internal10Helperhlpr13TDateTimeHlpr15MinuteOfTheWeekEv 000000014001d520     rtl:System.Internal.HelperHlpr.o
 0001:0001c540       _ZN6System8Internal10Helperhlpr13TDateTimeHlpr15SecondOfTheWeekEv 000000014001d540     rtl:System.Internal.HelperHlpr.o
 0001:0001c560       _ZN6System8Internal10Helperhlpr13TDateTimeHlpr20MilliSecondOfTheWeekEv 000000014001d560     rtl:System.Internal.HelperHlpr.o
 0001:0001c580       _ZN6System8Internal10Helperhlpr13TDateTimeHlpr14MinuteOfTheDayEv 000000014001d580     rtl:System.Internal.HelperHlpr.o
 0001:0001c5a0       _ZN6System8Internal10Helperhlpr13TDateTimeHlpr14SecondOfTheDayEv 000000014001d5a0     rtl:System.Internal.HelperHlpr.o
 0001:0001c5c0       _ZN6System8Internal10Helperhlpr13TDateTimeHlpr19MilliSecondOfTheDayEv 000000014001d5c0     rtl:System.Internal.HelperHlpr.o
 0001:0001c5e0       _ZN6System8Internal10Helperhlpr13TDateTimeHlpr15SecondOfTheHourEv 000000014001d5e0     rtl:System.Internal.HelperHlpr.o
 0001:0001c600       _ZN6System8Internal10Helperhlpr13TDateTimeHlpr20MilliSecondOfTheHourEv 000000014001d600     rtl:System.Internal.HelperHlpr.o
 0001:0001c620       _ZN6System8Internal10Helperhlpr13TDateTimeHlpr22MilliSecondOfTheMinuteEv 000000014001d620     rtl:System.Internal.HelperHlpr.o
 0001:0001c640       _ZN6System8Internal10Helperhlpr13TDateTimeHlpr15WithinPastYearsENS_9TDateTimeEi 000000014001d640     rtl:System.Internal.HelperHlpr.o
 0001:0001c660       _ZN6System8Internal10Helperhlpr13TDateTimeHlpr16WithinPastMonthsENS_9TDateTimeEi 000000014001d660     rtl:System.Internal.HelperHlpr.o
 0001:0001c680       _ZN6System8Internal10Helperhlpr13TDateTimeHlpr15WithinPastWeeksENS_9TDateTimeEi 000000014001d680     rtl:System.Internal.HelperHlpr.o
 0001:0001c6a0       _ZN6System8Internal10Helperhlpr13TDateTimeHlpr14WithinPastDaysENS_9TDateTimeEi 000000014001d6a0     rtl:System.Internal.HelperHlpr.o
 0001:0001c6c0       _ZN6System8Internal10Helperhlpr13TDateTimeHlpr15WithinPastHoursENS_9TDateTimeEx 000000014001d6c0     rtl:System.Internal.HelperHlpr.o
 0001:0001c6e0       _ZN6System8Internal10Helperhlpr13TDateTimeHlpr17WithinPastMinutesENS_9TDateTimeEx 000000014001d6e0     rtl:System.Internal.HelperHlpr.o
 0001:0001c700       _ZN6System8Internal10Helperhlpr13TDateTimeHlpr17WithinPastSecondsENS_9TDateTimeEx 000000014001d700     rtl:System.Internal.HelperHlpr.o
 0001:0001c720       _ZN6System8Internal10Helperhlpr13TDateTimeHlpr22WithinPastMilliSecondsENS_9TDateTimeEx 000000014001d720     rtl:System.Internal.HelperHlpr.o
 0001:0001c740       _ZN6System8Internal10Helperhlpr13TDateTimeHlpr12YearsBetweenENS_9TDateTimeE 000000014001d740     rtl:System.Internal.HelperHlpr.o
 0001:0001c760       _ZN6System8Internal10Helperhlpr13TDateTimeHlpr13MonthsBetweenENS_9TDateTimeE 000000014001d760     rtl:System.Internal.HelperHlpr.o
 0001:0001c780       _ZN6System8Internal10Helperhlpr13TDateTimeHlpr12WeeksBetweenENS_9TDateTimeE 000000014001d780     rtl:System.Internal.HelperHlpr.o
 0001:0001c7a0       _ZN6System8Internal10Helperhlpr13TDateTimeHlpr11DaysBetweenENS_9TDateTimeE 000000014001d7a0     rtl:System.Internal.HelperHlpr.o
 0001:0001c7c0       _ZN6System8Internal10Helperhlpr13TDateTimeHlpr12HoursBetweenENS_9TDateTimeE 000000014001d7c0     rtl:System.Internal.HelperHlpr.o
 0001:0001c7e0       _ZN6System8Internal10Helperhlpr13TDateTimeHlpr14MinutesBetweenENS_9TDateTimeE 000000014001d7e0     rtl:System.Internal.HelperHlpr.o
 0001:0001c800       _ZN6System8Internal10Helperhlpr13TDateTimeHlpr14SecondsBetweenENS_9TDateTimeE 000000014001d800     rtl:System.Internal.HelperHlpr.o
 0001:0001c820       _ZN6System8Internal10Helperhlpr13TDateTimeHlpr19MilliSecondsBetweenENS_9TDateTimeE 000000014001d820     rtl:System.Internal.HelperHlpr.o
 0001:0001c840       _ZN6System8Internal10Helperhlpr13TDateTimeHlpr15DateTimeInRangeENS_9TDateTimeES3_b 000000014001d840     rtl:System.Internal.HelperHlpr.o
 0001:0001c860       _ZN6System8Internal10Helperhlpr13TDateTimeHlpr11DateInRangeENS_9TDateTimeES3_b 000000014001d860     rtl:System.Internal.HelperHlpr.o
 0001:0001c880       _ZN6System8Internal10Helperhlpr13TDateTimeHlpr11TimeInRangeENS_9TDateTimeES3_b 000000014001d880     rtl:System.Internal.HelperHlpr.o
 0001:0001c8a0       _ZN6System8Internal10Helperhlpr13TDateTimeHlpr8YearSpanENS_9TDateTimeE 000000014001d8a0     rtl:System.Internal.HelperHlpr.o
 0001:0001c8c0       _ZN6System8Internal10Helperhlpr13TDateTimeHlpr9MonthSpanENS_9TDateTimeE 000000014001d8c0     rtl:System.Internal.HelperHlpr.o
 0001:0001c8e0       _ZN6System8Internal10Helperhlpr13TDateTimeHlpr8WeekSpanENS_9TDateTimeE 000000014001d8e0     rtl:System.Internal.HelperHlpr.o
 0001:0001c900       _ZN6System8Internal10Helperhlpr13TDateTimeHlpr7DaySpanENS_9TDateTimeE 000000014001d900     rtl:System.Internal.HelperHlpr.o
 0001:0001c920       _ZN6System8Internal10Helperhlpr13TDateTimeHlpr8HourSpanENS_9TDateTimeE 000000014001d920     rtl:System.Internal.HelperHlpr.o
 0001:0001c940       _ZN6System8Internal10Helperhlpr13TDateTimeHlpr10MinuteSpanENS_9TDateTimeE 000000014001d940     rtl:System.Internal.HelperHlpr.o
 0001:0001c960       _ZN6System8Internal10Helperhlpr13TDateTimeHlpr10SecondSpanENS_9TDateTimeE 000000014001d960     rtl:System.Internal.HelperHlpr.o
 0001:0001c980       _ZN6System8Internal10Helperhlpr13TDateTimeHlpr15MilliSecondSpanENS_9TDateTimeE 000000014001d980     rtl:System.Internal.HelperHlpr.o
 0001:0001c9a0       _ZN6System8Internal10Helperhlpr13TDateTimeHlpr7IncYearEi 000000014001d9a0     rtl:System.Internal.HelperHlpr.o
 0001:0001c9c0       _ZN6System8Internal10Helperhlpr13TDateTimeHlpr8IncMonthEi 000000014001d9c0     rtl:System.Internal.HelperHlpr.o
 0001:0001c9e0       _ZN6System8Internal10Helperhlpr13TDateTimeHlpr7IncWeekEi 000000014001d9e0     rtl:System.Internal.HelperHlpr.o
 0001:0001ca00       _ZN6System8Internal10Helperhlpr13TDateTimeHlpr6IncDayEi 000000014001da00     rtl:System.Internal.HelperHlpr.o
 0001:0001ca20       _ZN6System8Internal10Helperhlpr13TDateTimeHlpr7IncHourEx 000000014001da20     rtl:System.Internal.HelperHlpr.o
 0001:0001ca50       _ZN6System8Internal10Helperhlpr13TDateTimeHlpr9IncMinuteEx 000000014001da50     rtl:System.Internal.HelperHlpr.o
 0001:0001ca80       _ZN6System8Internal10Helperhlpr13TDateTimeHlpr9IncSecondEx 000000014001da80     rtl:System.Internal.HelperHlpr.o
 0001:0001caa0       _ZN6System8Internal10Helperhlpr13TDateTimeHlpr14IncMilliSecondEx 000000014001daa0     rtl:System.Internal.HelperHlpr.o
 0001:0001cac0       _ZN6System8Internal10Helperhlpr13TDateTimeHlpr9TryEncodeEttttttt 000000014001dac0     rtl:System.Internal.HelperHlpr.o
 0001:0001cb10       _ZN6System8Internal10Helperhlpr13TDateTimeHlpr13TryEncodeWeekEttt 000000014001db10     rtl:System.Internal.HelperHlpr.o
 0001:0001cb30       _ZN6System8Internal10Helperhlpr13TDateTimeHlpr12TryEncodeDayEtt 000000014001db30     rtl:System.Internal.HelperHlpr.o
 0001:0001cb50       _ZN6System8Internal10Helperhlpr13TDateTimeHlpr18TryEncodeMonthWeekEtttt 000000014001db50     rtl:System.Internal.HelperHlpr.o
 0001:0001cb80       _ZN6System8Internal10Helperhlpr13TDateTimeHlpr11SetDateTimeEttttttt 000000014001db80     rtl:System.Internal.HelperHlpr.o
 0001:0001cbd0       _ZN6System8Internal10Helperhlpr13TDateTimeHlpr15CompareDateTimeENS_9TDateTimeE 000000014001dbd0     rtl:System.Internal.HelperHlpr.o
 0001:0001cbf0       _ZN6System8Internal10Helperhlpr13TDateTimeHlpr12SameDateTimeENS_9TDateTimeE 000000014001dbf0     rtl:System.Internal.HelperHlpr.o
 0001:0001cc10       _ZN6System8Internal10Helperhlpr13TDateTimeHlpr11CompareDateENS_9TDateTimeE 000000014001dc10     rtl:System.Internal.HelperHlpr.o
 0001:0001cc30       _ZN6System8Internal10Helperhlpr13TDateTimeHlpr8SameDateENS_9TDateTimeE 000000014001dc30     rtl:System.Internal.HelperHlpr.o
 0001:0001cc50       _ZN6System8Internal10Helperhlpr13TDateTimeHlpr11CompareTimeENS_9TDateTimeE 000000014001dc50     rtl:System.Internal.HelperHlpr.o
 0001:0001cc70       _ZN6System8Internal10Helperhlpr13TDateTimeHlpr8SameTimeENS_9TDateTimeE 000000014001dc70     rtl:System.Internal.HelperHlpr.o
 0001:0001cc90       _ZN6System8Internal10Helperhlpr13TDateTimeHlpr12NthDayOfWeekEv 000000014001dc90     rtl:System.Internal.HelperHlpr.o
 0001:0001ccb0       _ZN6System8Internal10Helperhlpr13TDateTimeHlpr25TryEncodeDayOfWeekInMonthEtttt 000000014001dcb0     rtl:System.Internal.HelperHlpr.o
 0001:0001cce0       _ZN6System8Internal10Helperhlpr13TDateTimeHlpr12ToJulianDateEv 000000014001dce0     rtl:System.Internal.HelperHlpr.o
 0001:0001cd00       _ZN6System8Internal10Helperhlpr13TDateTimeHlpr16TrySetJulianDateEd 000000014001dd00     rtl:System.Internal.HelperHlpr.o
 0001:0001cd20       _ZN6System8Internal10Helperhlpr13TDateTimeHlpr20ToModifiedJulianDateEv 000000014001dd20     rtl:System.Internal.HelperHlpr.o
 0001:0001cd40       _ZN6System8Internal10Helperhlpr13TDateTimeHlpr24TrySetModifiedJulianDateEd 000000014001dd40     rtl:System.Internal.HelperHlpr.o
 0001:0001cd60       _ZN6System8Internal10Helperhlpr13TDateTimeHlpr6ToUnixEb 000000014001dd60     rtl:System.Internal.HelperHlpr.o
 0001:0001cd80       _ZN6System8Internal10Helperhlpr13TDateTimeHlpr14ToMillisecondsEv 000000014001dd80     rtl:System.Internal.HelperHlpr.o
 0001:0001cda0       _ZN6System8Internal10Helperhlpr13TDateTimeHlpr18TimeToMillisecondsEv 000000014001dda0     rtl:System.Internal.HelperHlpr.o
 0001:0001cdc0       _ZN6System8Internal10Helperhlpr13TDateTimeHlpr13TrySetISO8601ENS_13UnicodeStringEb 000000014001ddc0     rtl:System.Internal.HelperHlpr.o
 0001:0001cde0       _ZN6System8Internal10Helperhlpr13TDateTimeHlpr9ToISO8601Eb 000000014001dde0     rtl:System.Internal.HelperHlpr.o
 0001:0001ce00       _ZN6System8Internal10Helperhlpr13TDateTimeHlpr8ToStringEv 000000014001de00     rtl:System.Internal.HelperHlpr.o
 0001:0001ce30       _ZN6System8Internal10Helperhlpr13TDateTimeHlpr8ToStringERKNS_8Sysutils15TFormatSettingsE 000000014001de30     rtl:System.Internal.HelperHlpr.o
 0001:0001ce60       _ZN6System8Internal10Helperhlpr13TDateTimeHlpr6FormatENS_13UnicodeStringE 000000014001de60     rtl:System.Internal.HelperHlpr.o
 0001:0001ce90       _ZN6System8Internal10Helperhlpr13TDateTimeHlpr6FormatENS_13UnicodeStringERKNS_8Sysutils15TFormatSettingsE 000000014001de90     rtl:System.Internal.HelperHlpr.o
 0001:0001cec0       _ZN6System8Internal10Helperhlpr13TDateTimeHlpr7AddYearEi 000000014001dec0     rtl:System.Internal.HelperHlpr.o
 0001:0001cee0       _ZN6System8Internal10Helperhlpr13TDateTimeHlpr8AddMonthEi 000000014001dee0     rtl:System.Internal.HelperHlpr.o
 0001:0001cf00       _ZN6System8Internal10Helperhlpr13TDateTimeHlpr7AddWeekEi 000000014001df00     rtl:System.Internal.HelperHlpr.o
 0001:0001cf20       _ZN6System8Internal10Helperhlpr13TDateTimeHlpr6AddDayEi 000000014001df20     rtl:System.Internal.HelperHlpr.o
 0001:0001cf40       _ZN6System8Internal10Helperhlpr13TDateTimeHlpr7AddHourEx 000000014001df40     rtl:System.Internal.HelperHlpr.o
 0001:0001cf60       _ZN6System8Internal10Helperhlpr13TDateTimeHlpr9AddMinuteEx 000000014001df60     rtl:System.Internal.HelperHlpr.o
 0001:0001cf80       _ZN6System8Internal10Helperhlpr13TDateTimeHlpr9AddSecondEx 000000014001df80     rtl:System.Internal.HelperHlpr.o
 0001:0001cfa0       _ZN6System8Internal10Helperhlpr13TDateTimeHlpr14AddMilliSecondEx 000000014001dfa0     rtl:System.Internal.HelperHlpr.o
 0001:0001cfc0       _ZN6System8Internal10Helperhlpr13TDateTimeHlpr6EncodeEttttttt 000000014001dfc0     rtl:System.Internal.HelperHlpr.o
 0001:0001d010       _ZN6System8Internal10Helperhlpr13TDateTimeHlpr6DecodeERtS3_S3_S3_S3_S3_S3_ 000000014001e010     rtl:System.Internal.HelperHlpr.o
 0001:0001d0b0       _ZN6System8Internal10Helperhlpr13TDateTimeHlpr10EncodeWeekEttt 000000014001e0b0     rtl:System.Internal.HelperHlpr.o
 0001:0001d0d0       _ZN6System8Internal10Helperhlpr13TDateTimeHlpr10DecodeWeekERtS3_S3_ 000000014001e0d0     rtl:System.Internal.HelperHlpr.o
 0001:0001d110       _ZN6System8Internal10Helperhlpr13TDateTimeHlpr9EncodeDayEtt 000000014001e110     rtl:System.Internal.HelperHlpr.o
 0001:0001d130       _ZN6System8Internal10Helperhlpr13TDateTimeHlpr9DecodeDayERtS3_ 000000014001e130     rtl:System.Internal.HelperHlpr.o
 0001:0001d160       _ZN6System8Internal10Helperhlpr13TDateTimeHlpr15EncodeMonthWeekEtttt 000000014001e160     rtl:System.Internal.HelperHlpr.o
 0001:0001d190       _ZN6System8Internal10Helperhlpr13TDateTimeHlpr15DecodeMonthWeekERtS3_S3_S3_ 000000014001e190     rtl:System.Internal.HelperHlpr.o
 0001:0001d1e0       _ZN6System8Internal10Helperhlpr13TDateTimeHlpr7SetYearEt 000000014001e1e0     rtl:System.Internal.HelperHlpr.o
 0001:0001d200       _ZN6System8Internal10Helperhlpr13TDateTimeHlpr8SetMonthEt 000000014001e200     rtl:System.Internal.HelperHlpr.o
 0001:0001d220       _ZN6System8Internal10Helperhlpr13TDateTimeHlpr6SetDayEt 000000014001e220     rtl:System.Internal.HelperHlpr.o
 0001:0001d240       _ZN6System8Internal10Helperhlpr13TDateTimeHlpr7SetHourEt 000000014001e240     rtl:System.Internal.HelperHlpr.o
 0001:0001d260       _ZN6System8Internal10Helperhlpr13TDateTimeHlpr9SetMinuteEt 000000014001e260     rtl:System.Internal.HelperHlpr.o
 0001:0001d280       _ZN6System8Internal10Helperhlpr13TDateTimeHlpr9SetSecondEt 000000014001e280     rtl:System.Internal.HelperHlpr.o
 0001:0001d2a0       _ZN6System8Internal10Helperhlpr13TDateTimeHlpr14SetMilliSecondEt 000000014001e2a0     rtl:System.Internal.HelperHlpr.o
 0001:0001d2c0       _ZN6System8Internal10Helperhlpr13TDateTimeHlpr7SetDateEttt 000000014001e2c0     rtl:System.Internal.HelperHlpr.o
 0001:0001d2e0       _ZN6System8Internal10Helperhlpr13TDateTimeHlpr7SetTimeEtttt 000000014001e2e0     rtl:System.Internal.HelperHlpr.o
 0001:0001d310       _ZN6System8Internal10Helperhlpr13TDateTimeHlpr22DecodeDayOfWeekInMonthERtS3_S3_S3_ 000000014001e310     rtl:System.Internal.HelperHlpr.o
 0001:0001d360       _ZN6System8Internal10Helperhlpr13TDateTimeHlpr22EncodeDayOfWeekInMonthEtttt 000000014001e360     rtl:System.Internal.HelperHlpr.o
 0001:0001d390       _ZN6System8Internal10Helperhlpr13TDateTimeHlpr13SetJulianDateEd 000000014001e390     rtl:System.Internal.HelperHlpr.o
 0001:0001d3b0       _ZN6System8Internal10Helperhlpr13TDateTimeHlpr21SetModifiedJulianDateEd 000000014001e3b0     rtl:System.Internal.HelperHlpr.o
 0001:0001d3d0       _ZN6System8Internal10Helperhlpr13TDateTimeHlpr7SetUnixExb 000000014001e3d0     rtl:System.Internal.HelperHlpr.o
 0001:0001d3f0       _ZN6System8Internal10Helperhlpr13TDateTimeHlpr10SetISO8601ENS_13UnicodeStringEb 000000014001e3f0     rtl:System.Internal.HelperHlpr.o
 0001:0001d410       _ZN6System8Internal10Helperhlpr13TDateTimeHlpr11SetHttpDateENS_13UnicodeStringEb 000000014001e410     rtl:System.Internal.HelperHlpr.o
 0001:0001d430       _ZN6System8Internal10Helperhlpr12FinalizationEv 000000014001e430     rtl:System.Internal.HelperHlpr.o
 0001:0001d440       _ZN6System8Internal10Helperhlpr14initializationEv 000000014001e440     rtl:System.Internal.HelperHlpr.o
 0001:0001d450       __local_stdio_printf_options 000000014001e450     libucrt:lib64_libucrt_extra_a-ucrt___local_stdio_printf_options.o
 0001:0001d460       calloc                     000000014001e460     libmingw32:lib64_libmingw32_a-calloc.o
 0001:0001d4c0       vsnprintf                  000000014001e4c0     libucrt:lib64_libucrt_extra_a-ucrt_vsnprintf.o
 0001:0001d520       _fWinMain                  000000014001e520     libmingw32:lib64_libmingw32_a-fmxwin.o
 0001:0001d520       .weak._fWinMain.default._fWinMainCRTStartup 000000014001e520     libmingw32:lib64_libmingw32_a-fmxwin.o
 0001:0001d550       wWinMain                   000000014001e550     libmingw32:lib64_libmingw32_a-fmxwin.o
 0001:0001d550       _fwWinMain                 000000014001e550     libmingw32:lib64_libmingw32_a-fmxwin.o
 0001:0001d550       .weak._fwWinMain.default._fWinMainCRTStartup 000000014001e550     libmingw32:lib64_libmingw32_a-fmxwin.o
 0001:0001d580       _fWinMainCRTStartup        000000014001e580     libmingw32:lib64_libmingw32_a-fmxwin.o
 0001:0001d760       _ZN6System8Internal7Initcpp15InitializeUnitsEPNS1_20TUnitDescriptorBlockES3_ 000000014001e760     rtl:System.Internal.InitCPP.o
 0001:0001d7b0       _ZN6System8Internal7Initcpp13FinalizeUnitsEPNS1_20TUnitDescriptorBlockES3_ 000000014001e7b0     rtl:System.Internal.InitCPP.o
 0001:0001d800       _ZN6System8Internal7Initcpp15InitializeUnitsEPPNS1_20TUnitDescriptorBlockES4_ 000000014001e800     rtl:System.Internal.InitCPP.o
 0001:0001d850       _ZN6System8Internal7Initcpp13FinalizeUnitsEPPNS1_20TUnitDescriptorBlockES4_ 000000014001e850     rtl:System.Internal.InitCPP.o
 0001:0001d8a0       _ZN6System8Internal7Initcpp15InitializeUnitsEPNS1_15TUnitDescriptorES3_ 000000014001e8a0     rtl:System.Internal.InitCPP.o
 0001:0001d8b0       _ZN6System8Internal7Initcpp13FinalizeUnitsEPNS1_15TUnitDescriptorES3_ 000000014001e8b0     rtl:System.Internal.InitCPP.o
 0001:0001d8c0       _ZN6System8Internal7Initcpp15CalculateDegreeEPNS1_20TUnitDescriptorBlockES3_ 000000014001e8c0     rtl:System.Internal.InitCPP.o
 0001:0001d8f0       _ZN6System8Internal7Initcpp15CalculateDegreeEPPNS1_20TUnitDescriptorBlockES4_ 000000014001e8f0     rtl:System.Internal.InitCPP.o
 0001:0001d920       _ZN6System8Internal7Initcpp18InitializeRootUnitEPNS1_15TUnitDescriptorE 000000014001e920     rtl:System.Internal.InitCPP.o
 0001:0001db00       _ZN6System8Internal7Initcpp16FinalizeRootUnitEPNS1_15TUnitDescriptorE 000000014001eb00     rtl:System.Internal.InitCPP.o
 0001:0001dbd0       _ZN6System8Internal7Initcpp12FinalizationEv 000000014001ebd0     rtl:System.Internal.InitCPP.o
 0001:0001dbe0       _ZN6System8Internal7Initcpp14initializationEv 000000014001ebe0     rtl:System.Internal.InitCPP.o
 0001:0001dcc0       _Z15__hook_delphiehv       000000014001ecc0     libmingw32:lib64_libmingw32_a-hook_delphieh.o
 0001:0001deb0       _fastmm_malloc             000000014001eeb0     libmingw32:lib64_libmingw32_a-hook_fastmm.o
 0001:0001dee0       _fastmm_free               000000014001eee0     libmingw32:lib64_libmingw32_a-hook_fastmm.o
 0001:0001df10       _fastmm_realloc            000000014001ef10     libmingw32:lib64_libmingw32_a-hook_fastmm.o
 0001:0001df40       _fastmm_calloc             000000014001ef40     libmingw32:lib64_libmingw32_a-hook_fastmm.o
 0001:0001dfb0       _fastmm__msize             000000014001efb0     libmingw32:lib64_libmingw32_a-hook_fastmm.o
 0001:0001e060       _Z13__hook_fastmmv         000000014001f060     libmingw32:lib64_libmingw32_a-hook_fastmm.o
 0001:0001e0a0       _internal_malloc           000000014001f0a0     libmingw32:lib64_libmingw32_a-hook_delphimm.o
 0001:0001e0c0       _internal_allocmem         000000014001f0c0     libmingw32:lib64_libmingw32_a-hook_delphimm.o
 0001:0001e0e0       _internal_free             000000014001f0e0     libmingw32:lib64_libmingw32_a-hook_delphimm.o
 0001:0001e110       _internal_realloc          000000014001f110     libmingw32:lib64_libmingw32_a-hook_delphimm.o
 0001:0001e190       _internal_free_heaps       000000014001f190     libmingw32:lib64_libmingw32_a-hook_delphimm.o
 0001:0001e1a0       _internal_regmem           000000014001f1a0     libmingw32:lib64_libmingw32_a-hook_delphimm.o
 0001:0001e1b0       _internal_unreg_mem        000000014001f1b0     libmingw32:lib64_libmingw32_a-hook_delphimm.o
 0001:0001e1c0       _Z15__hook_delphimmv       000000014001f1c0     libmingw32:lib64_libmingw32_a-hook_delphimm.o
 0001:0001e220       realloc                    000000014001f220     libmingw32:lib64_libmingw32_a-realloc.o
 0001:0001e280       _ZN6System23_DelphiExceptionHandlerEPNS_16TExceptionRecordEyPvS2_ 000000014001f280     rtl:rtl370.bpl
 0001:0001e290       _ZN6System9_RunErrorEh     000000014001f290     rtl:rtl370.bpl
 0001:0001e2a0       _ZN6System14RegisterModuleEPNS_10TLibModuleE 000000014001f2a0     rtl:rtl370.bpl
 0001:0001e2b0       _ZN6System16UnregisterModuleEPNS_10TLibModuleE 000000014001f2b0     rtl:rtl370.bpl
 0001:0001e2c0       _ZN6System13FindHInstanceEPv 000000014001f2c0     rtl:rtl370.bpl
 0001:0001e2d0       _ZN6System11_DoneExceptEv  000000014001f2d0     rtl:rtl370.bpl
 0001:0001e2e0       _ZN6System17_DestroyExceptionEP18TExceptionPointersy 000000014001f2e0     rtl:rtl370.bpl
 0001:0001e2f0       _ZN6System12_PackageLoadEPNS_16PackageInfoTableEPNS_10TLibModuleE 000000014001f2f0     rtl:rtl370.bpl
 0001:0001e300       _ZN6System14_PackageUnloadEPNS_16PackageInfoTableEPNS_10TLibModuleE 000000014001f300     rtl:rtl370.bpl
 0001:0001e310       _ZN6System9_StartLibEPNS_12TInitContextEPNS_16PackageInfoTableEPNS_10TLibModuleEPvPFviS6_EyjS6_ 000000014001f310     rtl:rtl370.bpl
 0001:0001e320       _ZN6System9_StartExeEPNS_16PackageInfoTableEPNS_10TLibModuleE 000000014001f320     rtl:rtl370.bpl
 0001:0001e330       _ZN6System14initializationEv 000000014001f330     rtl:rtl370.bpl
 0001:0001e340       _ZN3Fmx5Forms12TApplication10InitializeEv 000000014001f340     fmx:fmx370.bpl
 0001:0001e350       _ZN3Fmx5Forms12TApplication10CreateFormEN6System7Classes15TComponentClassEPv 000000014001f350     fmx:fmx370.bpl
 0001:0001e360       _ZN3Fmx5Forms12TApplication3RunEv 000000014001f360     fmx:fmx370.bpl
 0001:0001e370       _ZN3Fmx5Forms12TApplication13ShowExceptionEPN6System8Sysutils9ExceptionE 000000014001f370     fmx:fmx370.bpl
 0001:0001e380       _ZN6System8Sysutils9ExceptionC3ENS_13UnicodeStringE 000000014001f380     rtl:rtl370.bpl
 0001:0001e390       _ZN6System8Sysutils9ExceptionD0Ev 000000014001f390     rtl:rtl370.bpl
 0001:0001e3a0       _ZN3Fmx5Forms11TCustomFormC3EPN6System7Classes10TComponentE 000000014001f3a0     fmx:fmx370.bpl
 0001:0001e3b0       _ZN3Fmx8Stdctrls13TCustomSwitch12SetIsCheckedEb 000000014001f3b0     fmx:fmx370.bpl
 0001:0001e3c0       _ZN3Fmx8Stdctrls13TCustomSwitch11SetOnSwitchEU9__closurePFvPN6System7TObjectEE 000000014001f3c0     fmx:fmx370.bpl
 0001:0001e3d0       _ZN3Fmx7Types3d11TPosition3D4SetXEf 000000014001f3d0     fmx:fmx370.bpl
 0001:0001e3e0       _ZN3Fmx7Types3d11TPosition3D4SetYEf 000000014001f3e0     fmx:fmx370.bpl
 0001:0001e3f0       _ZN3Fmx7Types3d11TPosition3D4SetZEf 000000014001f3f0     fmx:fmx370.bpl
 0001:0001e400       _ZN3Fmx10Controls3d10TControl3D10SetOpacityEf 000000014001f400     fmx:fmx370.bpl
 0001:0001e410       _ZN3Fmx9Objects3d8TShape3D17SetMaterialSourceEPNS_15Materialsources15TMaterialSourceE 000000014001f410     fmx:fmx370.bpl
 0001:0001e420       _ZN3Fmx15Materialsources20TLightMaterialSource10SetDiffuseEj 000000014001f420     fmx:fmx370.bpl
 0001:0001e430       _ZN3Fmx15Materialsources20TLightMaterialSource11SetEmissiveEj 000000014001f430     fmx:fmx370.bpl
 0001:0001e440       _ZN3Fmx10Controls3d10TControl3D10SetHitTestEb 000000014001f440     fmx:fmx370.bpl
 0001:0001e450       _ZN3Fmx10Viewport3d11TViewport3D7SetFillEj 000000014001f450     fmx:fmx370.bpl
 0001:0001e460       _ZN3Fmx10Viewport3d11TViewport3D20SetUsingDesignCameraEb 000000014001f460     fmx:fmx370.bpl
 0001:0001e470       _ZN6System4Math7Vectors7Point3DEfff 000000014001f470     rtl:rtl370.bpl
 0001:0001e480       _ZN3Fmx7Types3d11TPosition3D10SetPoint3DERKN6System4Math7Vectors8TPoint3DE 000000014001f480     fmx:fmx370.bpl
 0001:0001e490       _ZN3Fmx15Materialsources20TLightMaterialSourceC3EPN6System7Classes10TComponentE 000000014001f490     fmx:fmx370.bpl
 0001:0001e4a0       _ZN3Fmx9Objects3d7TSphere19SetSubdivisionsAxesEi 000000014001f4a0     fmx:fmx370.bpl
 0001:0001e4b0       _ZN3Fmx10Controls3d6TLight12SetLightTypeENS_7Types3d10TLightTypeE 000000014001f4b0     fmx:fmx370.bpl
 0001:0001e4c0       _ZN3Fmx8Graphics7TBitmap12LoadFromFileEN6System13UnicodeStringE 000000014001f4c0     fmx:fmx370.bpl
 0001:0001e4d0       _ZN3Fmx9Objects3d8TShape3D11SetWrapModeENS0_13TMeshWrapModeE 000000014001f4d0     fmx:fmx370.bpl
 0001:0001e4e0       _ZN3Fmx9Objects3d7TSphere21SetSubdivisionsHeightEi 000000014001f4e0     fmx:fmx370.bpl
 0001:0001e4f0       _ZN3Fmx8Graphics7TBitmapC3Ev 000000014001f4f0     fmx:fmx370.bpl
 0001:0001e500       _ZN3Fmx8Graphics6TBrush7SetKindENS0_10TBrushKindE 000000014001f500     fmx:fmx370.bpl
 0001:0001e510       _ZN3Fmx8Graphics12TBrushBitmap11SetWrapModeENS0_9TWrapModeE 000000014001f510     fmx:fmx370.bpl
 0001:0001e520       _ZN3Fmx8Stdctrls13TCustomSwitch12GetIsCheckedEv 000000014001f520     fmx:fmx370.bpl
 0001:0001e530       _ZN3Fmx8Stdctrls12TCustomTrack8GetValueEv 000000014001f530     fmx:fmx370.bpl
 0001:0001e540       _ZN6System8Sysutils11FormatFloatENS_13UnicodeStringEe 000000014001f540     rtl:rtl370.bpl
 0001:0001e550       _ZN6System4Math8DegToRadEf 000000014001f550     rtl:rtl370.bpl
 0001:0001e560       _ZN3Fmx9Objects3d7TSphereC3EPN6System7Classes10TComponentE 000000014001f560     fmx:fmx370.bpl
 0001:0001e570       _ZN6System7TObject9DisposeOfEv 000000014001f570     rtl:rtl370.bpl
 0001:0001e580       _ZN6System8Sysutils10StrToFloatENS_13UnicodeStringE 000000014001f580     rtl:rtl370.bpl
 0001:0001e590       _ZN3Fmx8Stdctrls12TCustomTrack8SetValueEd 000000014001f590     fmx:fmx370.bpl
 0001:0001e5a0       _ZN6System8Sysutils11FloatToStrFEeNS0_12TFloatFormatEii 000000014001f5a0     rtl:rtl370.bpl
 0001:0001e5b0       _ZN6System3Net19Httpclientcomponent14TNetHTTPClientC3EPNS_7Classes10TComponentE 000000014001f5b0     rtl:rtl370.bpl
 0001:0001e5c0       _ZN6System3Net19Httpclientcomponent14TNetHTTPClient20SetConnectionTimeoutEi 000000014001f5c0     rtl:rtl370.bpl
 0001:0001e5d0       _ZN6System3Net19Httpclientcomponent14TNetHTTPClient18SetResponseTimeoutEi 000000014001f5d0     rtl:rtl370.bpl
 0001:0001e5e0       _ZN6System3Net19Httpclientcomponent14TNetHTTPClient20SetCustomHeaderValueENS_13UnicodeStringES3_ 000000014001f5e0     rtl:rtl370.bpl
 0001:0001e5f0       _ZN6System3Net19Httpclientcomponent14TNetHTTPClient14SetContentTypeENS_13UnicodeStringE 000000014001f5f0     rtl:rtl370.bpl
 0001:0001e600       _ZN6System7Classes13TStringStreamC3ENS_13UnicodeStringE 000000014001f600     rtl:rtl370.bpl
 0001:0001e610       _ZN6System3Net19Httpclientcomponent14TNetHTTPClient4PostENS_13UnicodeStringEPNS_7Classes7TStreamES6_NS_12DynamicArrayINS0_9Urlclient14TNameValuePairEEE 000000014001f610     rtl:rtl370.bpl
 0001:0001e620       _ZN6System7Classes13TStringStream13GetDataStringEv 000000014001f620     rtl:rtl370.bpl
 0001:0001e630       _ZN6System9Threading5TTask3RunENS_15DelphiInterfaceINS_8Sysutils5TProcEEE 000000014001f630     rtl:rtl370.bpl
 0001:0001e640       _ZN6System7Classes11TStringListC3Ev 000000014001f640     rtl:rtl370.bpl
 0001:0001e650       _ZN6System7Classes8TStrings16SetDelimitedTextENS_13UnicodeStringE 000000014001f650     rtl:rtl370.bpl
 0001:0001e660       _ZN6System8Sysutils13StrToFloatDefENS_13UnicodeStringEe 000000014001f660     rtl:rtl370.bpl
 0001:0001e670       _ZN3Fmx5Forms11TCustomFormC3EPN6System7Classes10TComponentEx 000000014001f670     fmx:fmx370.bpl
 0001:0001e680       _ZN3Fmx5Forms11TCustomFormD0Ev 000000014001f680     fmx:fmx370.bpl
 0001:0001e690       _ZN6System16_DynArrayReleaseEPv 000000014001f690     rtl:rtl370.bpl
 0001:0001e6a0       _ZN6System15_DynArrayAddRefEPv 000000014001f6a0     rtl:rtl370.bpl
 0001:0001e6b0       _ZN6System10FreeMemoryEPv  000000014001f6b0     rtl:rtl370.bpl
 0001:0001e6c0       _ZN6System17TInterfacedObject7_AddRefEv 000000014001f6c0     rtl:rtl370.bpl
 0001:0001e6d0       _ZN6System17TInterfacedObject8_ReleaseEv 000000014001f6d0     rtl:rtl370.bpl
 0001:0001e6e0       _ZN6System17TInterfacedObject14QueryInterfaceERK5_GUIDPv 000000014001f6e0     rtl:rtl370.bpl
 0001:0001e6f0       _ZN6System7TObjectC3Ev     000000014001f6f0     rtl:rtl370.bpl
 0001:0001e700       _ZN6System7Classes8TStrings18SetStrictDelimiterEb 000000014001f700     rtl:rtl370.bpl
 0001:0001e710       _ZN6System7Classes7TThread5QueueEPS1_NS_15DelphiInterfaceINS0_16TThreadProcedureEEE 000000014001f710     rtl:rtl370.bpl
 0001:0001e720       _ZN3Fmx8Stdctrls21TPresentedTextControl15GetTextSettingsEv 000000014001f720     fmx:fmx370.bpl
 0001:0001e730       _ZN3Fmx8Graphics13TTextSettings12SetFontColorEj 000000014001f730     fmx:fmx370.bpl
 0001:0001e740       _ZN6System7TObjectD0Ev     000000014001f740     rtl:rtl370.bpl
 0001:0001e750       _ZN6System7TObject6EqualsEPS0_ 000000014001f750     rtl:rtl370.bpl
 0001:0001e760       _ZN6System7TObject11GetHashCodeEv 000000014001f760     rtl:rtl370.bpl
 0001:0001e770       _ZN6System7TObject8ToStringEv 000000014001f770     rtl:rtl370.bpl
 0001:0001e780       _ZN6System7Classes10TComponent17SafeCallExceptionEPNS_7TObjectEPv 000000014001f780     rtl:rtl370.bpl
 0001:0001e790       _ZN3Fmx5Forms17TCommonCustomForm17AfterConstructionEv 000000014001f790     fmx:fmx370.bpl
 0001:0001e7a0       _ZN3Fmx5Forms17TCommonCustomForm17BeforeDestructionEv 000000014001f7a0     fmx:fmx370.bpl
 0001:0001e7b0       _ZN6System7TObject8DispatchEPv 000000014001f7b0     rtl:rtl370.bpl
 0001:0001e7c0       _ZN6System7TObject14DefaultHandlerEPv 000000014001f7c0     rtl:rtl370.bpl
 0001:0001e7d0       _ZN6System7TObject11NewInstanceEv 000000014001f7d0     rtl:rtl370.bpl
 0001:0001e7e0       _ZN6System7TObject12FreeInstanceEv 000000014001f7e0     rtl:rtl370.bpl
 0001:0001e7f0       _ZN6System7Classes11TPersistent8AssignToEPS1_ 000000014001f7f0     rtl:rtl370.bpl
 0001:0001e800       _ZN3Fmx5Forms17TCommonCustomForm16DefinePropertiesEPN6System7Classes6TFilerE 000000014001f800     fmx:fmx370.bpl
 0001:0001e810       _ZN6System7Classes11TPersistent6AssignEPS1_ 000000014001f810     rtl:rtl370.bpl
 0001:0001e820       _ZN6System7Classes10TComponent13AsyncScheduleEPNS0_16TBaseAsyncResultE 000000014001f820     rtl:rtl370.bpl
 0001:0001e830       _ZN3Fmx5Forms17TCommonCustomForm6LoadedEv 000000014001f830     fmx:fmx370.bpl
 0001:0001e840       _ZN3Fmx5Forms11TCustomForm12NotificationEPN6System7Classes10TComponentENS3_10TOperationE 000000014001f840     fmx:fmx370.bpl
 0001:0001e850       _ZN6System7Classes10TComponent9ReadStateEPNS0_7TReaderE 000000014001f850     rtl:rtl370.bpl
 0001:0001e860       _ZN6System7Classes10TComponent10CanObserveEi 000000014001f860     rtl:rtl370.bpl
 0001:0001e870       _ZN6System7Classes10TComponent13ObserverAddedEiNS_15DelphiInterfaceINS0_9IObserverEEE 000000014001f870     rtl:rtl370.bpl
 0001:0001e880       _ZN6System7Classes10TComponent12GetObserversEv 000000014001f880     rtl:rtl370.bpl
 0001:0001e890       _ZN6System7Classes10TComponent7SetNameENS_13UnicodeStringE 000000014001f890     rtl:rtl370.bpl
 0001:0001e8a0       _ZN6System7Classes10TComponent14UpdateRegistryEbNS_13UnicodeStringES2_ 000000014001f8a0     rtl:rtl370.bpl
 0001:0001e8b0       _ZN3Fmx5Forms17TCommonCustomForm14ValidateRenameEPN6System7Classes10TComponentENS2_13UnicodeStringES6_ 000000014001f8b0     fmx:fmx370.bpl
 0001:0001e8c0       _ZN6System7Classes10TComponent10WriteStateEPNS0_7TWriterE 000000014001f8c0     rtl:rtl370.bpl
 0001:0001e8d0       _ZN3Fmx5Forms17TCommonCustomForm14QueryInterfaceERK5_GUIDPv 000000014001f8d0     fmx:fmx370.bpl
 0001:0001e8e0       _ZN6System7Classes10TComponent12UpdateActionEPNS0_12TBasicActionE 000000014001f8e0     rtl:rtl370.bpl
 0001:0001e8f0       _ZN3Fmx5Types10TFmxObject18CreateChildrenListEPN6System8Generics11Collections8TList__1IPS1_EE 000000014001f8f0     fmx:fmx370.bpl
 0001:0001e900       _ZN3Fmx5Forms17TCommonCustomForm12GetBackIndexEv 000000014001f900     fmx:fmx370.bpl
 0001:0001e910       _ZN3Fmx5Forms17TCommonCustomForm18GetActionLinkClassEv 000000014001f910     fmx:fmx370.bpl
 0001:0001e920       _ZN3Fmx5Types10TFmxObject14InitiateActionEv 000000014001f920     fmx:fmx370.bpl
 0001:0001e930       _ZN3Fmx5Types10TFmxObject14DoActionChangeEPN6System7TObjectE 000000014001f930     fmx:fmx370.bpl
 0001:0001e940       _ZN3Fmx5Forms17TCommonCustomForm12ActionChangeEPN6System7Classes12TBasicActionEb 000000014001f940     fmx:fmx370.bpl
 0001:0001e950       _ZN3Fmx5Types10TFmxObject21DoActionClientChangedEv 000000014001f950     fmx:fmx370.bpl
 0001:0001e960       _ZN3Fmx5Types10TFmxObject17AddToResourcePoolEv 000000014001f960     fmx:fmx370.bpl
 0001:0001e970       _ZN3Fmx5Types10TFmxObject22RemoveFromResourcePoolEv 000000014001f970     fmx:fmx370.bpl
 0001:0001e980       _ZN3Fmx5Types10TFmxObject9SetParentEPS1_ 000000014001f980     fmx:fmx370.bpl
 0001:0001e990       _ZN3Fmx5Types10TFmxObject14DoRootChangingEN6System15DelphiInterfaceINS0_5IRootEEE 000000014001f990     fmx:fmx370.bpl
 0001:0001e9a0       _ZN3Fmx5Forms17TCommonCustomForm13DoRootChangedEv 000000014001f9a0     fmx:fmx370.bpl
 0001:0001e9b0       _ZN3Fmx5Types10TFmxObject13ParentChangedEv 000000014001f9b0     fmx:fmx370.bpl
 0001:0001e9c0       _ZN3Fmx5Types10TFmxObject11ChangeOrderEv 000000014001f9c0     fmx:fmx370.bpl
 0001:0001e9d0       _ZN3Fmx5Forms11TCustomForm14ChangeChildrenEv 000000014001f9d0     fmx:fmx370.bpl
 0001:0001e9e0       _ZN3Fmx5Forms11TCustomForm11DoAddObjectEPNS_5Types10TFmxObjectE 000000014001f9e0     fmx:fmx370.bpl
 0001:0001e9f0       _ZN3Fmx5Types10TFmxObject14DoInsertObjectEiPS1_ 000000014001f9f0     fmx:fmx370.bpl
 0001:0001ea00       _ZN3Fmx5Forms11TCustomForm14DoRemoveObjectEPNS_5Types10TFmxObjectE 000000014001fa00     fmx:fmx370.bpl
 0001:0001ea10       _ZN3Fmx5Forms11TCustomForm16DoDeleteChildrenEv 000000014001fa10     fmx:fmx370.bpl
 0001:0001ea20       _ZN3Fmx5Types10TFmxObject10SearchIntoEv 000000014001fa20     fmx:fmx370.bpl
 0001:0001ea30       _ZN3Fmx5Forms17TCommonCustomForm16FreeNotificationEPN6System7TObjectE 000000014001fa30     fmx:fmx370.bpl
 0001:0001ea40       _ZN3Fmx5Types10TFmxObject23SupportsPlatformServiceERK5_GUIDPv 000000014001fa40     fmx:fmx370.bpl
 0001:0001ea50       _ZN3Fmx5Types10TFmxObject7GetDataEv 000000014001fa50     fmx:fmx370.bpl
 0001:0001ea60       _ZN3Fmx5Types10TFmxObject7SetDataERKN6System4Rtti6TValueE 000000014001fa60     fmx:fmx370.bpl
 0001:0001ea70       _ZN3Fmx5Forms17TCommonCustomForm7ReleaseEv 000000014001fa70     fmx:fmx370.bpl
 0001:0001ea80       _ZN3Fmx5Types10TFmxObject14ContainsObjectEPS1_ 000000014001fa80     fmx:fmx370.bpl
 0001:0001ea90       _ZN3Fmx5Types10TFmxObject8ExchangeEPS1_S2_ 000000014001fa90     fmx:fmx370.bpl
 0001:0001eaa0       _ZN3Fmx5Types10TFmxObject7IsChildEPS1_ 000000014001faa0     fmx:fmx370.bpl
 0001:0001eab0       _ZN3Fmx5Forms17TCommonCustomForm12BringToFrontEv 000000014001fab0     fmx:fmx370.bpl
 0001:0001eac0       _ZN3Fmx5Forms17TCommonCustomForm10SendToBackEv 000000014001fac0     fmx:fmx370.bpl
 0001:0001ead0       _ZN3Fmx5Types10TFmxObject4SortEN6System15DelphiInterfaceINS0_21TFmxObjectSortCompareEEE 000000014001fad0     fmx:fmx370.bpl
 0001:0001eae0       _ZN3Fmx5Types10TFmxObject17FindStyleResourceEN6System13UnicodeStringEb 000000014001fae0     fmx:fmx370.bpl
 0001:0001eaf0       _ZN3Fmx5Forms17TCommonCustomForm8RecreateEv 000000014001faf0     fmx:fmx370.bpl
 0001:0001eb00       _ZN3Fmx5Forms17TCommonCustomForm6ResizeEv 000000014001fb00     fmx:fmx370.bpl
 0001:0001eb10       _ZN3Fmx5Forms17TCommonCustomForm17ConstrainedResizeERfS2_S2_S2_ 000000014001fb10     fmx:fmx370.bpl
 0001:0001eb20       _ZN3Fmx5Forms17TCommonCustomForm10AdjustSizeERN6System5Types6TSizeFE 000000014001fb20     fmx:fmx370.bpl
 0001:0001eb30       _ZN3Fmx5Forms17TCommonCustomForm9SetActiveEb 000000014001fb30     fmx:fmx370.bpl
 0001:0001eb40       _ZN3Fmx5Forms17TCommonCustomForm10FindTargetERKN6System5Types7TPointFERKNS_5Types11TDragObjectE 000000014001fb40     fmx:fmx370.bpl
 0001:0001eb50       _ZN3Fmx5Forms11TCustomForm15UpdateStyleBookEv 000000014001fb50     fmx:fmx370.bpl
 0001:0001eb60       _ZN3Fmx5Forms17TCommonCustomForm14DoFlipChildrenEv 000000014001fb60     fmx:fmx370.bpl
 0001:0001eb70       _ZN3Fmx5Forms11TCustomForm12CanFlipChildEPNS_5Types10TFmxObjectE 000000014001fb70     fmx:fmx370.bpl
 0001:0001eb80       _ZN3Fmx5Forms11TCustomForm7RealignEv 000000014001fb80     fmx:fmx370.bpl
 0001:0001eb90       _ZN3Fmx5Forms11TCustomForm23AddPreloadPropertyNamesEPN6System8Generics11Collections8TList__1INS2_13UnicodeStringEEE 000000014001fb90     fmx:fmx370.bpl
 0001:0001eba0       _ZN3Fmx5Forms11TCustomForm20SetPreloadPropertiesEPN6System8Generics11Collections14TDictionary__2INS2_13UnicodeStringENS2_7VariantEEE 000000014001fba0     fmx:fmx370.bpl
 0001:0001ebb0       _ZN3Fmx5Forms11TCustomForm12CreateHandleEv 000000014001fbb0     fmx:fmx370.bpl
 0001:0001ebc0       _ZN3Fmx5Forms11TCustomForm13DestroyHandleEv 000000014001fbc0     fmx:fmx370.bpl
 0001:0001ebd0       _ZN3Fmx5Forms11TCustomForm12ResizeHandleEv 000000014001fbd0     fmx:fmx370.bpl
 0001:0001ebe0       _ZN3Fmx5Forms17TCommonCustomForm15SetTransparencyEb 000000014001fbe0     fmx:fmx370.bpl
 0001:0001ebf0       _ZN3Fmx5Forms11TCustomForm10PaintRectsEPKN6System5Types6TRectFEx 000000014001fbf0     fmx:fmx370.bpl
 0001:0001ec00       _ZN3Fmx5Forms17TCommonCustomForm12CreateBorderEv 000000014001fc00     fmx:fmx370.bpl
 0001:0001ec10       _ZN3Fmx5Forms17TCommonCustomForm13UpdateActionsEv 000000014001fc10     fmx:fmx370.bpl
 0001:0001ec20       _ZN3Fmx5Forms17TCommonCustomForm28VirtualKeyboardChangeHandlerEPN6System7TObjectEPNS2_9Messaging12TMessageBaseE 000000014001fc20     fmx:fmx370.bpl
 0001:0001ec30       _ZN3Fmx5Forms17TCommonCustomForm11IsDialogKeyEtwN6System3SetINS2_7Classes15TShiftStateItemELS5_0ELS5_10EEERb 000000014001fc30     fmx:fmx370.bpl
 0001:0001ec40       _ZN3Fmx5Forms17TCommonCustomForm8DoCreateEv 000000014001fc40     fmx:fmx370.bpl
 0001:0001ec50       _ZN3Fmx5Forms17TCommonCustomForm9DoDestroyEv 000000014001fc50     fmx:fmx370.bpl
 0001:0001ec60       _ZN3Fmx5Forms17TCommonCustomForm6DoShowEv 000000014001fc60     fmx:fmx370.bpl
 0001:0001ec70       _ZN3Fmx5Forms17TCommonCustomForm6DoHideEv 000000014001fc70     fmx:fmx370.bpl
 0001:0001ec80       _ZN3Fmx5Forms17TCommonCustomForm7DoCloseERN6System7Uitypes12TCloseActionE 000000014001fc80     fmx:fmx370.bpl
 0001:0001ec90       _ZN3Fmx5Forms11TCustomForm14DoScaleChangedEv 000000014001fc90     fmx:fmx370.bpl
 0001:0001eca0       _ZN3Fmx5Forms11TCustomForm14DoStyleChangedEv 000000014001fca0     fmx:fmx370.bpl
 0001:0001ecb0       _ZN3Fmx5Forms17TCommonCustomForm11DoMouseDownEN6System7Uitypes12TMouseButtonENS2_3SetINS2_7Classes15TShiftStateItemELS7_0ELS7_10EEEff 000000014001fcb0     fmx:fmx370.bpl
 0001:0001ecc0       _ZN3Fmx5Forms17TCommonCustomForm11DoMouseMoveEN6System3SetINS2_7Classes15TShiftStateItemELS5_0ELS5_10EEEff 000000014001fcc0     fmx:fmx370.bpl
 0001:0001ecd0       _ZN3Fmx5Forms17TCommonCustomForm9DoMouseUpEN6System7Uitypes12TMouseButtonENS2_3SetINS2_7Classes15TShiftStateItemELS7_0ELS7_10EEEff 000000014001fcd0     fmx:fmx370.bpl
 0001:0001ece0       _ZN3Fmx5Forms17TCommonCustomForm12DoMouseWheelEN6System3SetINS2_7Classes15TShiftStateItemELS5_0ELS5_10EEEiRb 000000014001fce0     fmx:fmx370.bpl
 0001:0001ecf0       _ZN3Fmx5Forms17TCommonCustomForm14DoFocusChangedEv 000000014001fcf0     fmx:fmx370.bpl
 0001:0001ed00       _ZN3Fmx5Forms17TCommonCustomForm16DoPaddingChangedEv 000000014001fd00     fmx:fmx370.bpl
 0001:0001ed10       _ZN3Fmx5Forms17TCommonCustomForm5DoTapERKN6System5Types7TPointFE 000000014001fd10     fmx:fmx370.bpl
 0001:0001ed20       _ZN3Fmx5Forms17TCommonCustomForm9DoKeyDownERtRwN6System3SetINS4_7Classes15TShiftStateItemELS7_0ELS7_10EEE 000000014001fd20     fmx:fmx370.bpl
 0001:0001ed30       _ZN3Fmx5Forms17TCommonCustomForm7DoKeyUpERtRwN6System3SetINS4_7Classes15TShiftStateItemELS7_0ELS7_10EEE 000000014001fd30     fmx:fmx370.bpl
 0001:0001ed40       _ZN3Fmx5Forms17TCommonCustomForm10DoActivateEv 000000014001fd40     fmx:fmx370.bpl
 0001:0001ed50       _ZN3Fmx5Forms17TCommonCustomForm12DoDeactivateEv 000000014001fd50     fmx:fmx370.bpl
 0001:0001ed60       _ZN3Fmx5Forms17TCommonCustomForm17DoSafeAreaChangedERKN6System5Types6TRectFE 000000014001fd60     fmx:fmx370.bpl
 0001:0001ed70       _ZN3Fmx5Forms11TCustomForm14GetWindowStyleEv 000000014001fd70     fmx:fmx370.bpl
 0001:0001ed80       _ZN3Fmx5Forms17TCommonCustomForm19DoParentFormChangedEv 000000014001fd80     fmx:fmx370.bpl
 0001:0001ed90       _ZN3Fmx5Forms17TCommonCustomForm9DoGestureERKNS_5Types17TGestureEventInfoERb 000000014001fd90     fmx:fmx370.bpl
 0001:0001eda0       _ZN3Fmx5Forms17TCommonCustomForm9CMGestureERNS_5Types17TGestureEventInfoE 000000014001fda0     fmx:fmx370.bpl
 0001:0001edb0       _ZN3Fmx5Forms17TCommonCustomForm3TapERKN6System5Types7TPointFE 000000014001fdb0     fmx:fmx370.bpl
 0001:0001edc0       _ZN3Fmx5Forms17TCommonCustomForm19ScaleChangedHandlerEPN6System7TObjectEPNS2_9Messaging12TMessageBaseE 000000014001fdc0     fmx:fmx370.bpl
 0001:0001edd0       _ZN3Fmx5Forms11TCustomForm19StyleChangedHandlerEPN6System7TObjectEPNS2_9Messaging12TMessageBaseE 000000014001fdd0     fmx:fmx370.bpl
 0001:0001ede0       _ZN3Fmx5Forms11TCustomForm17InitializeNewFormEv 000000014001fde0     fmx:fmx370.bpl
 0001:0001edf0       _ZN3Fmx5Forms17TCommonCustomForm13ObjectAtPointERKN6System5Types7TPointFE 000000014001fdf0     fmx:fmx370.bpl
 0001:0001ee00       _ZN3Fmx5Forms17TCommonCustomForm9MouseDownEN6System7Uitypes12TMouseButtonENS2_3SetINS2_7Classes15TShiftStateItemELS7_0ELS7_10EEEff 000000014001fe00     fmx:fmx370.bpl
 0001:0001ee10       _ZN3Fmx5Forms17TCommonCustomForm9MouseMoveEN6System3SetINS2_7Classes15TShiftStateItemELS5_0ELS5_10EEEff 000000014001fe10     fmx:fmx370.bpl
 0001:0001ee20       _ZN3Fmx5Forms17TCommonCustomForm7MouseUpEN6System7Uitypes12TMouseButtonENS2_3SetINS2_7Classes15TShiftStateItemELS7_0ELS7_10EEEffb 000000014001fe20     fmx:fmx370.bpl
 0001:0001ee30       _ZN3Fmx5Forms17TCommonCustomForm10MouseWheelEN6System3SetINS2_7Classes15TShiftStateItemELS5_0ELS5_10EEEiRb 000000014001fe30     fmx:fmx370.bpl
 0001:0001ee40       _ZN3Fmx5Forms17TCommonCustomForm10MouseLeaveEv 000000014001fe40     fmx:fmx370.bpl
 0001:0001ee50       _ZN3Fmx5Forms17TCommonCustomForm7KeyDownERtRwN6System3SetINS4_7Classes15TShiftStateItemELS7_0ELS7_10EEE 000000014001fe50     fmx:fmx370.bpl
 0001:0001ee60       _ZN3Fmx5Forms17TCommonCustomForm5KeyUpERtRwN6System3SetINS4_7Classes15TShiftStateItemELS7_0ELS7_10EEE 000000014001fe60     fmx:fmx370.bpl
 0001:0001ee70       _ZN3Fmx5Forms17TCommonCustomForm22DispatchAcceleratorKeyEtwN6System3SetINS2_7Classes15TShiftStateItemELS5_0ELS5_10EEE 000000014001fe70     fmx:fmx370.bpl
 0001:0001ee80       _ZN3Fmx5Forms17TCommonCustomForm17DispatchDialogKeyEtwN6System3SetINS2_7Classes15TShiftStateItemELS5_0ELS5_10EEE 000000014001fe80     fmx:fmx370.bpl
 0001:0001ee90       _ZN3Fmx5Forms11TCustomForm17RecreateResourcesEv 000000014001fe90     fmx:fmx370.bpl
 0001:0001eea0       _ZN3Fmx5Forms17TCommonCustomForm8ActivateEv 000000014001fea0     fmx:fmx370.bpl
 0001:0001eeb0       _ZN3Fmx5Forms17TCommonCustomForm10DeactivateEv 000000014001feb0     fmx:fmx370.bpl
 0001:0001eec0       _ZN3Fmx5Forms17TCommonCustomForm9DragEnterERKNS_5Types11TDragObjectERKN6System5Types7TPointFE 000000014001fec0     fmx:fmx370.bpl
 0001:0001eed0       _ZN3Fmx5Forms17TCommonCustomForm8DragOverERKNS_5Types11TDragObjectERKN6System5Types7TPointFERNS2_14TDragOperationE 000000014001fed0     fmx:fmx370.bpl
 0001:0001eee0       _ZN3Fmx5Forms17TCommonCustomForm8DragDropERKNS_5Types11TDragObjectERKN6System5Types7TPointFE 000000014001fee0     fmx:fmx370.bpl
 0001:0001eef0       _ZN3Fmx5Forms17TCommonCustomForm9DragLeaveEv 000000014001fef0     fmx:fmx370.bpl
 0001:0001ef00       _ZN3Fmx5Forms17TCommonCustomForm15StartWindowDragEv 000000014001ff00     fmx:fmx370.bpl
 0001:0001ef10       _ZN3Fmx5Forms17TCommonCustomForm17StartWindowResizeEv 000000014001ff10     fmx:fmx370.bpl
 0001:0001ef20       _ZN3Fmx5Forms17TCommonCustomForm9SetBoundsEiiii 000000014001ff20     fmx:fmx370.bpl
 0001:0001ef30       _ZN3Fmx5Forms17TCommonCustomForm10SetBoundsFEffff 000000014001ff30     fmx:fmx370.bpl
 0001:0001ef40       _ZN3Fmx5Forms17TCommonCustomForm9GetBoundsEv 000000014001ff40     fmx:fmx370.bpl
 0001:0001ef50       _ZN3Fmx5Forms17TCommonCustomForm10GetBoundsFEv 000000014001ff50     fmx:fmx370.bpl
 0001:0001ef60       _ZN3Fmx5Forms17TCommonCustomForm7CanShowEv 000000014001ff60     fmx:fmx370.bpl
 0001:0001ef70       _ZN3Fmx5Forms17TCommonCustomForm10CloseQueryEv 000000014001ff70     fmx:fmx370.bpl
 0001:0001ef80       _ZN3Fmx5Forms17TCommonCustomForm11IsPopupFormEv 000000014001ff80     fmx:fmx370.bpl
 0001:0001ef90       _ZN3Fmx5Forms17TCommonCustomForm11BeginUpdateEv 000000014001ff90     fmx:fmx370.bpl
 0001:0001efa0       _ZN3Fmx5Forms11TCustomForm9EndUpdateEv 000000014001ffa0     fmx:fmx370.bpl
 0001:0001efb0       _ZN3Fmx5Forms11TCustomForm16ApplyStyleLookupEv 000000014001ffb0     fmx:fmx370.bpl
 0001:0001efc0       _ZN3Fmx5Forms11TCustomForm7DoPaintEPNS_8Graphics7TCanvasERKN6System5Types6TRectFE 000000014001ffc0     fmx:fmx370.bpl
 0001:0001efd0       _ZN3Fmx5Forms11TCustomForm15PaintBackgroundEv 000000014001ffd0     fmx:fmx370.bpl
 0001:0001efe0       _ZN6System7TObject17SafeCallExceptionEPS0_Pv 000000014001ffe0     rtl:rtl370.bpl
 0001:0001eff0       _ZN6System17TInterfacedObject17AfterConstructionEv 000000014001fff0     rtl:rtl370.bpl
 0001:0001f000       _ZN6System17TInterfacedObject17BeforeDestructionEv 0000000140020000     rtl:rtl370.bpl
 0001:0001f010       _ZN6System17TInterfacedObject11NewInstanceEv 0000000140020010     rtl:rtl370.bpl
 0001:0001f020       __C_specific_handler       0000000140020020     libucrt:api-ms-win-crt-private-l1-1-0.dll
 0001:0001f030       __p__commode               0000000140020030     libucrt:api-ms-win-crt-stdio-l1-1-0.dll
 0001:0001f040       __p__fmode                 0000000140020040     libucrt:api-ms-win-crt-stdio-l1-1-0.dll
 0001:0001f050       _cexit                     0000000140020050     libucrt:api-ms-win-crt-runtime-l1-1-0.dll
 0001:0001f060       _crt_atexit                0000000140020060     libucrt:api-ms-win-crt-runtime-l1-1-0.dll
 0001:0001f070       _fpreset                   0000000140020070     libucrt:api-ms-win-crt-runtime-l1-1-0.dll
 0001:0001f080       _initterm                  0000000140020080     libucrt:api-ms-win-crt-runtime-l1-1-0.dll
 0001:0001f090       _initterm_e                0000000140020090     libucrt:api-ms-win-crt-runtime-l1-1-0.dll
 0001:0001f0a0       _set_invalid_parameter_handler 00000001400200a0     libucrt:api-ms-win-crt-runtime-l1-1-0.dll
 0001:0001f0b0       cosf                       00000001400200b0     libucrt:api-ms-win-crt-math-l1-1-0.dll
 0001:0001f0c0       exit                       00000001400200c0     libucrt:api-ms-win-crt-runtime-l1-1-0.dll
 0001:0001f0d0       memcpy                     00000001400200d0     libucrt:api-ms-win-crt-private-l1-1-0.dll
 0001:0001f0e0       memmove                    00000001400200e0     libucrt:api-ms-win-crt-private-l1-1-0.dll
 0001:0001f0f0       memset                     00000001400200f0     libucrt:api-ms-win-crt-string-l1-1-0.dll
 0001:0001f100       sinf                       0000000140020100     libucrt:api-ms-win-crt-math-l1-1-0.dll
 0001:0001f110       wcslen                     0000000140020110     libucrt:api-ms-win-crt-string-l1-1-0.dll
 0001:0001f120       _ZNSt11logic_errorC2EPKc   0000000140020120     libc++.dll:libc++-370.dll
 0001:0001f130       _ZNSt12length_errorD1Ev    0000000140020130     libc++.dll:libc++-370.dll
 0001:0001f140       _ZNSt20bad_array_new_lengthC1Ev 0000000140020140     libc++.dll:libc++-370.dll
 0001:0001f150       _ZNSt20bad_array_new_lengthD1Ev 0000000140020150     libc++.dll:libc++-370.dll
 0001:0001f160       _ZSt9terminatev            0000000140020160     libc++.dll:libc++-370.dll
 0001:0001f170       __cxa_allocate_exception   0000000140020170     libc++.dll:libc++-370.dll
 0001:0001f180       __cxa_begin_catch          0000000140020180     libc++.dll:libc++-370.dll
 0001:0001f190       __cxa_end_catch            0000000140020190     libc++.dll:libc++-370.dll
 0001:0001f1a0       __cxa_free_exception       00000001400201a0     libc++.dll:libc++-370.dll
 0001:0001f1b0       __cxa_guard_acquire        00000001400201b0     libc++.dll:libc++-370.dll
 0001:0001f1c0       __cxa_guard_release        00000001400201c0     libc++.dll:libc++-370.dll
 0001:0001f1d0       __cxa_pure_virtual         00000001400201d0     libc++.dll:libc++-370.dll
 0001:0001f1e0       __cxa_throw                00000001400201e0     libc++.dll:libc++-370.dll
 0001:0001f1f0       __gxx_personality_seh0     00000001400201f0     libc++.dll:libc++-370.dll
 0001:0001f200       _Unwind_Resume             0000000140020200     libunwind.dll:libunwind-370.dll
 0001:0001f210       FreeLibrary                0000000140020210     import64:KERNEL32.dll
 0001:0001f220       GetCommandLineW            0000000140020220     import64:KERNEL32.dll
 0001:0001f230       GetLastError               0000000140020230     import64:KERNEL32.dll
 0001:0001f240       GetModuleHandleW           0000000140020240     import64:KERNEL32.dll
 0001:0001f250       GetProcAddress             0000000140020250     import64:KERNEL32.dll
 0001:0001f260       LoadLibraryA               0000000140020260     import64:KERNEL32.dll
 0001:0001f270       LocalAlloc                 0000000140020270     import64:KERNEL32.dll
 0001:0001f280       LocalFree                  0000000140020280     import64:KERNEL32.dll
 0001:0001f290       RaiseException             0000000140020290     import64:KERNEL32.dll
 0001:0001f2a0       SetUnhandledExceptionFilter 00000001400202a0     import64:KERNEL32.dll
 0001:0001f2b0       Sleep                      00000001400202b0     import64:KERNEL32.dll
 0001:0001f2c0       TlsAlloc                   00000001400202c0     import64:KERNEL32.dll
 0001:0001f2d0       TlsFree                    00000001400202d0     import64:KERNEL32.dll
 0001:0001f2e0       TlsGetValue                00000001400202e0     import64:KERNEL32.dll
 0001:0001f2f0       TlsSetValue                00000001400202f0     import64:KERNEL32.dll
 0001:0001f300       __set_app_type             0000000140020300     libucrt:api-ms-win-crt-runtime-l1-1-0.dll
 0001:0001f300       _set_app_type              0000000140020300     libucrt:api-ms-win-crt-runtime-l1-1-0.dll
 0001:0001f310       _initialize_wide_environment 0000000140020310     libucrt:api-ms-win-crt-runtime-l1-1-0.dll
 0001:0001f320       _configure_wide_argv       0000000140020320     libucrt:api-ms-win-crt-runtime-l1-1-0.dll
 0001:0001f330       __p___argc                 0000000140020330     libucrt:api-ms-win-crt-runtime-l1-1-0.dll
 0001:0001f340       __p___wargv                0000000140020340     libucrt:api-ms-win-crt-runtime-l1-1-0.dll
 0001:0001f350       __p__wenviron              0000000140020350     libucrt:api-ms-win-crt-environment-l1-1-0.dll
 0001:0001f360       _set_new_mode              0000000140020360     libucrt:api-ms-win-crt-heap-l1-1-0.dll
 0001:0001f370       __acrt_iob_func            0000000140020370     libucrt:api-ms-win-crt-stdio-l1-1-0.dll
 0001:0001f380       _exit                      0000000140020380     libucrt:api-ms-win-crt-runtime-l1-1-0.dll
 0001:0001f390       _ZSt15get_new_handlerv     0000000140020390     libc++.dll:libc++-370.dll
 0001:0001f3a0       _ZNSt9bad_allocC1Ev        00000001400203a0     libc++.dll:libc++-370.dll
 0001:0001f3b0       _ZNSt9bad_allocD1Ev        00000001400203b0     libc++.dll:libc++-370.dll
 0001:0001f3c0       signal                     00000001400203c0     libucrt:api-ms-win-crt-runtime-l1-1-0.dll
 0001:0001f3d0       __setusermatherr           00000001400203d0     libucrt:api-ms-win-crt-math-l1-1-0.dll
 0001:0001f3e0       VirtualProtect             00000001400203e0     import64:KERNEL32.dll
 0001:0001f3f0       abort                      00000001400203f0     libucrt:api-ms-win-crt-runtime-l1-1-0.dll
 0001:0001f400       VirtualQuery               0000000140020400     import64:KERNEL32.dll
 0001:0001f410       _malloc                    0000000140020410     libucrt:api-ms-win-crt-heap-l1-1-0.dll
 0001:0001f420       __p__wcmdln                0000000140020420     libucrt:api-ms-win-crt-runtime-l1-1-0.dll
 0001:0001f430       GetStartupInfoW            0000000140020430     import64:KERNEL32.dll
 0001:0001f440       _ZN6System13LoadResStringEPNS_13TResStringRecE 0000000140020440     rtl:rtl370.bpl
 0001:0001f450       _ZN6System16_CheckAutoResultEl 0000000140020450     rtl:rtl370.bpl
 0001:0001f460       _ZN6System8Syncobjs12TInterlocked8ExchangeERPvS2_ 0000000140020460     rtl:rtl370.bpl
 0001:0001f470       _assert                    0000000140020470     libucrt:api-ms-win-crt-runtime-l1-1-0.dll
 0001:0001f480       _ZN6System7TObject12InheritsFromEPNS_10TMetaClassE 0000000140020480     rtl:rtl370.bpl
 0001:0001f490       _ZN6System7Typinfo11GetTypeNameEPNS0_9TTypeInfoE 0000000140020490     rtl:rtl370.bpl
 0001:0001f4a0       _ZN6System7Typinfo11GetTypeDataEPNS0_9TTypeInfoE 00000001400204a0     rtl:rtl370.bpl
 0001:0001f4b0       _ZN6System7Typinfo9TTypeData11UnitNameFldEv 00000001400204b0     rtl:rtl370.bpl
 0001:0001f4c0       _ZN6System7Typinfo22TTypeInfoFieldAccessor8ToStringEv 00000001400204c0     rtl:rtl370.bpl
 0001:0001f4d0       _ZNSt3__15mutex4lockEv     00000001400204d0     libc++.dll:libc++-370.dll
 0001:0001f4e0       _ZNSt3__15mutex6unlockEv   00000001400204e0     libc++.dll:libc++-370.dll
 0001:0001f4f0       _ZN6System7TObject9ClassInfoEv 00000001400204f0     rtl:rtl370.bpl
 0001:0001f500       ceilf                      0000000140020500     libucrt:api-ms-win-crt-math-l1-1-0.dll
 0001:0001f510       _ZNSt3__112__next_primeEy  0000000140020510     libc++.dll:libc++-370.dll
 0001:0001f520       _ZN6System8Syncobjs12TInterlocked9IncrementERi 0000000140020520     rtl:rtl370.bpl
 0001:0001f530       _ZN6System8Sysutils10FloatToStrEe 0000000140020530     rtl:rtl370.bpl
 0001:0001f540       CompareStringW             0000000140020540     import64:KERNEL32.dll
 0001:0001f550       _ZN6System8Sysutils7LoadStrEy 0000000140020550     rtl:rtl370.bpl
 0001:0001f560       FindResourceA              0000000140020560     import64:KERNEL32.dll
 0001:0001f570       LoadResource               0000000140020570     import64:KERNEL32.dll
 0001:0001f580       LockResource               0000000140020580     import64:KERNEL32.dll
 0001:0001f590       FreeResource               0000000140020590     import64:KERNEL32.dll
 0001:0001f5a0       _ZN6System8Sysutils10FmtLoadStrEyPKNS_7TVarRecEx 00000001400205a0     rtl:rtl370.bpl
 0001:0001f5b0       _ZN6System8Sysutils6FormatENS_13UnicodeStringEPKNS_7TVarRecEx 00000001400205b0     rtl:rtl370.bpl
 0001:0001f5c0       _ZN6System8Sysutils8IntToHexEii 00000001400205c0     rtl:rtl370.bpl
 0001:0001f5d0       _ZN6System8Sysutils9CurrToStrENS_8CurrencyE 00000001400205d0     rtl:rtl370.bpl
 0001:0001f5e0       _ZN6System8Sysutils10CurrToStrFENS_8CurrencyENS0_12TFloatFormatEi 00000001400205e0     rtl:rtl370.bpl
 0001:0001f5f0       _ZN6System12UniqueStringERNS_13UnicodeStringE 00000001400205f0     rtl:rtl370.bpl
 0001:0001f600       _ZN6System8Sysutils13AnsiLowerCaseENS_13UnicodeStringE 0000000140020600     rtl:rtl370.bpl
 0001:0001f610       _ZN6System8Sysutils13AnsiUpperCaseENS_13UnicodeStringE 0000000140020610     rtl:rtl370.bpl
 0001:0001f620       _ZN6System8Sysutils4TrimENS_13UnicodeStringE 0000000140020620     rtl:rtl370.bpl
 0001:0001f630       _ZN6System8Sysutils8TrimLeftENS_13UnicodeStringE 0000000140020630     rtl:rtl370.bpl
 0001:0001f640       _ZN6System8Sysutils9TrimRightENS_13UnicodeStringE 0000000140020640     rtl:rtl370.bpl
 0001:0001f650       _ZN6System8Sysutils8StrToIntENS_13UnicodeStringE 0000000140020650     rtl:rtl370.bpl
 0001:0001f660       _ZN6System8Sysutils11StrToIntDefENS_13UnicodeStringEi 0000000140020660     rtl:rtl370.bpl
 0001:0001f670       _ZN6System8Sysutils11IsDelimiterENS_13UnicodeStringES1_i 0000000140020670     rtl:rtl370.bpl
 0001:0001f680       _ZN6System8Sysutils15IsPathDelimiterENS_13UnicodeStringEi 0000000140020680     rtl:rtl370.bpl
 0001:0001f690       _ZN6System8Sysutils13LastDelimiterENS_13UnicodeStringES1_ 0000000140020690     rtl:rtl370.bpl
 0001:0001f6a0       _ZN6System8Sysutils8ByteTypeENS_13UnicodeStringEi 00000001400206a0     rtl:rtl370.bpl
 0001:0001f6b0       _ZN6System8Sysutils7BytesOfENS_13UnicodeStringE 00000001400206b0     rtl:rtl370.bpl
 0001:0001f6c0       _ZN6System8Sysutils12AnsiLastCharENS_13UnicodeStringE 00000001400206c0     rtl:rtl370.bpl
 0001:0001f6d0       _ZN6System8Sysutils9BoolToStrEbb 00000001400206d0     rtl:rtl370.bpl
 0001:0001f6e0       _ZN6System12StringOfCharEci 00000001400206e0     rtl:rtl370.bpl
 0001:0001f6f0       _ZN6System8Sysutils8IntToStrEi 00000001400206f0     rtl:rtl370.bpl
 0001:0001f700       _ZN6System8Sysutils9UIntToStrEj 0000000140020700     rtl:rtl370.bpl
 0001:0001f710       _ZN6System8Sysutils8IntToStrEx 0000000140020710     rtl:rtl370.bpl
 0001:0001f720       _ZN6System8Sysutils9UIntToStrEy 0000000140020720     rtl:rtl370.bpl
 0001:0001f730       _ZN6System12StringOfCharEwi 0000000140020730     rtl:rtl370.bpl
 0001:0001f740       _ZN6System8Sysutils10FloatToStrEeRKNS0_15TFormatSettingsE 0000000140020740     rtl:rtl370.bpl
 0001:0001f750       _ZN6System8Sysutils12TryStrToBoolENS_13UnicodeStringERb 0000000140020750     rtl:rtl370.bpl
 0001:0001f760       _ZN6System8Sysutils13TryStrToFloatENS_13UnicodeStringERe 0000000140020760     rtl:rtl370.bpl
 0001:0001f770       _ZN6System8Sysutils13TryStrToFloatENS_13UnicodeStringEReRKNS0_15TFormatSettingsE 0000000140020770     rtl:rtl370.bpl
 0001:0001f780       _ZN6System8Sysutils11TryStrToIntENS_13UnicodeStringERi 0000000140020780     rtl:rtl370.bpl
 0001:0001f790       _ZN6System8Sysutils13TryStrToInt64ENS_13UnicodeStringERx 0000000140020790     rtl:rtl370.bpl
 0001:0001f7a0       _ZN6System8Sysutils12TryStrToUIntENS_13UnicodeStringERj 00000001400207a0     rtl:rtl370.bpl
 0001:0001f7b0       _ZN6System8Sysutils14TryStrToUInt64ENS_13UnicodeStringERy 00000001400207b0     rtl:rtl370.bpl
 0001:0001f7c0       __stdio_common_vfprintf    00000001400207c0     libucrt:api-ms-win-crt-stdio-l1-1-0.dll
 0001:0001f7d0       _free                      00000001400207d0     libucrt:api-ms-win-crt-heap-l1-1-0.dll
 0001:0001f7e0       __aligned_free             00000001400207e0     libucrt:api-ms-win-crt-heap-l1-1-0.dll
 0001:0001f7f0       __aligned_malloc           00000001400207f0     libucrt:api-ms-win-crt-heap-l1-1-0.dll
 0001:0001f800       EnterCriticalSection       0000000140020800     import64:KERNEL32.dll
 0001:0001f810       LeaveCriticalSection       0000000140020810     import64:KERNEL32.dll
 0001:0001f820       InitializeCriticalSection  0000000140020820     import64:KERNEL32.dll
 0001:0001f830       DeleteCriticalSection      0000000140020830     import64:KERNEL32.dll
 0001:0001f840       strlen                     0000000140020840     libucrt:api-ms-win-crt-string-l1-1-0.dll
 0001:0001f850       strncmp                    0000000140020850     libucrt:api-ms-win-crt-string-l1-1-0.dll
 0001:0001f860       __strdup                   0000000140020860     libucrt:api-ms-win-crt-string-l1-1-0.dll
 0001:0001f870       _ZN6System14_LStrFromPCharERNS_11AnsiStringTILt0EEEPct 0000000140020870     rtl:rtl370.bpl
 0001:0001f880       _ZN6System8_LStrAsgERNS_11AnsiStringTILt0EEES1_ 0000000140020880     rtl:rtl370.bpl
 0001:0001f890       _ZN6System13_LStrFromWStrERNS_11AnsiStringTILt0EEENS_10WideStringEt 0000000140020890     rtl:rtl370.bpl
 0001:0001f8a0       _ZN6System13_LStrFromUStrERNS_11AnsiStringTILt0EEENS_13UnicodeStringEt 00000001400208a0     rtl:rtl370.bpl
 0001:0001f8b0       _ZN6System14_LStrSetLengthERNS_11AnsiStringTILt0EEEit 00000001400208b0     rtl:rtl370.bpl
 0001:0001f8c0       _ZN6System18_LStrFromPWCharLenERNS_11AnsiStringTILt0EEEPwit 00000001400208c0     rtl:rtl370.bpl
 0001:0001f8d0       _ZN6System14_LStrFromWCharERNS_11AnsiStringTILt0EEEwt 00000001400208d0     rtl:rtl370.bpl
 0001:0001f8e0       _ZN6System8_LStrClrEPv     00000001400208e0     rtl:rtl370.bpl
 0001:0001f8f0       _ZN6System8_LStrCatERNS_11AnsiStringTILt0EEES1_ 00000001400208f0     rtl:rtl370.bpl
 0001:0001f900       _ZN6System9_LStrCat3ERNS_11AnsiStringTILt0EEES1_S1_ 0000000140020900     rtl:rtl370.bpl
 0001:0001f910       _ZN6System11Ansistrings15AnsiCompareTextENS_11AnsiStringTILt0EEES2_ 0000000140020910     rtl:rtl370.bpl
 0001:0001f920       _ZN6System11Ansistrings6FormatENS_11AnsiStringTILt0EEEPKNS_7TVarRecEx 0000000140020920     rtl:rtl370.bpl
 0001:0001f930       MultiByteToWideChar        0000000140020930     import64:KERNEL32.dll
 0001:0001f940       _ZN6System11_LStrInsertENS_11AnsiStringTILt0EEERS1_i 0000000140020940     rtl:rtl370.bpl
 0001:0001f950       _ZN6System11_LStrDeleteERNS_11AnsiStringTILt0EEEii 0000000140020950     rtl:rtl370.bpl
 0001:0001f960       _ZN6System3PosENS_11AnsiStringTILt65535EEES1_i 0000000140020960     rtl:rtl370.bpl
 0001:0001f970       _ZN6System11Ansistrings13AnsiLowerCaseENS_11AnsiStringTILt0EEE 0000000140020970     rtl:rtl370.bpl
 0001:0001f980       _ZN6System11Ansistrings13AnsiUpperCaseENS_11AnsiStringTILt0EEE 0000000140020980     rtl:rtl370.bpl
 0001:0001f990       _ZN6System11Ansistrings4TrimENS_11AnsiStringTILt0EEE 0000000140020990     rtl:rtl370.bpl
 0001:0001f9a0       _ZN6System11Ansistrings8TrimLeftENS_11AnsiStringTILt0EEE 00000001400209a0     rtl:rtl370.bpl
 0001:0001f9b0       _ZN6System11Ansistrings9TrimRightENS_11AnsiStringTILt0EEE 00000001400209b0     rtl:rtl370.bpl
 0001:0001f9c0       _ZN6System11Ansistrings11IsDelimiterENS_11AnsiStringTILt0EEES2_i 00000001400209c0     rtl:rtl370.bpl
 0001:0001f9d0       _ZN6System11Ansistrings7AnsiPosENS_11AnsiStringTILt0EEES2_ 00000001400209d0     rtl:rtl370.bpl
 0001:0001f9e0       _ZN6System11Ansistrings15IsPathDelimiterENS_11AnsiStringTILt0EEEi 00000001400209e0     rtl:rtl370.bpl
 0001:0001f9f0       _ZN6System11Ansistrings13LastDelimiterENS_11AnsiStringTILt0EEES2_ 00000001400209f0     rtl:rtl370.bpl
 0001:0001fa00       _ZN6System11Ansistrings8ByteTypeENS_11AnsiStringTILt0EEEi 0000000140020a00     rtl:rtl370.bpl
 0001:0001fa10       _ZN6System8Sysutils7BytesOfENS_11AnsiStringTILt65535EEE 0000000140020a10     rtl:rtl370.bpl
 0001:0001fa20       _ZN6System11Ansistrings12AnsiLastCharENS_11AnsiStringTILt0EEE 0000000140020a20     rtl:rtl370.bpl
 0001:0001fa30       __stdio_common_vsprintf    0000000140020a30     libucrt:api-ms-win-crt-stdio-l1-1-0.dll
 0001:0001fa40       _ZN6System13_UStrFromLStrERNS_13UnicodeStringENS_11AnsiStringTILt0EEE 0000000140020a40     rtl:rtl370.bpl
 0001:0001fa50       _ZN6System14_UStrFromPCharERNS_13UnicodeStringEPc 0000000140020a50     rtl:rtl370.bpl
 0001:0001fa60       _ZN6System19UTF8ToUnicodeStringEPKc 0000000140020a60     rtl:rtl370.bpl
 0001:0001fa70       _ZN6System15_UStrFromPWCharERNS_13UnicodeStringEPw 0000000140020a70     rtl:rtl370.bpl
 0001:0001fa80       _ZN6System8_UStrCatERNS_13UnicodeStringES0_ 0000000140020a80     rtl:rtl370.bpl
 0001:0001fa90       _ZN6System9_UStrCat3ERNS_13UnicodeStringES0_S0_ 0000000140020a90     rtl:rtl370.bpl
 0001:0001faa0       _ZN6System11_UStrDeleteERNS_13UnicodeStringEii 0000000140020aa0     rtl:rtl370.bpl
 0001:0001fab0       _ZN6System14_UStrSetLengthERNS_13UnicodeStringEi 0000000140020ab0     rtl:rtl370.bpl
 0001:0001fac0       _ZN6System8_UStrPosEPwS0_i 0000000140020ac0     rtl:rtl370.bpl
 0001:0001fad0       _ZN6System9_UStrCopyENS_13UnicodeStringEii 0000000140020ad0     rtl:rtl370.bpl
 0001:0001fae0       _ZN6System11_UStrInsertENS_13UnicodeStringERS0_i 0000000140020ae0     rtl:rtl370.bpl
 0001:0001faf0       _ZN6System8_UStrAsgERNS_13UnicodeStringES0_ 0000000140020af0     rtl:rtl370.bpl
 0001:0001fb00       _ZN6System8_UStrClrEPv     0000000140020b00     rtl:rtl370.bpl
 0001:0001fb10       _ZN6System10_UStrEqualENS_13UnicodeStringES0_ 0000000140020b10     rtl:rtl370.bpl
 0001:0001fb20       _ZN6System8_UStrCmpENS_13UnicodeStringES0_ 0000000140020b20     rtl:rtl370.bpl
 0001:0001fb30       _ZN6System8_LStrPosEPcS0_i 0000000140020b30     rtl:rtl370.bpl
 0001:0001fb40       _ZN6System9_LStrCopyENS_11AnsiStringTILt0EEEii 0000000140020b40     rtl:rtl370.bpl
 0001:0001fb50       _ZN6System10_LStrEqualENS_11AnsiStringTILt0EEES1_ 0000000140020b50     rtl:rtl370.bpl
 0001:0001fb60       _ZN6System8_LStrCmpENS_11AnsiStringTILt0EEES1_ 0000000140020b60     rtl:rtl370.bpl
 0001:0001fb70       _ZN6System8_WStrAsgERNS_10WideStringES0_ 0000000140020b70     rtl:rtl370.bpl
 0001:0001fb80       _ZN6System8_WStrClrEPv     0000000140020b80     rtl:rtl370.bpl
 0001:0001fb90       _ZN6System13_WStrFromLStrERNS_10WideStringENS_11AnsiStringTILt0EEE 0000000140020b90     rtl:rtl370.bpl
 0001:0001fba0       _ZN6System13_WStrFromUStrERNS_10WideStringENS_13UnicodeStringE 0000000140020ba0     rtl:rtl370.bpl
 0001:0001fbb0       _ZN6System14_WStrFromPCharERNS_10WideStringEPc 0000000140020bb0     rtl:rtl370.bpl
 0001:0001fbc0       _ZN6System10_WStrEqualENS_10WideStringES0_ 0000000140020bc0     rtl:rtl370.bpl
 0001:0001fbd0       _ZN6System8_WStrCmpENS_10WideStringES0_ 0000000140020bd0     rtl:rtl370.bpl
 0001:0001fbe0       _ZN6System9_WStrCat3ERNS_10WideStringES0_S0_ 0000000140020be0     rtl:rtl370.bpl
 0001:0001fbf0       _ZN6System8_WStrPosEPwS0_i 0000000140020bf0     rtl:rtl370.bpl
 0001:0001fc00       _ZN6System14_WStrSetLengthERNS_10WideStringEi 0000000140020c00     rtl:rtl370.bpl
 0001:0001fc10       _ZN6System11_WStrDeleteERNS_10WideStringEii 0000000140020c10     rtl:rtl370.bpl
 0001:0001fc20       _ZN6System11_WStrInsertENS_10WideStringERS0_i 0000000140020c20     rtl:rtl370.bpl
 0001:0001fc30       _ZN6System9_WStrCopyENS_10WideStringEii 0000000140020c30     rtl:rtl370.bpl
 0001:0001fc40       _ZN6System8_WStrCatERNS_10WideStringES0_ 0000000140020c40     rtl:rtl370.bpl
 0001:0001fc50       _ZN6System13_UStrFromWStrERNS_13UnicodeStringENS_10WideStringE 0000000140020c50     rtl:rtl370.bpl
 0001:0001fc60       __stdio_common_vswprintf   0000000140020c60     libucrt:api-ms-win-crt-stdio-l1-1-0.dll
 0001:0001fc70       _ZN6System8Sysutils11TGUIDHelper6CreateENS_12DynamicArrayIhEEjNS_5Types7TEndianE 0000000140020c70     rtl:rtl370.bpl
 0001:0001fc80       _ZN6System8Sysutils11TGUIDHelper6CreateENS_13UnicodeStringE 0000000140020c80     rtl:rtl370.bpl
 0001:0001fc90       _ZN6System8Sysutils11TGUIDHelper6CreateEissNS_12DynamicArrayIhEE 0000000140020c90     rtl:rtl370.bpl
 0001:0001fca0       _ZN6System8Sysutils11TGUIDHelper6CreateEisshhhhhhhh 0000000140020ca0     rtl:rtl370.bpl
 0001:0001fcb0       _ZN6System8Sysutils11TGUIDHelper6CreateEjtthhhhhhhh 0000000140020cb0     rtl:rtl370.bpl
 0001:0001fcc0       _ZN6System8Sysutils11TGUIDHelper7NewGuidEv 0000000140020cc0     rtl:rtl370.bpl
 0001:0001fcd0       _ZN6System8Sysutils11TGUIDHelper11ToByteArrayENS_5Types7TEndianE 0000000140020cd0     rtl:rtl370.bpl
 0001:0001fce0       _ZN6System8Sysutils11TGUIDHelper8ToStringEv 0000000140020ce0     rtl:rtl370.bpl
 0001:0001fcf0       _ZN6System8Sysutils11TGUIDHelper8ToStringEw 0000000140020cf0     rtl:rtl370.bpl
 0001:0001fd00       _ZN6System8Sysutils13TStringHelper6CreateEPKwxii 0000000140020d00     rtl:rtl370.bpl
 0001:0001fd10       _ZN6System8Sysutils13TStringHelper6CreateEPKwx 0000000140020d10     rtl:rtl370.bpl
 0001:0001fd20       _ZN6System8Sysutils13TStringHelper15InternalCompareENS_13UnicodeStringEiS2_iiiNS_3SetINS0_14TCompareOptionELS4_0ELS4_9EEEj 0000000140020d20     rtl:rtl370.bpl
 0001:0001fd30       _ZN6System8Sysutils13TStringHelper15InternalCompareENS_13UnicodeStringEiS2_iiibj 0000000140020d30     rtl:rtl370.bpl
 0001:0001fd40       _ZN6System8Sysutils13TStringHelper7CompareENS_13UnicodeStringEiS2_iibj 0000000140020d40     rtl:rtl370.bpl
 0001:0001fd50       _ZN6System8Sysutils13TStringHelper14CompareOrdinalENS_13UnicodeStringES2_ 0000000140020d50     rtl:rtl370.bpl
 0001:0001fd60       _ZN6System8Sysutils13TStringHelper14CompareOrdinalENS_13UnicodeStringEiS2_ii 0000000140020d60     rtl:rtl370.bpl
 0001:0001fd70       _ZN6System8Sysutils11CompareTextENS_13UnicodeStringES1_ 0000000140020d70     rtl:rtl370.bpl
 0001:0001fd80       _ZN6System8Sysutils9StrToBoolENS_13UnicodeStringE 0000000140020d80     rtl:rtl370.bpl
 0001:0001fd90       _ZN6System8Sysutils14TIntegerHelper5ParseENS_13UnicodeStringE 0000000140020d90     rtl:rtl370.bpl
 0001:0001fda0       _ZN6System8Sysutils12TInt64Helper5ParseENS_13UnicodeStringE 0000000140020da0     rtl:rtl370.bpl
 0001:0001fdb0       _ZN6System8Sysutils13TSingleHelper5ParseENS_13UnicodeStringE 0000000140020db0     rtl:rtl370.bpl
 0001:0001fdc0       _ZN6System8Sysutils13TDoubleHelper5ParseENS_13UnicodeStringE 0000000140020dc0     rtl:rtl370.bpl
 0001:0001fdd0       _ZN6System8Sysutils15TExtendedHelper5ParseENS_13UnicodeStringE 0000000140020dd0     rtl:rtl370.bpl
 0001:0001fde0       _ZN6System8Sysutils9LowerCaseENS_13UnicodeStringE 0000000140020de0     rtl:rtl370.bpl
 0001:0001fdf0       _ZN6System8Sysutils9UpperCaseENS_13UnicodeStringE 0000000140020df0     rtl:rtl370.bpl
 0001:0001fe00       _ZN6System8Sysutils13TStringHelper9CompareToENS_13UnicodeStringE 0000000140020e00     rtl:rtl370.bpl
 0001:0001fe10       _ZN6System8Sysutils13TStringHelper8ContainsENS_13UnicodeStringEb 0000000140020e10     rtl:rtl370.bpl
 0001:0001fe20       _ZN6System8Sysutils13TStringHelper9CountCharEw 0000000140020e20     rtl:rtl370.bpl
 0001:0001fe30       _ZN6System8Sysutils13TStringHelper14DeQuotedStringEv 0000000140020e30     rtl:rtl370.bpl
 0001:0001fe40       _ZN6System8Sysutils13TStringHelper14DeQuotedStringEw 0000000140020e40     rtl:rtl370.bpl
 0001:0001fe50       _ZN6System8Sysutils13TStringHelper8EndsTextENS_13UnicodeStringES2_ 0000000140020e50     rtl:rtl370.bpl
 0001:0001fe60       _ZN6System8Sysutils13TStringHelper8EndsWithENS_13UnicodeStringEb 0000000140020e60     rtl:rtl370.bpl
 0001:0001fe70       _ZN6System8Sysutils13TStringHelper6EqualsENS_13UnicodeStringE 0000000140020e70     rtl:rtl370.bpl
 0001:0001fe80       _ZN6System8Sysutils13TStringHelper6EqualsENS_13UnicodeStringES2_ 0000000140020e80     rtl:rtl370.bpl
 0001:0001fe90       _ZN6System8Sysutils13TStringHelper6FormatENS_13UnicodeStringEPKNS_7TVarRecEx 0000000140020e90     rtl:rtl370.bpl
 0001:0001fea0       _ZN6System8Sysutils13TStringHelper11GetHashCodeEv 0000000140020ea0     rtl:rtl370.bpl
 0001:0001feb0       _ZN6System8Sysutils13TStringHelper7IndexOfEw 0000000140020eb0     rtl:rtl370.bpl
 0001:0001fec0       _ZN6System8Sysutils13TStringHelper7IndexOfEwi 0000000140020ec0     rtl:rtl370.bpl
 0001:0001fed0       _ZN6System8Sysutils13TStringHelper7IndexOfENS_13UnicodeStringEi 0000000140020ed0     rtl:rtl370.bpl
 0001:0001fee0       _ZN6System8Sysutils13TStringHelper7IndexOfEwii 0000000140020ee0     rtl:rtl370.bpl
 0001:0001fef0       _ZN6System8Sysutils13TStringHelper7IndexOfENS_13UnicodeStringEii 0000000140020ef0     rtl:rtl370.bpl
 0001:0001ff00       _ZN6System8Sysutils13TStringHelper10IndexOfAnyEPKwx 0000000140020f00     rtl:rtl370.bpl
 0001:0001ff10       _ZN6System8Sysutils13TStringHelper10IndexOfAnyEPKwxi 0000000140020f10     rtl:rtl370.bpl
 0001:0001ff20       _ZN6System8Sysutils13TStringHelper10IndexOfAnyEPKwxii 0000000140020f20     rtl:rtl370.bpl
 0001:0001ff30       _ZN6System8Sysutils13TStringHelper18IndexOfAnyUnquotedEPKwxww 0000000140020f30     rtl:rtl370.bpl
 0001:0001ff40       _ZN6System8Sysutils13TStringHelper18IndexOfAnyUnquotedEPKwxwwi 0000000140020f40     rtl:rtl370.bpl
 0001:0001ff50       _ZN6System8Sysutils13TStringHelper18IndexOfAnyUnquotedEPKwxwwii 0000000140020f50     rtl:rtl370.bpl
 0001:0001ff60       _ZN6System8Sysutils13TStringHelper6InsertEiNS_13UnicodeStringE 0000000140020f60     rtl:rtl370.bpl
 0001:0001ff70       _ZN6System8Sysutils13TStringHelper11IsDelimiterENS_13UnicodeStringEi 0000000140020f70     rtl:rtl370.bpl
 0001:0001ff80       _ZN6System8Sysutils13TStringHelper18IsNullOrWhiteSpaceENS_13UnicodeStringE 0000000140020f80     rtl:rtl370.bpl
 0001:0001ff90       _ZN6System8Sysutils13TStringHelper4JoinENS_13UnicodeStringEPKNS_7TVarRecEx 0000000140020f90     rtl:rtl370.bpl
 0001:0001ffa0       _ZN6System8Sysutils13TStringHelper4JoinENS_13UnicodeStringEPKS2_x 0000000140020fa0     rtl:rtl370.bpl
 0001:0001ffb0       _ZN6System8Sysutils13TStringHelper4JoinENS_13UnicodeStringENS_15DelphiInterfaceINS_14IEnumerator__1IS2_EEEE 0000000140020fb0     rtl:rtl370.bpl
 0001:0001ffc0       _ZN6System8Sysutils13TStringHelper4JoinENS_13UnicodeStringEPKS2_xii 0000000140020fc0     rtl:rtl370.bpl
 0001:0001ffd0       _ZN6System8Sysutils13TStringHelper13LastDelimiterENS_13UnicodeStringE 0000000140020fd0     rtl:rtl370.bpl
 0001:0001ffe0       _ZN6System8Sysutils13TStringHelper13LastDelimiterERKNS_3SetIcLc0ELcn1EEE 0000000140020fe0     rtl:rtl370.bpl
 0001:0001fff0       _ZN6System8Sysutils13TStringHelper11LastIndexOfEw 0000000140020ff0     rtl:rtl370.bpl
 0001:00020000       _ZN6System8Sysutils13TStringHelper11LastIndexOfENS_13UnicodeStringE 0000000140021000     rtl:rtl370.bpl
 0001:00020010       _ZN6System8Sysutils13TStringHelper11LastIndexOfEwi 0000000140021010     rtl:rtl370.bpl
 0001:00020020       _ZN6System8Sysutils13TStringHelper11LastIndexOfENS_13UnicodeStringEi 0000000140021020     rtl:rtl370.bpl
 0001:00020030       _ZN6System8Sysutils13TStringHelper11LastIndexOfEwii 0000000140021030     rtl:rtl370.bpl
 0001:00020040       _ZN6System8Sysutils13TStringHelper11LastIndexOfENS_13UnicodeStringEii 0000000140021040     rtl:rtl370.bpl
 0001:00020050       _ZN6System8Sysutils13TStringHelper14LastIndexOfAnyEPKwx 0000000140021050     rtl:rtl370.bpl
 0001:00020060       _ZN6System8Sysutils13TStringHelper14LastIndexOfAnyEPKwxi 0000000140021060     rtl:rtl370.bpl
 0001:00020070       _ZN6System8Sysutils13TStringHelper14LastIndexOfAnyEPKwxii 0000000140021070     rtl:rtl370.bpl
 0001:00020080       _ZN6System8Sysutils13TStringHelper12QuotedStringEv 0000000140021080     rtl:rtl370.bpl
 0001:00020090       _ZN6System8Sysutils13TStringHelper12QuotedStringEw 0000000140021090     rtl:rtl370.bpl
 0001:000200a0       _ZN6System8Sysutils13TStringHelper7ReplaceEww 00000001400210a0     rtl:rtl370.bpl
 0001:000200b0       _ZN6System8Sysutils13TStringHelper7ReplaceEwwNS_3SetINS0_12TReplaceFlagELS3_0ELS3_1EEE 00000001400210b0     rtl:rtl370.bpl
 0001:000200c0       _ZN6System8Sysutils13TStringHelper7ReplaceENS_13UnicodeStringES2_ 00000001400210c0     rtl:rtl370.bpl
 0001:000200d0       _ZN6System8Sysutils13TStringHelper7ReplaceENS_13UnicodeStringES2_NS_3SetINS0_12TReplaceFlagELS4_0ELS4_1EEE 00000001400210d0     rtl:rtl370.bpl
 0001:000200e0       _ZN6System8Sysutils13TStringHelper5SplitEPKwx 00000001400210e0     rtl:rtl370.bpl
 0001:000200f0       _ZN6System8Sysutils13TStringHelper5SplitEPKwxi 00000001400210f0     rtl:rtl370.bpl
 0001:00020100       _ZN6System8Sysutils13TStringHelper5SplitEPKwxNS0_19TStringSplitOptionsE 0000000140021100     rtl:rtl370.bpl
 0001:00020110       _ZN6System8Sysutils13TStringHelper5SplitEPKwxiNS0_19TStringSplitOptionsE 0000000140021110     rtl:rtl370.bpl
 0001:00020120       _ZN6System8Sysutils13TStringHelper5SplitEPKNS_13UnicodeStringEx 0000000140021120     rtl:rtl370.bpl
 0001:00020130       _ZN6System8Sysutils13TStringHelper5SplitEPKNS_13UnicodeStringExi 0000000140021130     rtl:rtl370.bpl
 0001:00020140       _ZN6System8Sysutils13TStringHelper5SplitEPKNS_13UnicodeStringExNS0_19TStringSplitOptionsE 0000000140021140     rtl:rtl370.bpl
 0001:00020150       _ZN6System8Sysutils13TStringHelper5SplitEPKNS_13UnicodeStringExiNS0_19TStringSplitOptionsE 0000000140021150     rtl:rtl370.bpl
 0001:00020160       _ZN6System8Sysutils13TStringHelper5SplitEPKwxw 0000000140021160     rtl:rtl370.bpl
 0001:00020170       _ZN6System8Sysutils13TStringHelper5SplitEPKwxww 0000000140021170     rtl:rtl370.bpl
 0001:00020180       _ZN6System8Sysutils13TStringHelper5SplitEPKwxwwNS0_19TStringSplitOptionsE 0000000140021180     rtl:rtl370.bpl
 0001:00020190       _ZN6System8Sysutils13TStringHelper5SplitEPKwxwwi 0000000140021190     rtl:rtl370.bpl
 0001:000201a0       _ZN6System8Sysutils13TStringHelper5SplitEPKwxwwiNS0_19TStringSplitOptionsE 00000001400211a0     rtl:rtl370.bpl
 0001:000201b0       _ZN6System8Sysutils13TStringHelper5SplitEPKNS_13UnicodeStringExw 00000001400211b0     rtl:rtl370.bpl
 0001:000201c0       _ZN6System8Sysutils13TStringHelper5SplitEPKNS_13UnicodeStringExww 00000001400211c0     rtl:rtl370.bpl
 0001:000201d0       _ZN6System8Sysutils13TStringHelper5SplitEPKNS_13UnicodeStringExwwNS0_19TStringSplitOptionsE 00000001400211d0     rtl:rtl370.bpl
 0001:000201e0       _ZN6System8Sysutils13TStringHelper5SplitEPKNS_13UnicodeStringExwwi 00000001400211e0     rtl:rtl370.bpl
 0001:000201f0       _ZN6System8Sysutils13TStringHelper5SplitEPKNS_13UnicodeStringExwwiNS0_19TStringSplitOptionsE 00000001400211f0     rtl:rtl370.bpl
 0001:00020200       _ZN6System8Sysutils13TStringHelper10StartsTextENS_13UnicodeStringES2_ 0000000140021200     rtl:rtl370.bpl
 0001:00020210       _ZN6System8Sysutils13TStringHelper10StartsWithENS_13UnicodeStringEb 0000000140021210     rtl:rtl370.bpl
 0001:00020220       _ZN6System8Sysutils13TStringHelper11ToCharArrayEv 0000000140021220     rtl:rtl370.bpl
 0001:00020230       _ZN6System8Sysutils13TStringHelper11ToCharArrayEii 0000000140021230     rtl:rtl370.bpl
 0001:00020240       _ZN6System8Sysutils13TStringHelper7ToLowerEj 0000000140021240     rtl:rtl370.bpl
 0001:00020250       _ZN6System8Sysutils13TStringHelper16ToLowerInvariantEv 0000000140021250     rtl:rtl370.bpl
 0001:00020260       _ZN6System8Sysutils13TStringHelper7ToUpperEj 0000000140021260     rtl:rtl370.bpl
 0001:00020270       _ZN6System8Sysutils13TStringHelper16ToUpperInvariantEv 0000000140021270     rtl:rtl370.bpl
 0001:00020280       _ZN6System8Sysutils13TStringHelper4TrimEv 0000000140021280     rtl:rtl370.bpl
 0001:00020290       _ZN6System8Sysutils13TStringHelper8TrimLeftEv 0000000140021290     rtl:rtl370.bpl
 0001:000202a0       _ZN6System8Sysutils13TStringHelper9TrimRightEv 00000001400212a0     rtl:rtl370.bpl
 0001:000202b0       _ZN6System8Sysutils13TStringHelper4TrimEPKwx 00000001400212b0     rtl:rtl370.bpl
 0001:000202c0       _ZN6System8Sysutils13TStringHelper8TrimLeftEPKwx 00000001400212c0     rtl:rtl370.bpl
 0001:000202d0       _ZN6System8Sysutils13TStringHelper9TrimRightEPKwx 00000001400212d0     rtl:rtl370.bpl
 0001:000202e0       _ZN6System8Sysutils13TStringHelper7TrimEndEPKwx 00000001400212e0     rtl:rtl370.bpl
 0001:000202f0       _ZN6System8Sysutils13TStringHelper9TrimStartEPKwx 00000001400212f0     rtl:rtl370.bpl
 0001:00020300       _ZN6System8Sysutils13TStringHelper6CopyToEiPwxii 0000000140021300     rtl:rtl370.bpl
 0001:00020310       _ZN6System8Sysutils8IntToHexEji 0000000140021310     rtl:rtl370.bpl
 0001:00020320       _ZN6System8Sysutils8IntToHexEyi 0000000140021320     rtl:rtl370.bpl
 0001:00020330       _ZN6System8Sysutils9CurrToStrENS_8CurrencyERKNS0_15TFormatSettingsE 0000000140021330     rtl:rtl370.bpl
 0001:00020340       _ZN6System8Sysutils15TCurrencyHelper4FracEv 0000000140021340     rtl:rtl370.bpl
 0001:00020350       _ZN6System8Sysutils15TCurrencyHelper5TruncEv 0000000140021350     rtl:rtl370.bpl
 0001:00020360       _ZN6System8Sysutils15TCurrencyHelper5ParseENS_13UnicodeStringERKNS0_15TFormatSettingsE 0000000140021360     rtl:rtl370.bpl
 0001:00020370       _ZN6System8Sysutils9StrToCurrENS_13UnicodeStringERKNS0_15TFormatSettingsE 0000000140021370     rtl:rtl370.bpl
 0001:00020380       _ZN6System8Sysutils12TryStrToCurrENS_13UnicodeStringERNS_8CurrencyERKNS0_15TFormatSettingsE 0000000140021380     rtl:rtl370.bpl
 0001:00020390       _ZN6System8Sysutils3NowEv  0000000140021390     rtl:rtl370.bpl
 0001:000203a0       _ZN6System8Sysutils8IncMonthENS_9TDateTimeEi 00000001400213a0     rtl:rtl370.bpl
 0001:000203b0       _ZN6System8Sysutils13DateTimeToStrENS_9TDateTimeERKNS0_15TFormatSettingsE 00000001400213b0     rtl:rtl370.bpl
 0001:000203c0       _ZN6System8Sysutils16DateTimeToStringERNS_13UnicodeStringES1_NS_9TDateTimeERKNS0_15TFormatSettingsE 00000001400213c0     rtl:rtl370.bpl
 0001:000203d0       _ZN6System8Sysutils14FormatDateTimeENS_13UnicodeStringENS_9TDateTimeERKNS0_15TFormatSettingsE 00000001400213d0     rtl:rtl370.bpl
 0001:000203e0       _ZN6System8Sysutils14initializationEv 00000001400213e0     rtl:rtl370.bpl
 0001:000203f0       _ZN6System9Dateutils15TDateTimeHelper6NowUTCEv 00000001400213f0     rtl:rtl370.bpl
 0001:00020400       _ZN6System9Dateutils12IsInLeapYearENS_9TDateTimeE 0000000140021400     rtl:rtl370.bpl
 0001:00020410       _ZN6System9Dateutils6HourOfENS_9TDateTimeE 0000000140021410     rtl:rtl370.bpl
 0001:00020420       _ZN6System9Dateutils4IsAMENS_9TDateTimeE 0000000140021420     rtl:rtl370.bpl
 0001:00020430       _ZN6System9Dateutils12WeeksInAYearEt 0000000140021430     rtl:rtl370.bpl
 0001:00020440       _ZN6System9Dateutils6YearOfENS_9TDateTimeE 0000000140021440     rtl:rtl370.bpl
 0001:00020450       _ZN6System9Dateutils11DaysInAYearEt 0000000140021450     rtl:rtl370.bpl
 0001:00020460       _ZN6System9Dateutils15TDateTimeHelper11DaysInMonthEv 0000000140021460     rtl:rtl370.bpl
 0001:00020470       _ZN6System9Dateutils5TodayEv 0000000140021470     rtl:rtl370.bpl
 0001:00020480       _ZN6System9Dateutils9YesterdayEv 0000000140021480     rtl:rtl370.bpl
 0001:00020490       _ZN6System9Dateutils8TomorrowEv 0000000140021490     rtl:rtl370.bpl
 0001:000204a0       _ZN6System9Dateutils7IsTodayENS_9TDateTimeE 00000001400214a0     rtl:rtl370.bpl
 0001:000204b0       _ZN6System9Dateutils9IsSameDayENS_9TDateTimeES1_ 00000001400214b0     rtl:rtl370.bpl
 0001:000204c0       _ZN6System9Dateutils7MonthOfENS_9TDateTimeE 00000001400214c0     rtl:rtl370.bpl
 0001:000204d0       _ZN6System9Dateutils6WeekOfENS_9TDateTimeE 00000001400214d0     rtl:rtl370.bpl
 0001:000204e0       _ZN6System9Dateutils5DayOfENS_9TDateTimeE 00000001400214e0     rtl:rtl370.bpl
 0001:000204f0       _ZN6System9Dateutils8MinuteOfENS_9TDateTimeE 00000001400214f0     rtl:rtl370.bpl
 0001:00020500       _ZN6System9Dateutils8SecondOfENS_9TDateTimeE 0000000140021500     rtl:rtl370.bpl
 0001:00020510       _ZN6System9Dateutils13MilliSecondOfENS_9TDateTimeE 0000000140021510     rtl:rtl370.bpl
 0001:00020520       _ZN6System9Dateutils14StartOfTheYearENS_9TDateTimeE 0000000140021520     rtl:rtl370.bpl
 0001:00020530       _ZN6System9Dateutils12EndOfTheYearENS_9TDateTimeE 0000000140021530     rtl:rtl370.bpl
 0001:00020540       _ZN6System9Dateutils15StartOfTheMonthENS_9TDateTimeE 0000000140021540     rtl:rtl370.bpl
 0001:00020550       _ZN6System9Dateutils13EndOfTheMonthENS_9TDateTimeE 0000000140021550     rtl:rtl370.bpl
 0001:00020560       _ZN6System9Dateutils14StartOfTheWeekENS_9TDateTimeE 0000000140021560     rtl:rtl370.bpl
 0001:00020570       _ZN6System9Dateutils12EndOfTheWeekENS_9TDateTimeE 0000000140021570     rtl:rtl370.bpl
 0001:00020580       _ZN6System9Dateutils11EndOfTheDayENS_9TDateTimeE 0000000140021580     rtl:rtl370.bpl
 0001:00020590       _ZN6System9Dateutils13WeekOfTheYearENS_9TDateTimeE 0000000140021590     rtl:rtl370.bpl
 0001:000205a0       _ZN6System9Dateutils12DayOfTheYearENS_9TDateTimeE 00000001400215a0     rtl:rtl370.bpl
 0001:000205b0       _ZN6System9Dateutils13HourOfTheYearENS_9TDateTimeE 00000001400215b0     rtl:rtl370.bpl
 0001:000205c0       _ZN6System9Dateutils15MinuteOfTheYearENS_9TDateTimeE 00000001400215c0     rtl:rtl370.bpl
 0001:000205d0       _ZN6System9Dateutils15SecondOfTheYearENS_9TDateTimeE 00000001400215d0     rtl:rtl370.bpl
 0001:000205e0       _ZN6System9Dateutils20MilliSecondOfTheYearENS_9TDateTimeE 00000001400215e0     rtl:rtl370.bpl
 0001:000205f0       _ZN6System9Dateutils14WeekOfTheMonthENS_9TDateTimeE 00000001400215f0     rtl:rtl370.bpl
 0001:00020600       _ZN6System9Dateutils14HourOfTheMonthENS_9TDateTimeE 0000000140021600     rtl:rtl370.bpl
 0001:00020610       _ZN6System9Dateutils16MinuteOfTheMonthENS_9TDateTimeE 0000000140021610     rtl:rtl370.bpl
 0001:00020620       _ZN6System9Dateutils16SecondOfTheMonthENS_9TDateTimeE 0000000140021620     rtl:rtl370.bpl
 0001:00020630       _ZN6System9Dateutils21MilliSecondOfTheMonthENS_9TDateTimeE 0000000140021630     rtl:rtl370.bpl
 0001:00020640       _ZN6System9Dateutils12DayOfTheWeekENS_9TDateTimeE 0000000140021640     rtl:rtl370.bpl
 0001:00020650       _ZN6System9Dateutils13HourOfTheWeekENS_9TDateTimeE 0000000140021650     rtl:rtl370.bpl
 0001:00020660       _ZN6System9Dateutils15MinuteOfTheWeekENS_9TDateTimeE 0000000140021660     rtl:rtl370.bpl
 0001:00020670       _ZN6System9Dateutils15SecondOfTheWeekENS_9TDateTimeE 0000000140021670     rtl:rtl370.bpl
 0001:00020680       _ZN6System9Dateutils20MilliSecondOfTheWeekENS_9TDateTimeE 0000000140021680     rtl:rtl370.bpl
 0001:00020690       _ZN6System9Dateutils14MinuteOfTheDayENS_9TDateTimeE 0000000140021690     rtl:rtl370.bpl
 0001:000206a0       _ZN6System9Dateutils14SecondOfTheDayENS_9TDateTimeE 00000001400216a0     rtl:rtl370.bpl
 0001:000206b0       _ZN6System9Dateutils19MilliSecondOfTheDayENS_9TDateTimeE 00000001400216b0     rtl:rtl370.bpl
 0001:000206c0       _ZN6System9Dateutils15SecondOfTheHourENS_9TDateTimeE 00000001400216c0     rtl:rtl370.bpl
 0001:000206d0       _ZN6System9Dateutils20MilliSecondOfTheHourENS_9TDateTimeE 00000001400216d0     rtl:rtl370.bpl
 0001:000206e0       _ZN6System9Dateutils22MilliSecondOfTheMinuteENS_9TDateTimeE 00000001400216e0     rtl:rtl370.bpl
 0001:000206f0       _ZN6System9Dateutils12YearsBetweenENS_9TDateTimeES1_ 00000001400216f0     rtl:rtl370.bpl
 0001:00020700       _ZN6System9Dateutils13MonthsBetweenENS_9TDateTimeES1_ 0000000140021700     rtl:rtl370.bpl
 0001:00020710       _ZN6System9Dateutils12WeeksBetweenENS_9TDateTimeES1_ 0000000140021710     rtl:rtl370.bpl
 0001:00020720       _ZN6System9Dateutils11DaysBetweenENS_9TDateTimeES1_ 0000000140021720     rtl:rtl370.bpl
 0001:00020730       _ZN6System9Dateutils12HoursBetweenENS_9TDateTimeES1_ 0000000140021730     rtl:rtl370.bpl
 0001:00020740       _ZN6System9Dateutils14MinutesBetweenENS_9TDateTimeES1_ 0000000140021740     rtl:rtl370.bpl
 0001:00020750       _ZN6System9Dateutils14SecondsBetweenENS_9TDateTimeES1_ 0000000140021750     rtl:rtl370.bpl
 0001:00020760       _ZN6System9Dateutils19MilliSecondsBetweenENS_9TDateTimeES1_ 0000000140021760     rtl:rtl370.bpl
 0001:00020770       _ZN6System9Dateutils15DateTimeInRangeENS_9TDateTimeES1_S1_b 0000000140021770     rtl:rtl370.bpl
 0001:00020780       _ZN6System9Dateutils11DateInRangeENS_9TDateTimeES1_S1_b 0000000140021780     rtl:rtl370.bpl
 0001:00020790       _ZN6System9Dateutils11TimeInRangeENS_9TDateTimeES1_S1_b 0000000140021790     rtl:rtl370.bpl
 0001:000207a0       _ZN6System9Dateutils8YearSpanENS_9TDateTimeES1_ 00000001400217a0     rtl:rtl370.bpl
 0001:000207b0       _ZN6System9Dateutils9MonthSpanENS_9TDateTimeES1_ 00000001400217b0     rtl:rtl370.bpl
 0001:000207c0       _ZN6System9Dateutils8WeekSpanENS_9TDateTimeES1_ 00000001400217c0     rtl:rtl370.bpl
 0001:000207d0       _ZN6System9Dateutils7DaySpanENS_9TDateTimeES1_ 00000001400217d0     rtl:rtl370.bpl
 0001:000207e0       _ZN6System9Dateutils8HourSpanENS_9TDateTimeES1_ 00000001400217e0     rtl:rtl370.bpl
 0001:000207f0       _ZN6System9Dateutils10MinuteSpanENS_9TDateTimeES1_ 00000001400217f0     rtl:rtl370.bpl
 0001:00020800       _ZN6System9Dateutils10SecondSpanENS_9TDateTimeES1_ 0000000140021800     rtl:rtl370.bpl
 0001:00020810       _ZN6System9Dateutils15MilliSecondSpanENS_9TDateTimeES1_ 0000000140021810     rtl:rtl370.bpl
 0001:00020820       _ZN6System9Dateutils15TDateTimeHelper7IncYearEi 0000000140021820     rtl:rtl370.bpl
 0001:00020830       _ZN6System9Dateutils15TDateTimeHelper8IncMonthEi 0000000140021830     rtl:rtl370.bpl
 0001:00020840       _ZN6System9Dateutils15TDateTimeHelper7IncWeekEi 0000000140021840     rtl:rtl370.bpl
 0001:00020850       _ZN6System9Dateutils6IncDayENS_9TDateTimeEi 0000000140021850     rtl:rtl370.bpl
 0001:00020860       _ZN6System9Dateutils15TDateTimeHelper6IncDayEi 0000000140021860     rtl:rtl370.bpl
 0001:00020870       _ZN6System9Dateutils7IncHourENS_9TDateTimeEx 0000000140021870     rtl:rtl370.bpl
 0001:00020880       _ZN6System9Dateutils15TDateTimeHelper7IncHourEx 0000000140021880     rtl:rtl370.bpl
 0001:00020890       _ZN6System9Dateutils9IncMinuteENS_9TDateTimeEx 0000000140021890     rtl:rtl370.bpl
 0001:000208a0       _ZN6System9Dateutils15TDateTimeHelper9IncMinuteEx 00000001400218a0     rtl:rtl370.bpl
 0001:000208b0       _ZN6System9Dateutils9IncSecondENS_9TDateTimeEx 00000001400218b0     rtl:rtl370.bpl
 0001:000208c0       _ZN6System9Dateutils15TDateTimeHelper9IncSecondEx 00000001400218c0     rtl:rtl370.bpl
 0001:000208d0       _ZN6System9Dateutils14IncMilliSecondENS_9TDateTimeEx 00000001400218d0     rtl:rtl370.bpl
 0001:000208e0       _ZN6System9Dateutils15TDateTimeHelper14IncMilliSecondEx 00000001400218e0     rtl:rtl370.bpl
 0001:000208f0       _ZN6System9Dateutils17TryEncodeDateTimeEtttttttRNS_9TDateTimeE 00000001400218f0     rtl:rtl370.bpl
 0001:00020900       _ZN6System9Dateutils17TryEncodeDateWeekEttRNS_9TDateTimeEt 0000000140021900     rtl:rtl370.bpl
 0001:00020910       _ZN6System9Dateutils16TryEncodeDateDayEttRNS_9TDateTimeE 0000000140021910     rtl:rtl370.bpl
 0001:00020920       _ZN6System9Dateutils22TryEncodeDateMonthWeekEttttRNS_9TDateTimeE 0000000140021920     rtl:rtl370.bpl
 0001:00020930       _ZN6System9Dateutils14RecodeDateTimeENS_9TDateTimeEttttttt 0000000140021930     rtl:rtl370.bpl
 0001:00020940       _ZN6System9Dateutils15CompareDateTimeENS_9TDateTimeES1_ 0000000140021940     rtl:rtl370.bpl
 0001:00020950       _ZN6System9Dateutils12SameDateTimeENS_9TDateTimeES1_ 0000000140021950     rtl:rtl370.bpl
 0001:00020960       _ZN6System9Dateutils11CompareDateENS_9TDateTimeES1_ 0000000140021960     rtl:rtl370.bpl
 0001:00020970       _ZN6System9Dateutils8SameDateENS_9TDateTimeES1_ 0000000140021970     rtl:rtl370.bpl
 0001:00020980       _ZN6System9Dateutils11CompareTimeENS_9TDateTimeES1_ 0000000140021980     rtl:rtl370.bpl
 0001:00020990       _ZN6System9Dateutils8SameTimeENS_9TDateTimeES1_ 0000000140021990     rtl:rtl370.bpl
 0001:000209a0       _ZN6System9Dateutils12NthDayOfWeekENS_9TDateTimeE 00000001400219a0     rtl:rtl370.bpl
 0001:000209b0       _ZN6System9Dateutils25TryEncodeDayOfWeekInMonthEttttRNS_9TDateTimeE 00000001400219b0     rtl:rtl370.bpl
 0001:000209c0       _ZN6System9Dateutils20DateTimeToJulianDateENS_9TDateTimeE 00000001400219c0     rtl:rtl370.bpl
 0001:000209d0       _ZN6System9Dateutils23TryJulianDateToDateTimeEdRNS_9TDateTimeE 00000001400219d0     rtl:rtl370.bpl
 0001:000209e0       _ZN6System9Dateutils28DateTimeToModifiedJulianDateENS_9TDateTimeE 00000001400219e0     rtl:rtl370.bpl
 0001:000209f0       _ZN6System9Dateutils31TryModifiedJulianDateToDateTimeEdRNS_9TDateTimeE 00000001400219f0     rtl:rtl370.bpl
 0001:00020a00       _ZN6System9Dateutils14DateTimeToUnixENS_9TDateTimeEb 0000000140021a00     rtl:rtl370.bpl
 0001:00020a10       _ZN6System9Dateutils22DateTimeToMillisecondsENS_9TDateTimeE 0000000140021a10     rtl:rtl370.bpl
 0001:00020a20       _ZN6System9Dateutils18TimeToMillisecondsENS_9TDateTimeE 0000000140021a20     rtl:rtl370.bpl
 0001:00020a30       _ZN6System9Dateutils16TryISO8601ToDateENS_13UnicodeStringERNS_9TDateTimeEb 0000000140021a30     rtl:rtl370.bpl
 0001:00020a40       _ZN6System9Dateutils13DateToISO8601ENS_9TDateTimeEb 0000000140021a40     rtl:rtl370.bpl
 0001:00020a50       _ZN6System9Dateutils14EncodeDateTimeEttttttt 0000000140021a50     rtl:rtl370.bpl
 0001:00020a60       _ZN6System9Dateutils14DecodeDateTimeENS_9TDateTimeERtS2_S2_S2_S2_S2_S2_ 0000000140021a60     rtl:rtl370.bpl
 0001:00020a70       _ZN6System9Dateutils14EncodeDateWeekEttt 0000000140021a70     rtl:rtl370.bpl
 0001:00020a80       _ZN6System9Dateutils14DecodeDateWeekENS_9TDateTimeERtS2_S2_ 0000000140021a80     rtl:rtl370.bpl
 0001:00020a90       _ZN6System9Dateutils13EncodeDateDayEtt 0000000140021a90     rtl:rtl370.bpl
 0001:00020aa0       _ZN6System9Dateutils13DecodeDateDayENS_9TDateTimeERtS2_ 0000000140021aa0     rtl:rtl370.bpl
 0001:00020ab0       _ZN6System9Dateutils19EncodeDateMonthWeekEtttt 0000000140021ab0     rtl:rtl370.bpl
 0001:00020ac0       _ZN6System9Dateutils19DecodeDateMonthWeekENS_9TDateTimeERtS2_S2_S2_ 0000000140021ac0     rtl:rtl370.bpl
 0001:00020ad0       _ZN6System9Dateutils10RecodeYearENS_9TDateTimeEt 0000000140021ad0     rtl:rtl370.bpl
 0001:00020ae0       _ZN6System9Dateutils11RecodeMonthENS_9TDateTimeEt 0000000140021ae0     rtl:rtl370.bpl
 0001:00020af0       _ZN6System9Dateutils9RecodeDayENS_9TDateTimeEt 0000000140021af0     rtl:rtl370.bpl
 0001:00020b00       _ZN6System9Dateutils10RecodeHourENS_9TDateTimeEt 0000000140021b00     rtl:rtl370.bpl
 0001:00020b10       _ZN6System9Dateutils12RecodeMinuteENS_9TDateTimeEt 0000000140021b10     rtl:rtl370.bpl
 0001:00020b20       _ZN6System9Dateutils12RecodeSecondENS_9TDateTimeEt 0000000140021b20     rtl:rtl370.bpl
 0001:00020b30       _ZN6System9Dateutils17RecodeMilliSecondENS_9TDateTimeEt 0000000140021b30     rtl:rtl370.bpl
 0001:00020b40       _ZN6System9Dateutils10RecodeDateENS_9TDateTimeEttt 0000000140021b40     rtl:rtl370.bpl
 0001:00020b50       _ZN6System9Dateutils10RecodeTimeENS_9TDateTimeEtttt 0000000140021b50     rtl:rtl370.bpl
 0001:00020b60       _ZN6System9Dateutils22DecodeDayOfWeekInMonthENS_9TDateTimeERtS2_S2_S2_ 0000000140021b60     rtl:rtl370.bpl
 0001:00020b70       _ZN6System9Dateutils22EncodeDayOfWeekInMonthEtttt 0000000140021b70     rtl:rtl370.bpl
 0001:00020b80       _ZN6System9Dateutils20JulianDateToDateTimeEd 0000000140021b80     rtl:rtl370.bpl
 0001:00020b90       _ZN6System9Dateutils28ModifiedJulianDateToDateTimeEd 0000000140021b90     rtl:rtl370.bpl
 0001:00020ba0       _ZN6System9Dateutils14UnixToDateTimeExb 0000000140021ba0     rtl:rtl370.bpl
 0001:00020bb0       _ZN6System9Dateutils13ISO8601ToDateENS_13UnicodeStringEb 0000000140021bb0     rtl:rtl370.bpl
 0001:00020bc0       _ZN6System9Dateutils15TDateTimeHelper11SetHttpDateENS_13UnicodeStringEb 0000000140021bc0     rtl:rtl370.bpl
 0001:00020bd0       _ZN6System9Dateutils14initializationEv 0000000140021bd0     rtl:rtl370.bpl
 0001:00020be0       _ZN6System5Types14initializationEv 0000000140021be0     rtl:rtl370.bpl
 0001:00020bf0       _ZN6System5TGUID6CreateEPKvb 0000000140021bf0     rtl:rtl370.bpl
 0001:00020c00       _ZN6System10_IntfClearERNS_15DelphiInterfaceINS_10IInterfaceEEE 0000000140021c00     rtl:rtl370.bpl
 0001:00020c10       _ZN6System8_ValLongENS_13UnicodeStringERi 0000000140021c10     rtl:rtl370.bpl
 0001:00020c20       _ZN6System9_ValInt64ENS_13UnicodeStringERi 0000000140021c20     rtl:rtl370.bpl
 0001:00020c30       _ZN6System6_TruncEe        0000000140021c30     rtl:rtl370.bpl
 0001:00020c40       _ZN6System4FracEd          0000000140021c40     rtl:rtl370.bpl
 0001:00020c50       _calloc                    0000000140021c50     libucrt:api-ms-win-crt-heap-l1-1-0.dll
 0001:00020c60       _ZN6System18IsMemoryManagerSetEv 0000000140021c60     rtl:rtl370.bpl
 0001:00020c70       _ZN6System11_RaiseAgainEv  0000000140021c70     rtl:rtl370.bpl
 0001:00020c80       __delphi_init_eh           0000000140021c80     libc++.dll:libc++-370.dll
 0001:00020c90       _ZN6System9RaiseListEv     0000000140021c90     rtl:rtl370.bpl
 0001:00020ca0       _ZN6System12SetRaiseListEPv 0000000140021ca0     rtl:rtl370.bpl
 0001:00020cb0       _ZN6System16GetMemoryManagerERNS_16TMemoryManagerExE 0000000140021cb0     rtl:rtl370.bpl
 0001:00020cc0       _ZN6System16SetMemoryManagerERKNS_16TMemoryManagerExE 0000000140021cc0     rtl:rtl370.bpl
 0001:00020cd0       _realloc                   0000000140021cd0     libucrt:api-ms-win-crt-heap-l1-1-0.dll
 0002:00000000       __mingw_fe_dfl_env         0000000140022000     crt2u.o
 0002:00000008       __mingw_fe_pc64_env        0000000140022008     crt2u.o
 0002:00000010       __mingw_fe_pc53_env        0000000140022010     crt2u.o
 0002:00000018       .refptr._MINGW_INSTALL_DEBUG_MATHERR 0000000140022018     crt2u.o
 0002:00000020       .refptr.__ImageBase        0000000140022020     crt2u.o
 0002:00000028       .refptr.__dyn_tls_init_callback 0000000140022028     crt2u.o
 0002:00000030       .refptr.__globallocalestatus 0000000140022030     crt2u.o
 0002:00000038       .refptr.__mingw_app_type   0000000140022038     crt2u.o
 0002:00000040       .refptr.__mingw_initltsdrot_force 0000000140022040     crt2u.o
 0002:00000048       .refptr.__mingw_initltsdyn_force 0000000140022048     crt2u.o
 0002:00000050       .refptr.__mingw_initltssuo_force 0000000140022050     crt2u.o
 0002:00000058       .refptr.__mingw_oldexcpt_handler 0000000140022058     crt2u.o
 0002:00000060       .refptr.__native_startup_lock 0000000140022060     crt2u.o
 0002:00000068       .refptr.__native_startup_state 0000000140022068     crt2u.o
 0002:00000070       .refptr.__xc_a             0000000140022070     crt2u.o
 0002:00000078       .refptr.__xc_z             0000000140022078     crt2u.o
 0002:00000080       .refptr.__xi_a             0000000140022080     crt2u.o
 0002:00000088       .refptr.__xi_z             0000000140022088     crt2u.o
 0002:00000090       .refptr._commode           0000000140022090     crt2u.o
 0002:00000098       .refptr._dowildcard        0000000140022098     crt2u.o
 0002:000000a0       .refptr._fmode             00000001400220a0     crt2u.o
 0002:000000a8       .refptr._hInstance         00000001400220a8     crt2u.o
 0002:000000b0       .refptr._newmode           00000001400220b0     crt2u.o
 0002:000000fc       _ZTRN7Sysinit15PImageThunkDataE 00000001400220fc     sysinit.o
 0002:00000120       _ZTRN7Sysinit15TImageThunkDataE 0000000140022120     sysinit.o
 0002:000001c8       _ZTRN7Sysinit13ImgDelayDescrE 00000001400221c8     sysinit.o
 0002:000002c8       _ZTRN7Sysinit14PImgDelayDescrE 00000001400222c8     sysinit.o
 0002:000002ec       _ZTRN7Sysinit13DelayLoadProcE 00000001400222ec     sysinit.o
 0002:00000370       _ZTRN7Sysinit14PDelayLoadProcE 0000000140022370     sysinit.o
 0002:00000394       _ZTRN7Sysinit13DelayLoadInfoE 0000000140022394     sysinit.o
 0002:00000488       _ZTRN7Sysinit14PDelayLoadInfoE 0000000140022488     sysinit.o
 0002:000004ac       _ZTRN7Sysinit10PfnDliHookE 00000001400224ac     sysinit.o
 0002:00005ab0       .refptr.Form1              0000000140027ab0     Project1.o
 0002:00005ab8       .refptr._ZTRN6System8Sysutils9ExceptionE 0000000140027ab8     Project1.o
 0002:00005ac0       .refptr._ZTV6TForm1        0000000140027ac0     Project1.o
 0002:00005ac8       .refptr._ZTVN6System8Sysutils9ExceptionE 0000000140027ac8     Project1.o
 0002:00005b78       _ZTV6TForm1                0000000140027b78     Unit1.o
 0002:000062b0       _ZTX6TForm1                00000001400282b0     Unit1.o
 0002:000063a0       _ZTF6TForm1                00000001400283a0     Unit1.o
 0002:00007a00       _ZTM6TForm1                0000000140029a00     Unit1.o
 0002:00008138       _ZTDN6System20TCppInterfacedObjectINS_8Sysutils5TProcE8IUnknownNS_10IInterfaceEEE 000000014002a138     Unit1.o
 0002:00008138       .weak._ZTDN6System20TCppInterfacedObjectINS_8Sysutils5TProcE8IUnknownNS_10IInterfaceEEE.default._ZN6TForm1C3EPN6System7Classes10TComponentE 000000014002a138     Unit1.o
 0002:00008408       _ZTDN6System20TCppInterfacedObjectINS_7Classes16TThreadProcedureE8IUnknownNS_10IInterfaceEEE 000000014002a408     Unit1.o
 0002:00008408       .weak._ZTDN6System20TCppInterfacedObjectINS_7Classes16TThreadProcedureE8IUnknownNS_10IInterfaceEEE.default._ZN6TForm1C3EPN6System7Classes10TComponentE 000000014002a408     Unit1.o
 0002:000084e0       _ZN6System7Uitypes14TAlphaColorRec4NullE 000000014002a4e0     Unit1.o
 0002:000084e4       _ZN6System7Uitypes14TAlphaColorRec5BlackE 000000014002a4e4     Unit1.o
 0002:000084e8       _ZN6System7Uitypes14TAlphaColorRec7SkyblueE 000000014002a4e8     Unit1.o
 0002:000084f0       _ZTR6TForm1                000000014002a4f0     Unit1.o
 0002:00008528       _ZTISt12length_error       000000014002a528     Unit1.o
 0002:00008540       _ZTSSt12length_error       000000014002a540     Unit1.o
 0002:00008558       _ZTISt11logic_error        000000014002a558     Unit1.o
 0002:00008570       _ZTSSt11logic_error        000000014002a570     Unit1.o
 0002:00008580       _ZTISt9exception           000000014002a580     Unit1.o
 0002:00008590       _ZTSSt9exception           000000014002a590     Unit1.o
 0002:000085a0       _ZTISt20bad_array_new_length 000000014002a5a0     Unit1.o
 0002:000085b8       _ZTSSt20bad_array_new_length 000000014002a5b8     Unit1.o
 0002:000085d8       _ZTISt9bad_alloc           000000014002a5d8     Unit1.o
 0002:000085f0       _ZTSSt9bad_alloc           000000014002a5f0     Unit1.o
 0002:00008600       _ZTVN6System20TCppInterfacedObjectINS_8Sysutils5TProcE8IUnknownNS_10IInterfaceEEE 000000014002a600     Unit1.o
 0002:00008790       _ZTRN6System20TCppInterfacedObjectINS_8Sysutils5TProcE8IUnknownNS_10IInterfaceEEE 000000014002a790     Unit1.o
 0002:000087e0       _ZTRN6System13InvokeWrapperINS_8Sysutils5TProcEZN6TForm124AtualizarTelemetriaAsyncEvE3$_0MS4_KFvvEEE 000000014002a7e0     Unit1.o
 0002:00008820       _ZTR8IUnknown              000000014002a820     Unit1.o
 0002:00008860       _ZTRN6System10IInterfaceE  000000014002a860     Unit1.o
 0002:000088a0       _ZTRN6System8Sysutils5TProcE 000000014002a8a0     Unit1.o
 0002:000088d8       _ZTVN6System8Sysutils5TProcE 000000014002a8d8     Unit1.o
 0002:00008908       _ZTIN6System8Sysutils5TProcE 000000014002a908     Unit1.o
 0002:00008920       _ZTSN6System8Sysutils5TProcE 000000014002a920     Unit1.o
 0002:00008940       _ZTIN6System10IInterfaceE  000000014002a940     Unit1.o
 0002:00008958       _ZTSN6System10IInterfaceE  000000014002a958     Unit1.o
 0002:00008970       _ZTI8IUnknown              000000014002a970     Unit1.o
 0002:00008980       _ZTS8IUnknown              000000014002a980     Unit1.o
 0002:00008990       _ZTV8IUnknown              000000014002a990     Unit1.o
 0002:000089b8       _ZTVN6System10IInterfaceE  000000014002a9b8     Unit1.o
 0002:000089e0       _ZTVN6System20TCppInterfacedObjectINS_7Classes16TThreadProcedureE8IUnknownNS_10IInterfaceEEE 000000014002a9e0     Unit1.o
 0002:00008b80       _ZTRN6System20TCppInterfacedObjectINS_7Classes16TThreadProcedureE8IUnknownNS_10IInterfaceEEE 000000014002ab80     Unit1.o
 0002:00008bd0       _ZTRN6System13InvokeWrapperINS_7Classes16TThreadProcedureEZZN6TForm124AtualizarTelemetriaAsyncEvENK3$_0clEvEUlvE_MS5_KFvvEEE 000000014002abd0     Unit1.o
 0002:00008c10       _ZTRN6System7Classes16TThreadProcedureE 000000014002ac10     Unit1.o
 0002:00008c50       _ZTVN6System7Classes16TThreadProcedureE 000000014002ac50     Unit1.o
 0002:00008c80       _ZTIN6System7Classes16TThreadProcedureE 000000014002ac80     Unit1.o
 0002:00008c98       _ZTSN6System7Classes16TThreadProcedureE 000000014002ac98     Unit1.o
 0002:00008cbc       _ZN6System7Uitypes14TAlphaColorRec6YellowE 000000014002acbc     Unit1.o
 0002:00008cc0       _ZN6System7Uitypes14TAlphaColorRec3RedE 000000014002acc0     Unit1.o
 0002:00008cc8       .refptr._ZN6System10_init_instE 000000014002acc8     Unit1.o
 0002:00008cd0       .refptr._ZTVN3Fmx15Materialsources20TLightMaterialSourceE 000000014002acd0     Unit1.o
 0002:00008cd8       .refptr._ZTVN3Fmx8Graphics7TBitmapE 000000014002acd8     Unit1.o
 0002:00008ce0       .refptr._ZTVN3Fmx9Objects3d7TSphereE 000000014002ace0     Unit1.o
 0002:00008ce8       .refptr._ZTVN6System3Net19Httpclientcomponent14TNetHTTPClientE 000000014002ace8     Unit1.o
 0002:00008cf0       .refptr._ZTVN6System7Classes11TStringListE 000000014002acf0     Unit1.o
 0002:00008cf8       .refptr._ZTVN6System7Classes13TStringStreamE 000000014002acf8     Unit1.o
 0002:00008d18       .refptr.__imp___winitenv   000000014002ad18     libucrt:lib64_libucrt_extra_a-__p___winitenv.o
 0002:00008d38       _tls_used                  000000014002ad38     libmingw32:lib64_libmingw32_a-tlssup.o
 0002:00008d60       __dyn_tls_init_callback    000000014002ad60     libmingw32:lib64_libmingw32_a-tlssup.o
 0002:00008d68       .refptr._CRT_MT            000000014002ad68     libmingw32:lib64_libmingw32_a-tlssup.o
 0002:00008d70       .refptr.__CTOR_LIST__      000000014002ad70     libmingw32:lib64_libmingw32_a-gccmain.o
 0002:00008fe8       .refptr.__RUNTIME_PSEUDO_RELOC_LIST_END__ 000000014002afe8     libmingw32:lib64_libmingw32_a-pseudo-reloc.o
 0002:00008ff0       .refptr.__RUNTIME_PSEUDO_RELOC_LIST__ 000000014002aff0     libmingw32:lib64_libmingw32_a-pseudo-reloc.o
 0002:00008ff8       .refptr._mngr              000000014002aff8     libmingw32:lib64_libmingw32_a-malloc.o
 0002:00009000       .refptr._mngr_set          000000014002b000     libmingw32:lib64_libmingw32_a-malloc.o
 0002:0000901c       _ZN6System10_init_instE    000000014002b01c     rtle:syssupp.o
 0002:000091ba       _ZNSt3__119piecewise_constructE 000000014002b1ba     rtle:syssupp.o
 0002:000091c0       .refptr._ZTRN6System8Sysutils11ERangeErrorE 000000014002b1c0     rtle:ustring.o
 0002:000091c8       .refptr._ZTVN6System8Sysutils11ERangeErrorE 000000014002b1c8     rtle:ustring.o
 0002:000092dc       _ZTRN6System8Internal10Helperhlpr9TGUIDHlprE 000000014002b2dc     rtl:System.Internal.HelperHlpr.o
 0002:000096e4       _ZTRN6System8Internal10Helperhlpr11TStringHlprE 000000014002b6e4     rtl:System.Internal.HelperHlpr.o
 0002:0000bbb8       _ZTRN6System8Internal10Helperhlpr12TIntegerHlprE 000000014002dbb8     rtl:System.Internal.HelperHlpr.o
 0002:0000be18       _ZTRN6System8Internal10Helperhlpr10TInt64HlprE 000000014002de18     rtl:System.Internal.HelperHlpr.o
 0002:0000c074       _ZTRN6System8Internal10Helperhlpr13TCurrencyHlprE 000000014002e074     rtl:System.Internal.HelperHlpr.o
 0002:0000c38c       _ZTRN6System8Internal10Helperhlpr13TDateTimeHlprE 000000014002e38c     rtl:System.Internal.HelperHlpr.o
 0002:0000e4d8       _ZTRN6System12DynamicArrayIhEE 00000001400304d8     rtl:System.Internal.HelperHlpr.o
 0002:0000e520       _ZTRN6System15DelphiInterfaceINS_14IEnumerator__1INS_13UnicodeStringEEEEE 0000000140030520     rtl:System.Internal.HelperHlpr.o
 0002:0000e56c       _ZTRN6System15DelphiInterfaceINS_14IEnumerable__1INS_13UnicodeStringEEEEE 000000014003056c     rtl:System.Internal.HelperHlpr.o
 0002:0000e5b8       _ZTRN6System12DynamicArrayINS_13UnicodeStringEEE 00000001400305b8     rtl:System.Internal.HelperHlpr.o
 0002:0000e600       _ZTRN6System12DynamicArrayIwEE 0000000140030600     rtl:System.Internal.HelperHlpr.o
 0002:0000e658       _load_config_used          0000000140030658     libmingwex:lib64_libmingwex_a-loadcfg.o
 0002:0000e790       .refptr.__EMBT_INIT_LIST_BEGIN__ 0000000140030790     libmingw32:lib64_libmingw32_a-start_delphi.o
 0002:0000e798       .refptr.__EMBT_INIT_LIST_END__ 0000000140030798     libmingw32:lib64_libmingw32_a-start_delphi.o
 0002:0000e7a0       .refptr.__isDLL            00000001400307a0     libmingw32:lib64_libmingw32_a-start_delphi.o
 0002:0000e7a8       .refptr.__isGUI            00000001400307a8     libmingw32:lib64_libmingw32_a-start_delphi.o
 0002:0000e7b0       .refptr.__isVCLPackage     00000001400307b0     libmingw32:lib64_libmingw32_a-start_delphi.o
 0002:0000e824       _ZTRN6System8Internal7Initcpp15PUnitDescriptorE 0000000140030824     rtl:System.Internal.InitCPP.o
 0002:0000e848       _ZTRN6System8Internal7Initcpp16PPUnitDescriptorE 0000000140030848     rtl:System.Internal.InitCPP.o
 0002:0000e86c       _ZTRN6System8Internal7Initcpp17PPPUnitDescriptorE 000000014003086c     rtl:System.Internal.InitCPP.o
 0002:0000e894       _ZTRN6System8Internal7Initcpp13TUnitInitProcE 0000000140030894     rtl:System.Internal.InitCPP.o
 0002:0000e8d0       _ZTRN6System8Internal7Initcpp13TUnitFiniProcE 00000001400308d0     rtl:System.Internal.InitCPP.o
 0002:0000e90c       _ZTRN6System8Internal7Initcpp15TUnitDescriptorE 000000014003090c     rtl:System.Internal.InitCPP.o
 0002:0000ea80       _ZTRN6System8Internal7Initcpp20PUnitDescriptorBlockE 0000000140030a80     rtl:System.Internal.InitCPP.o
 0002:0000eaa8       _ZTRN6System8Internal7Initcpp21PPUnitDescriptorBlockE 0000000140030aa8     rtl:System.Internal.InitCPP.o
 0002:0000ead4       _ZTRN6System8Internal7Initcpp20TUnitDescriptorBlockE 0000000140030ad4     rtl:System.Internal.InitCPP.o
 0000:00000000       __RUNTIME_PSEUDO_RELOC_LIST__ 0000000140030b80     <linker-defined>
 0000:00000000       __RUNTIME_PSEUDO_RELOC_LIST_END__ 0000000140030c58     <linker-defined>
 0002:0000ec58       __guard_check_icall_fptr   0000000140030c58     libmingwex:lib64_libmingwex_a-mingw_cfguard_support.o
 0002:0000ec60       __guard_dispatch_icall_fptr 0000000140030c60     libmingwex:lib64_libmingwex_a-mingw_cfguard_support.o
 0002:0000ec68       __xc_a                     0000000140030c68     libmingw32:lib64_libmingw32_a-cinitexe.o
 0002:0000ec70       __mingw_pcppinit           0000000140030c70     crt2u.o
 0002:0000ec78       __xc_z                     0000000140030c78     libmingw32:lib64_libmingw32_a-cinitexe.o
 0002:0000ec90       __xi_a                     0000000140030c90     libmingw32:lib64_libmingw32_a-cinitexe.o
 0002:0000ec98       pcrtinit                   0000000140030c98     libmingw32:lib64_libmingw32_a-start_delphi.o
 0002:0000eca0       __mingw_pcinit             0000000140030ca0     crt2u.o
 0002:0000eca8       __xi_z                     0000000140030ca8     libmingw32:lib64_libmingw32_a-cinitexe.o
 0002:0000ecb0       __xl_a                     0000000140030cb0     libmingw32:lib64_libmingw32_a-tlssup.o
 0002:0000ecb8       __xl_c                     0000000140030cb8     libmingw32:lib64_libmingw32_a-tlssup.o
 0002:0000ecc0       __xl_d                     0000000140030cc0     libmingw32:lib64_libmingw32_a-tlssup.o
 0002:0000ecc8       __xl_z                     0000000140030cc8     libmingw32:lib64_libmingw32_a-tlssup.o
 0000:00000000       __CTOR_LIST__              0000000140030cd0     <linker-defined>
 0000:00000000       __DTOR_LIST__              0000000140030ce8     <linker-defined>
 0002:00010860       __imp__ZN6System10FreeMemoryEPv 0000000140032860     rtl:rtl370.bpl
 0002:00010868       __imp__ZN6System10_IntfClearERNS_15DelphiInterfaceINS_10IInterfaceEEE 0000000140032868     rtl:rtl370.bpl
 0002:00010870       __imp__ZN6System10_LStrEqualENS_11AnsiStringTILt0EEES1_ 0000000140032870     rtl:rtl370.bpl
 0002:00010878       __imp__ZN6System10_UStrEqualENS_13UnicodeStringES0_ 0000000140032878     rtl:rtl370.bpl
 0002:00010880       __imp__ZN6System10_WStrEqualENS_10WideStringES0_ 0000000140032880     rtl:rtl370.bpl
 0002:00010888       __imp__ZN6System11Ansistrings11IsDelimiterENS_11AnsiStringTILt0EEES2_i 0000000140032888     rtl:rtl370.bpl
 0002:00010890       __imp__ZN6System11Ansistrings12AnsiLastCharENS_11AnsiStringTILt0EEE 0000000140032890     rtl:rtl370.bpl
 0002:00010898       __imp__ZN6System11Ansistrings13AnsiLowerCaseENS_11AnsiStringTILt0EEE 0000000140032898     rtl:rtl370.bpl
 0002:000108a0       __imp__ZN6System11Ansistrings13AnsiUpperCaseENS_11AnsiStringTILt0EEE 00000001400328a0     rtl:rtl370.bpl
 0002:000108a8       __imp__ZN6System11Ansistrings13LastDelimiterENS_11AnsiStringTILt0EEES2_ 00000001400328a8     rtl:rtl370.bpl
 0002:000108b0       __imp__ZN6System11Ansistrings15AnsiCompareTextENS_11AnsiStringTILt0EEES2_ 00000001400328b0     rtl:rtl370.bpl
 0002:000108b8       __imp__ZN6System11Ansistrings15IsPathDelimiterENS_11AnsiStringTILt0EEEi 00000001400328b8     rtl:rtl370.bpl
 0002:000108c0       __imp__ZN6System11Ansistrings4TrimENS_11AnsiStringTILt0EEE 00000001400328c0     rtl:rtl370.bpl
 0002:000108c8       __imp__ZN6System11Ansistrings6FormatENS_11AnsiStringTILt0EEEPKNS_7TVarRecEx 00000001400328c8     rtl:rtl370.bpl
 0002:000108d0       __imp__ZN6System11Ansistrings7AnsiPosENS_11AnsiStringTILt0EEES2_ 00000001400328d0     rtl:rtl370.bpl
 0002:000108d8       __imp__ZN6System11Ansistrings8ByteTypeENS_11AnsiStringTILt0EEEi 00000001400328d8     rtl:rtl370.bpl
 0002:000108e0       __imp__ZN6System11Ansistrings8TrimLeftENS_11AnsiStringTILt0EEE 00000001400328e0     rtl:rtl370.bpl
 0002:000108e8       __imp__ZN6System11Ansistrings9TrimRightENS_11AnsiStringTILt0EEE 00000001400328e8     rtl:rtl370.bpl
 0002:000108f0       __imp__ZN6System11_DoneExceptEv 00000001400328f0     rtl:rtl370.bpl
 0002:000108f8       __imp__ZN6System11_LStrDeleteERNS_11AnsiStringTILt0EEEii 00000001400328f8     rtl:rtl370.bpl
 0002:00010900       __imp__ZN6System11_LStrInsertENS_11AnsiStringTILt0EEERS1_i 0000000140032900     rtl:rtl370.bpl
 0002:00010908       __imp__ZN6System11_RaiseAgainEv 0000000140032908     rtl:rtl370.bpl
 0002:00010910       __imp__ZN6System11_UStrDeleteERNS_13UnicodeStringEii 0000000140032910     rtl:rtl370.bpl
 0002:00010918       __imp__ZN6System11_UStrInsertENS_13UnicodeStringERS0_i 0000000140032918     rtl:rtl370.bpl
 0002:00010920       __imp__ZN6System11_WStrDeleteERNS_10WideStringEii 0000000140032920     rtl:rtl370.bpl
 0002:00010928       __imp__ZN6System11_WStrInsertENS_10WideStringERS0_i 0000000140032928     rtl:rtl370.bpl
 0002:00010930       .refptr._ZN6System12MainInstanceE 0000000140032930     rtl:rtl370.bpl
 0002:00010930       _ZN6System12MainInstanceE  0000000140032930     rtl:rtl370.bpl
 0002:00010930       __imp__ZN6System12MainInstanceE 0000000140032930     rtl:rtl370.bpl
 0002:00010938       __imp__ZN6System12SetRaiseListEPv 0000000140032938     rtl:rtl370.bpl
 0002:00010940       __imp__ZN6System12StringOfCharEci 0000000140032940     rtl:rtl370.bpl
 0002:00010948       __imp__ZN6System12StringOfCharEwi 0000000140032948     rtl:rtl370.bpl
 0002:00010950       __imp__ZN6System12UniqueStringERNS_13UnicodeStringE 0000000140032950     rtl:rtl370.bpl
 0002:00010958       __imp__ZN6System12_PackageLoadEPNS_16PackageInfoTableEPNS_10TLibModuleE 0000000140032958     rtl:rtl370.bpl
 0002:00010960       .refptr._ZN6System13ExceptObjProcE 0000000140032960     rtl:rtl370.bpl
 0002:00010960       _ZN6System13ExceptObjProcE 0000000140032960     rtl:rtl370.bpl
 0002:00010960       __imp__ZN6System13ExceptObjProcE 0000000140032960     rtl:rtl370.bpl
 0002:00010968       __imp__ZN6System13FindHInstanceEPv 0000000140032968     rtl:rtl370.bpl
 0002:00010970       .refptr._ZN6System13IsMultiThreadE 0000000140032970     rtl:rtl370.bpl
 0002:00010970       _ZN6System13IsMultiThreadE 0000000140032970     rtl:rtl370.bpl
 0002:00010970       __imp__ZN6System13IsMultiThreadE 0000000140032970     rtl:rtl370.bpl
 0002:00010978       __imp__ZN6System13LoadResStringEPNS_13TResStringRecE 0000000140032978     rtl:rtl370.bpl
 0002:00010980       __imp__ZN6System13_LStrFromUStrERNS_11AnsiStringTILt0EEENS_13UnicodeStringEt 0000000140032980     rtl:rtl370.bpl
 0002:00010988       __imp__ZN6System13_LStrFromWStrERNS_11AnsiStringTILt0EEENS_10WideStringEt 0000000140032988     rtl:rtl370.bpl
 0002:00010990       __imp__ZN6System13_UStrFromLStrERNS_13UnicodeStringENS_11AnsiStringTILt0EEE 0000000140032990     rtl:rtl370.bpl
 0002:00010998       __imp__ZN6System13_UStrFromWStrERNS_13UnicodeStringENS_10WideStringE 0000000140032998     rtl:rtl370.bpl
 0002:000109a0       __imp__ZN6System13_WStrFromLStrERNS_10WideStringENS_11AnsiStringTILt0EEE 00000001400329a0     rtl:rtl370.bpl
 0002:000109a8       __imp__ZN6System13_WStrFromUStrERNS_10WideStringENS_13UnicodeStringE 00000001400329a8     rtl:rtl370.bpl
 0002:000109b0       __imp__ZN6System14RegisterModuleEPNS_10TLibModuleE 00000001400329b0     rtl:rtl370.bpl
 0002:000109b8       __imp__ZN6System14_LStrFromPCharERNS_11AnsiStringTILt0EEEPct 00000001400329b8     rtl:rtl370.bpl
 0002:000109c0       __imp__ZN6System14_LStrFromWCharERNS_11AnsiStringTILt0EEEwt 00000001400329c0     rtl:rtl370.bpl
 0002:000109c8       __imp__ZN6System14_LStrSetLengthERNS_11AnsiStringTILt0EEEit 00000001400329c8     rtl:rtl370.bpl
 0002:000109d0       __imp__ZN6System14_PackageUnloadEPNS_16PackageInfoTableEPNS_10TLibModuleE 00000001400329d0     rtl:rtl370.bpl
 0002:000109d8       __imp__ZN6System14_UStrFromPCharERNS_13UnicodeStringEPc 00000001400329d8     rtl:rtl370.bpl
 0002:000109e0       __imp__ZN6System14_UStrSetLengthERNS_13UnicodeStringEi 00000001400329e0     rtl:rtl370.bpl
 0002:000109e8       __imp__ZN6System14_WStrFromPCharERNS_10WideStringEPc 00000001400329e8     rtl:rtl370.bpl
 0002:000109f0       __imp__ZN6System14_WStrSetLengthERNS_10WideStringEi 00000001400329f0     rtl:rtl370.bpl
 0002:000109f8       __imp__ZN6System14initializationEv 00000001400329f8     rtl:rtl370.bpl
 0002:00010a00       __imp__ZN6System15_DynArrayAddRefEPv 0000000140032a00     rtl:rtl370.bpl
 0002:00010a08       __imp__ZN6System15_UStrFromPWCharERNS_13UnicodeStringEPw 0000000140032a08     rtl:rtl370.bpl
 0002:00010a10       __imp__ZN6System16GetMemoryManagerERNS_16TMemoryManagerExE 0000000140032a10     rtl:rtl370.bpl
 0002:00010a18       __imp__ZN6System16SetMemoryManagerERKNS_16TMemoryManagerExE 0000000140032a18     rtl:rtl370.bpl
 0002:00010a20       __imp__ZN6System16UnregisterModuleEPNS_10TLibModuleE 0000000140032a20     rtl:rtl370.bpl
 0002:00010a28       __imp__ZN6System16_CheckAutoResultEl 0000000140032a28     rtl:rtl370.bpl
 0002:00010a30       __imp__ZN6System16_DynArrayReleaseEPv 0000000140032a30     rtl:rtl370.bpl
 0002:00010a38       __imp__ZN6System17TInterfacedObject11NewInstanceEv 0000000140032a38     rtl:rtl370.bpl
 0002:00010a40       __imp__ZN6System17TInterfacedObject14QueryInterfaceERK5_GUIDPv 0000000140032a40     rtl:rtl370.bpl
 0002:00010a48       __imp__ZN6System17TInterfacedObject17AfterConstructionEv 0000000140032a48     rtl:rtl370.bpl
 0002:00010a50       __imp__ZN6System17TInterfacedObject17BeforeDestructionEv 0000000140032a50     rtl:rtl370.bpl
 0002:00010a58       __imp__ZN6System17TInterfacedObject7_AddRefEv 0000000140032a58     rtl:rtl370.bpl
 0002:00010a60       __imp__ZN6System17TInterfacedObject8_ReleaseEv 0000000140032a60     rtl:rtl370.bpl
 0002:00010a68       __imp__ZN6System17_DestroyExceptionEP18TExceptionPointersy 0000000140032a68     rtl:rtl370.bpl
 0002:00010a70       __imp__ZN6System18IsMemoryManagerSetEv 0000000140032a70     rtl:rtl370.bpl
 0002:00010a78       __imp__ZN6System18_LStrFromPWCharLenERNS_11AnsiStringTILt0EEEPwit 0000000140032a78     rtl:rtl370.bpl
 0002:00010a80       __imp__ZN6System19UTF8ToUnicodeStringEPKc 0000000140032a80     rtl:rtl370.bpl
 0002:00010a88       .refptr._ZN6System21DefaultSystemCodePageE 0000000140032a88     rtl:rtl370.bpl
 0002:00010a88       _ZN6System21DefaultSystemCodePageE 0000000140032a88     rtl:rtl370.bpl
 0002:00010a88       __imp__ZN6System21DefaultSystemCodePageE 0000000140032a88     rtl:rtl370.bpl
 0002:00010a90       __imp__ZN6System23_DelphiExceptionHandlerEPNS_16TExceptionRecordEyPvS2_ 0000000140032a90     rtl:rtl370.bpl
 0002:00010a98       __imp__ZN6System3Net19Httpclientcomponent14TNetHTTPClient14SetContentTypeENS_13UnicodeStringE 0000000140032a98     rtl:rtl370.bpl
 0002:00010aa0       __imp__ZN6System3Net19Httpclientcomponent14TNetHTTPClient18SetResponseTimeoutEi 0000000140032aa0     rtl:rtl370.bpl
 0002:00010aa8       __imp__ZN6System3Net19Httpclientcomponent14TNetHTTPClient20SetConnectionTimeoutEi 0000000140032aa8     rtl:rtl370.bpl
 0002:00010ab0       __imp__ZN6System3Net19Httpclientcomponent14TNetHTTPClient20SetCustomHeaderValueENS_13UnicodeStringES3_ 0000000140032ab0     rtl:rtl370.bpl
 0002:00010ab8       __imp__ZN6System3Net19Httpclientcomponent14TNetHTTPClient4PostENS_13UnicodeStringEPNS_7Classes7TStreamES6_NS_12DynamicArrayINS0_9Urlclient14TNameValuePairEEE 0000000140032ab8     rtl:rtl370.bpl
 0002:00010ac0       __imp__ZN6System3Net19Httpclientcomponent14TNetHTTPClientC3EPNS_7Classes10TComponentE 0000000140032ac0     rtl:rtl370.bpl
 0002:00010ac8       __imp__ZN6System3PosENS_11AnsiStringTILt65535EEES1_i 0000000140032ac8     rtl:rtl370.bpl
 0002:00010ad0       _ZN6System3Win6Comobj11CoInitFlagsE 0000000140032ad0     rtl:rtl370.bpl
 0002:00010ad0       __imp__ZN6System3Win6Comobj11CoInitFlagsE 0000000140032ad0     rtl:rtl370.bpl
 0002:00010ad8       __imp__ZN6System4FracEd    0000000140032ad8     rtl:rtl370.bpl
 0002:00010ae0       __imp__ZN6System4Math7Vectors7Point3DEfff 0000000140032ae0     rtl:rtl370.bpl
 0002:00010ae8       __imp__ZN6System4Math8DegToRadEf 0000000140032ae8     rtl:rtl370.bpl
 0002:00010af0       __imp__ZN6System5TGUID6CreateEPKvb 0000000140032af0     rtl:rtl370.bpl
 0002:00010af8       __imp__ZN6System5Types14initializationEv 0000000140032af8     rtl:rtl370.bpl
 0002:00010b00       __imp__ZN6System6_TruncEe  0000000140032b00     rtl:rtl370.bpl
 0002:00010b08       __imp__ZN6System7Classes10TComponent10CanObserveEi 0000000140032b08     rtl:rtl370.bpl
 0002:00010b10       __imp__ZN6System7Classes10TComponent10WriteStateEPNS0_7TWriterE 0000000140032b10     rtl:rtl370.bpl
 0002:00010b18       __imp__ZN6System7Classes10TComponent12GetObserversEv 0000000140032b18     rtl:rtl370.bpl
 0002:00010b20       __imp__ZN6System7Classes10TComponent12UpdateActionEPNS0_12TBasicActionE 0000000140032b20     rtl:rtl370.bpl
 0002:00010b28       __imp__ZN6System7Classes10TComponent13AsyncScheduleEPNS0_16TBaseAsyncResultE 0000000140032b28     rtl:rtl370.bpl
 0002:00010b30       __imp__ZN6System7Classes10TComponent13ObserverAddedEiNS_15DelphiInterfaceINS0_9IObserverEEE 0000000140032b30     rtl:rtl370.bpl
 0002:00010b38       __imp__ZN6System7Classes10TComponent14UpdateRegistryEbNS_13UnicodeStringES2_ 0000000140032b38     rtl:rtl370.bpl
 0002:00010b40       __imp__ZN6System7Classes10TComponent17SafeCallExceptionEPNS_7TObjectEPv 0000000140032b40     rtl:rtl370.bpl
 0002:00010b48       __imp__ZN6System7Classes10TComponent7SetNameENS_13UnicodeStringE 0000000140032b48     rtl:rtl370.bpl
 0002:00010b50       __imp__ZN6System7Classes10TComponent9ReadStateEPNS0_7TReaderE 0000000140032b50     rtl:rtl370.bpl
 0002:00010b58       __imp__ZN6System7Classes11TPersistent6AssignEPS1_ 0000000140032b58     rtl:rtl370.bpl
 0002:00010b60       __imp__ZN6System7Classes11TPersistent8AssignToEPS1_ 0000000140032b60     rtl:rtl370.bpl
 0002:00010b68       __imp__ZN6System7Classes11TStringListC3Ev 0000000140032b68     rtl:rtl370.bpl
 0002:00010b70       __imp__ZN6System7Classes13TStringStream13GetDataStringEv 0000000140032b70     rtl:rtl370.bpl
 0002:00010b78       __imp__ZN6System7Classes13TStringStreamC3ENS_13UnicodeStringE 0000000140032b78     rtl:rtl370.bpl
 0002:00010b80       __imp__ZN6System7Classes7TThread5QueueEPS1_NS_15DelphiInterfaceINS0_16TThreadProcedureEEE 0000000140032b80     rtl:rtl370.bpl
 0002:00010b88       __imp__ZN6System7Classes8TStrings16SetDelimitedTextENS_13UnicodeStringE 0000000140032b88     rtl:rtl370.bpl
 0002:00010b90       __imp__ZN6System7Classes8TStrings18SetStrictDelimiterEb 0000000140032b90     rtl:rtl370.bpl
 0002:00010b98       _ZN6System7CmdLineE        0000000140032b98     rtl:rtl370.bpl
 0002:00010b98       __imp__ZN6System7CmdLineE  0000000140032b98     rtl:rtl370.bpl
 0002:00010ba0       __imp__ZN6System7TObject11GetHashCodeEv 0000000140032ba0     rtl:rtl370.bpl
 0002:00010ba8       __imp__ZN6System7TObject11NewInstanceEv 0000000140032ba8     rtl:rtl370.bpl
 0002:00010bb0       __imp__ZN6System7TObject12FreeInstanceEv 0000000140032bb0     rtl:rtl370.bpl
 0002:00010bb8       __imp__ZN6System7TObject12InheritsFromEPNS_10TMetaClassE 0000000140032bb8     rtl:rtl370.bpl
 0002:00010bc0       __imp__ZN6System7TObject14DefaultHandlerEPv 0000000140032bc0     rtl:rtl370.bpl
 0002:00010bc8       __imp__ZN6System7TObject17SafeCallExceptionEPS0_Pv 0000000140032bc8     rtl:rtl370.bpl
 0002:00010bd0       __imp__ZN6System7TObject6EqualsEPS0_ 0000000140032bd0     rtl:rtl370.bpl
 0002:00010bd8       __imp__ZN6System7TObject8DispatchEPv 0000000140032bd8     rtl:rtl370.bpl
 0002:00010be0       __imp__ZN6System7TObject8ToStringEv 0000000140032be0     rtl:rtl370.bpl
 0002:00010be8       __imp__ZN6System7TObject9ClassInfoEv 0000000140032be8     rtl:rtl370.bpl
 0002:00010bf0       __imp__ZN6System7TObject9DisposeOfEv 0000000140032bf0     rtl:rtl370.bpl
 0002:00010bf8       __imp__ZN6System7TObjectC3Ev 0000000140032bf8     rtl:rtl370.bpl
 0002:00010c00       __imp__ZN6System7TObjectD0Ev 0000000140032c00     rtl:rtl370.bpl
 0002:00010c08       __imp__ZN6System7Typinfo11GetTypeDataEPNS0_9TTypeInfoE 0000000140032c08     rtl:rtl370.bpl
 0002:00010c10       __imp__ZN6System7Typinfo11GetTypeNameEPNS0_9TTypeInfoE 0000000140032c10     rtl:rtl370.bpl
 0002:00010c18       __imp__ZN6System7Typinfo22TTypeInfoFieldAccessor8ToStringEv 0000000140032c18     rtl:rtl370.bpl
 0002:00010c20       __imp__ZN6System7Typinfo9TTypeData11UnitNameFldEv 0000000140032c20     rtl:rtl370.bpl
 0002:00010c28       _ZN6System8ExitProcE       0000000140032c28     rtl:rtl370.bpl
 0002:00010c28       __imp__ZN6System8ExitProcE 0000000140032c28     rtl:rtl370.bpl
 0002:00010c30       __imp__ZN6System8Syncobjs12TInterlocked8ExchangeERPvS2_ 0000000140032c30     rtl:rtl370.bpl
 0002:00010c38       __imp__ZN6System8Syncobjs12TInterlocked9IncrementERi 0000000140032c38     rtl:rtl370.bpl
 0002:00010c40       .refptr._ZN6System8Sysconst12_SRangeErrorE 0000000140032c40     rtl:rtl370.bpl
 0002:00010c40       _ZN6System8Sysconst12_SRangeErrorE 0000000140032c40     rtl:rtl370.bpl
 0002:00010c40       __imp__ZN6System8Sysconst12_SRangeErrorE 0000000140032c40     rtl:rtl370.bpl
 0002:00010c48       __imp__ZN6System8Sysutils10CurrToStrFENS_8CurrencyENS0_12TFloatFormatEi 0000000140032c48     rtl:rtl370.bpl
 0002:00010c50       __imp__ZN6System8Sysutils10FloatToStrEe 0000000140032c50     rtl:rtl370.bpl
 0002:00010c58       __imp__ZN6System8Sysutils10FloatToStrEeRKNS0_15TFormatSettingsE 0000000140032c58     rtl:rtl370.bpl
 0002:00010c60       __imp__ZN6System8Sysutils10FmtLoadStrEyPKNS_7TVarRecEx 0000000140032c60     rtl:rtl370.bpl
 0002:00010c68       __imp__ZN6System8Sysutils10StrToFloatENS_13UnicodeStringE 0000000140032c68     rtl:rtl370.bpl
 0002:00010c70       __imp__ZN6System8Sysutils11CompareTextENS_13UnicodeStringES1_ 0000000140032c70     rtl:rtl370.bpl
 0002:00010c78       __imp__ZN6System8Sysutils11FloatToStrFEeNS0_12TFloatFormatEii 0000000140032c78     rtl:rtl370.bpl
 0002:00010c80       __imp__ZN6System8Sysutils11FormatFloatENS_13UnicodeStringEe 0000000140032c80     rtl:rtl370.bpl
 0002:00010c88       __imp__ZN6System8Sysutils11IsDelimiterENS_13UnicodeStringES1_i 0000000140032c88     rtl:rtl370.bpl
 0002:00010c90       __imp__ZN6System8Sysutils11StrToIntDefENS_13UnicodeStringEi 0000000140032c90     rtl:rtl370.bpl
 0002:00010c98       __imp__ZN6System8Sysutils11TGUIDHelper11ToByteArrayENS_5Types7TEndianE 0000000140032c98     rtl:rtl370.bpl
 0002:00010ca0       __imp__ZN6System8Sysutils11TGUIDHelper6CreateENS_12DynamicArrayIhEEjNS_5Types7TEndianE 0000000140032ca0     rtl:rtl370.bpl
 0002:00010ca8       __imp__ZN6System8Sysutils11TGUIDHelper6CreateENS_13UnicodeStringE 0000000140032ca8     rtl:rtl370.bpl
 0002:00010cb0       __imp__ZN6System8Sysutils11TGUIDHelper6CreateEissNS_12DynamicArrayIhEE 0000000140032cb0     rtl:rtl370.bpl
 0002:00010cb8       __imp__ZN6System8Sysutils11TGUIDHelper6CreateEisshhhhhhhh 0000000140032cb8     rtl:rtl370.bpl
 0002:00010cc0       __imp__ZN6System8Sysutils11TGUIDHelper6CreateEjtthhhhhhhh 0000000140032cc0     rtl:rtl370.bpl
 0002:00010cc8       __imp__ZN6System8Sysutils11TGUIDHelper7NewGuidEv 0000000140032cc8     rtl:rtl370.bpl
 0002:00010cd0       __imp__ZN6System8Sysutils11TGUIDHelper8ToStringEv 0000000140032cd0     rtl:rtl370.bpl
 0002:00010cd8       __imp__ZN6System8Sysutils11TGUIDHelper8ToStringEw 0000000140032cd8     rtl:rtl370.bpl
 0002:00010ce0       __imp__ZN6System8Sysutils11TryStrToIntENS_13UnicodeStringERi 0000000140032ce0     rtl:rtl370.bpl
 0002:00010ce8       __imp__ZN6System8Sysutils12AnsiLastCharENS_13UnicodeStringE 0000000140032ce8     rtl:rtl370.bpl
 0002:00010cf0       __imp__ZN6System8Sysutils12TInt64Helper5ParseENS_13UnicodeStringE 0000000140032cf0     rtl:rtl370.bpl
 0002:00010cf8       __imp__ZN6System8Sysutils12TryStrToBoolENS_13UnicodeStringERb 0000000140032cf8     rtl:rtl370.bpl
 0002:00010d00       __imp__ZN6System8Sysutils12TryStrToCurrENS_13UnicodeStringERNS_8CurrencyERKNS0_15TFormatSettingsE 0000000140032d00     rtl:rtl370.bpl
 0002:00010d08       __imp__ZN6System8Sysutils12TryStrToUIntENS_13UnicodeStringERj 0000000140032d08     rtl:rtl370.bpl
 0002:00010d10       __imp__ZN6System8Sysutils13AnsiLowerCaseENS_13UnicodeStringE 0000000140032d10     rtl:rtl370.bpl
 0002:00010d18       __imp__ZN6System8Sysutils13AnsiUpperCaseENS_13UnicodeStringE 0000000140032d18     rtl:rtl370.bpl
 0002:00010d20       __imp__ZN6System8Sysutils13DateTimeToStrENS_9TDateTimeERKNS0_15TFormatSettingsE 0000000140032d20     rtl:rtl370.bpl
 0002:00010d28       __imp__ZN6System8Sysutils13LastDelimiterENS_13UnicodeStringES1_ 0000000140032d28     rtl:rtl370.bpl
 0002:00010d30       __imp__ZN6System8Sysutils13StrToFloatDefENS_13UnicodeStringEe 0000000140032d30     rtl:rtl370.bpl
 0002:00010d38       __imp__ZN6System8Sysutils13TDoubleHelper5ParseENS_13UnicodeStringE 0000000140032d38     rtl:rtl370.bpl
 0002:00010d40       __imp__ZN6System8Sysutils13TSingleHelper5ParseENS_13UnicodeStringE 0000000140032d40     rtl:rtl370.bpl
 0002:00010d48       __imp__ZN6System8Sysutils13TStringHelper10IndexOfAnyEPKwx 0000000140032d48     rtl:rtl370.bpl
 0002:00010d50       __imp__ZN6System8Sysutils13TStringHelper10IndexOfAnyEPKwxi 0000000140032d50     rtl:rtl370.bpl
 0002:00010d58       __imp__ZN6System8Sysutils13TStringHelper10IndexOfAnyEPKwxii 0000000140032d58     rtl:rtl370.bpl
 0002:00010d60       __imp__ZN6System8Sysutils13TStringHelper10StartsTextENS_13UnicodeStringES2_ 0000000140032d60     rtl:rtl370.bpl
 0002:00010d68       __imp__ZN6System8Sysutils13TStringHelper10StartsWithENS_13UnicodeStringEb 0000000140032d68     rtl:rtl370.bpl
 0002:00010d70       __imp__ZN6System8Sysutils13TStringHelper11GetHashCodeEv 0000000140032d70     rtl:rtl370.bpl
 0002:00010d78       __imp__ZN6System8Sysutils13TStringHelper11IsDelimiterENS_13UnicodeStringEi 0000000140032d78     rtl:rtl370.bpl
 0002:00010d80       __imp__ZN6System8Sysutils13TStringHelper11LastIndexOfENS_13UnicodeStringE 0000000140032d80     rtl:rtl370.bpl
 0002:00010d88       __imp__ZN6System8Sysutils13TStringHelper11LastIndexOfENS_13UnicodeStringEi 0000000140032d88     rtl:rtl370.bpl
 0002:00010d90       __imp__ZN6System8Sysutils13TStringHelper11LastIndexOfENS_13UnicodeStringEii 0000000140032d90     rtl:rtl370.bpl
 0002:00010d98       __imp__ZN6System8Sysutils13TStringHelper11LastIndexOfEw 0000000140032d98     rtl:rtl370.bpl
 0002:00010da0       __imp__ZN6System8Sysutils13TStringHelper11LastIndexOfEwi 0000000140032da0     rtl:rtl370.bpl
 0002:00010da8       __imp__ZN6System8Sysutils13TStringHelper11LastIndexOfEwii 0000000140032da8     rtl:rtl370.bpl
 0002:00010db0       __imp__ZN6System8Sysutils13TStringHelper11ToCharArrayEii 0000000140032db0     rtl:rtl370.bpl
 0002:00010db8       __imp__ZN6System8Sysutils13TStringHelper11ToCharArrayEv 0000000140032db8     rtl:rtl370.bpl
 0002:00010dc0       __imp__ZN6System8Sysutils13TStringHelper12QuotedStringEv 0000000140032dc0     rtl:rtl370.bpl
 0002:00010dc8       __imp__ZN6System8Sysutils13TStringHelper12QuotedStringEw 0000000140032dc8     rtl:rtl370.bpl
 0002:00010dd0       __imp__ZN6System8Sysutils13TStringHelper13LastDelimiterENS_13UnicodeStringE 0000000140032dd0     rtl:rtl370.bpl
 0002:00010dd8       __imp__ZN6System8Sysutils13TStringHelper13LastDelimiterERKNS_3SetIcLc0ELcn1EEE 0000000140032dd8     rtl:rtl370.bpl
 0002:00010de0       __imp__ZN6System8Sysutils13TStringHelper14CompareOrdinalENS_13UnicodeStringES2_ 0000000140032de0     rtl:rtl370.bpl
 0002:00010de8       __imp__ZN6System8Sysutils13TStringHelper14CompareOrdinalENS_13UnicodeStringEiS2_ii 0000000140032de8     rtl:rtl370.bpl
 0002:00010df0       __imp__ZN6System8Sysutils13TStringHelper14DeQuotedStringEv 0000000140032df0     rtl:rtl370.bpl
 0002:00010df8       __imp__ZN6System8Sysutils13TStringHelper14DeQuotedStringEw 0000000140032df8     rtl:rtl370.bpl
 0002:00010e00       __imp__ZN6System8Sysutils13TStringHelper14LastIndexOfAnyEPKwx 0000000140032e00     rtl:rtl370.bpl
 0002:00010e08       __imp__ZN6System8Sysutils13TStringHelper14LastIndexOfAnyEPKwxi 0000000140032e08     rtl:rtl370.bpl
 0002:00010e10       __imp__ZN6System8Sysutils13TStringHelper14LastIndexOfAnyEPKwxii 0000000140032e10     rtl:rtl370.bpl
 0002:00010e18       __imp__ZN6System8Sysutils13TStringHelper15InternalCompareENS_13UnicodeStringEiS2_iiiNS_3SetINS0_14TCompareOptionELS4_0ELS4_9EEEj 0000000140032e18     rtl:rtl370.bpl
 0002:00010e20       __imp__ZN6System8Sysutils13TStringHelper15InternalCompareENS_13UnicodeStringEiS2_iiibj 0000000140032e20     rtl:rtl370.bpl
 0002:00010e28       __imp__ZN6System8Sysutils13TStringHelper16ToLowerInvariantEv 0000000140032e28     rtl:rtl370.bpl
 0002:00010e30       __imp__ZN6System8Sysutils13TStringHelper16ToUpperInvariantEv 0000000140032e30     rtl:rtl370.bpl
 0002:00010e38       __imp__ZN6System8Sysutils13TStringHelper18IndexOfAnyUnquotedEPKwxww 0000000140032e38     rtl:rtl370.bpl
 0002:00010e40       __imp__ZN6System8Sysutils13TStringHelper18IndexOfAnyUnquotedEPKwxwwi 0000000140032e40     rtl:rtl370.bpl
 0002:00010e48       __imp__ZN6System8Sysutils13TStringHelper18IndexOfAnyUnquotedEPKwxwwii 0000000140032e48     rtl:rtl370.bpl
 0002:00010e50       __imp__ZN6System8Sysutils13TStringHelper18IsNullOrWhiteSpaceENS_13UnicodeStringE 0000000140032e50     rtl:rtl370.bpl
 0002:00010e58       __imp__ZN6System8Sysutils13TStringHelper4JoinENS_13UnicodeStringENS_15DelphiInterfaceINS_14IEnumerator__1IS2_EEEE 0000000140032e58     rtl:rtl370.bpl
 0002:00010e60       __imp__ZN6System8Sysutils13TStringHelper4JoinENS_13UnicodeStringEPKNS_7TVarRecEx 0000000140032e60     rtl:rtl370.bpl
 0002:00010e68       __imp__ZN6System8Sysutils13TStringHelper4JoinENS_13UnicodeStringEPKS2_x 0000000140032e68     rtl:rtl370.bpl
 0002:00010e70       __imp__ZN6System8Sysutils13TStringHelper4JoinENS_13UnicodeStringEPKS2_xii 0000000140032e70     rtl:rtl370.bpl
 0002:00010e78       __imp__ZN6System8Sysutils13TStringHelper4TrimEPKwx 0000000140032e78     rtl:rtl370.bpl
 0002:00010e80       __imp__ZN6System8Sysutils13TStringHelper4TrimEv 0000000140032e80     rtl:rtl370.bpl
 0002:00010e88       __imp__ZN6System8Sysutils13TStringHelper5SplitEPKNS_13UnicodeStringEx 0000000140032e88     rtl:rtl370.bpl
 0002:00010e90       __imp__ZN6System8Sysutils13TStringHelper5SplitEPKNS_13UnicodeStringExNS0_19TStringSplitOptionsE 0000000140032e90     rtl:rtl370.bpl
 0002:00010e98       __imp__ZN6System8Sysutils13TStringHelper5SplitEPKNS_13UnicodeStringExi 0000000140032e98     rtl:rtl370.bpl
 0002:00010ea0       __imp__ZN6System8Sysutils13TStringHelper5SplitEPKNS_13UnicodeStringExiNS0_19TStringSplitOptionsE 0000000140032ea0     rtl:rtl370.bpl
 0002:00010ea8       __imp__ZN6System8Sysutils13TStringHelper5SplitEPKNS_13UnicodeStringExw 0000000140032ea8     rtl:rtl370.bpl
 0002:00010eb0       __imp__ZN6System8Sysutils13TStringHelper5SplitEPKNS_13UnicodeStringExww 0000000140032eb0     rtl:rtl370.bpl
 0002:00010eb8       __imp__ZN6System8Sysutils13TStringHelper5SplitEPKNS_13UnicodeStringExwwNS0_19TStringSplitOptionsE 0000000140032eb8     rtl:rtl370.bpl
 0002:00010ec0       __imp__ZN6System8Sysutils13TStringHelper5SplitEPKNS_13UnicodeStringExwwi 0000000140032ec0     rtl:rtl370.bpl
 0002:00010ec8       __imp__ZN6System8Sysutils13TStringHelper5SplitEPKNS_13UnicodeStringExwwiNS0_19TStringSplitOptionsE 0000000140032ec8     rtl:rtl370.bpl
 0002:00010ed0       __imp__ZN6System8Sysutils13TStringHelper5SplitEPKwx 0000000140032ed0     rtl:rtl370.bpl
 0002:00010ed8       __imp__ZN6System8Sysutils13TStringHelper5SplitEPKwxNS0_19TStringSplitOptionsE 0000000140032ed8     rtl:rtl370.bpl
 0002:00010ee0       __imp__ZN6System8Sysutils13TStringHelper5SplitEPKwxi 0000000140032ee0     rtl:rtl370.bpl
 0002:00010ee8       __imp__ZN6System8Sysutils13TStringHelper5SplitEPKwxiNS0_19TStringSplitOptionsE 0000000140032ee8     rtl:rtl370.bpl
 0002:00010ef0       __imp__ZN6System8Sysutils13TStringHelper5SplitEPKwxw 0000000140032ef0     rtl:rtl370.bpl
 0002:00010ef8       __imp__ZN6System8Sysutils13TStringHelper5SplitEPKwxww 0000000140032ef8     rtl:rtl370.bpl
 0002:00010f00       __imp__ZN6System8Sysutils13TStringHelper5SplitEPKwxwwNS0_19TStringSplitOptionsE 0000000140032f00     rtl:rtl370.bpl
 0002:00010f08       __imp__ZN6System8Sysutils13TStringHelper5SplitEPKwxwwi 0000000140032f08     rtl:rtl370.bpl
 0002:00010f10       __imp__ZN6System8Sysutils13TStringHelper5SplitEPKwxwwiNS0_19TStringSplitOptionsE 0000000140032f10     rtl:rtl370.bpl
 0002:00010f18       __imp__ZN6System8Sysutils13TStringHelper6CopyToEiPwxii 0000000140032f18     rtl:rtl370.bpl
 0002:00010f20       __imp__ZN6System8Sysutils13TStringHelper6CreateEPKwx 0000000140032f20     rtl:rtl370.bpl
 0002:00010f28       __imp__ZN6System8Sysutils13TStringHelper6CreateEPKwxii 0000000140032f28     rtl:rtl370.bpl
 0002:00010f30       __imp__ZN6System8Sysutils13TStringHelper6EqualsENS_13UnicodeStringE 0000000140032f30     rtl:rtl370.bpl
 0002:00010f38       __imp__ZN6System8Sysutils13TStringHelper6EqualsENS_13UnicodeStringES2_ 0000000140032f38     rtl:rtl370.bpl
 0002:00010f40       __imp__ZN6System8Sysutils13TStringHelper6FormatENS_13UnicodeStringEPKNS_7TVarRecEx 0000000140032f40     rtl:rtl370.bpl
 0002:00010f48       __imp__ZN6System8Sysutils13TStringHelper6InsertEiNS_13UnicodeStringE 0000000140032f48     rtl:rtl370.bpl
 0002:00010f50       __imp__ZN6System8Sysutils13TStringHelper7CompareENS_13UnicodeStringEiS2_iibj 0000000140032f50     rtl:rtl370.bpl
 0002:00010f58       __imp__ZN6System8Sysutils13TStringHelper7IndexOfENS_13UnicodeStringEi 0000000140032f58     rtl:rtl370.bpl
 0002:00010f60       __imp__ZN6System8Sysutils13TStringHelper7IndexOfENS_13UnicodeStringEii 0000000140032f60     rtl:rtl370.bpl
 0002:00010f68       __imp__ZN6System8Sysutils13TStringHelper7IndexOfEw 0000000140032f68     rtl:rtl370.bpl
 0002:00010f70       __imp__ZN6System8Sysutils13TStringHelper7IndexOfEwi 0000000140032f70     rtl:rtl370.bpl
 0002:00010f78       __imp__ZN6System8Sysutils13TStringHelper7IndexOfEwii 0000000140032f78     rtl:rtl370.bpl
 0002:00010f80       __imp__ZN6System8Sysutils13TStringHelper7ReplaceENS_13UnicodeStringES2_ 0000000140032f80     rtl:rtl370.bpl
 0002:00010f88       __imp__ZN6System8Sysutils13TStringHelper7ReplaceENS_13UnicodeStringES2_NS_3SetINS0_12TReplaceFlagELS4_0ELS4_1EEE 0000000140032f88     rtl:rtl370.bpl
 0002:00010f90       __imp__ZN6System8Sysutils13TStringHelper7ReplaceEww 0000000140032f90     rtl:rtl370.bpl
 0002:00010f98       __imp__ZN6System8Sysutils13TStringHelper7ReplaceEwwNS_3SetINS0_12TReplaceFlagELS3_0ELS3_1EEE 0000000140032f98     rtl:rtl370.bpl
 0002:00010fa0       __imp__ZN6System8Sysutils13TStringHelper7ToLowerEj 0000000140032fa0     rtl:rtl370.bpl
 0002:00010fa8       __imp__ZN6System8Sysutils13TStringHelper7ToUpperEj 0000000140032fa8     rtl:rtl370.bpl
 0002:00010fb0       __imp__ZN6System8Sysutils13TStringHelper7TrimEndEPKwx 0000000140032fb0     rtl:rtl370.bpl
 0002:00010fb8       __imp__ZN6System8Sysutils13TStringHelper8ContainsENS_13UnicodeStringEb 0000000140032fb8     rtl:rtl370.bpl
 0002:00010fc0       __imp__ZN6System8Sysutils13TStringHelper8EndsTextENS_13UnicodeStringES2_ 0000000140032fc0     rtl:rtl370.bpl
 0002:00010fc8       __imp__ZN6System8Sysutils13TStringHelper8EndsWithENS_13UnicodeStringEb 0000000140032fc8     rtl:rtl370.bpl
 0002:00010fd0       __imp__ZN6System8Sysutils13TStringHelper8TrimLeftEPKwx 0000000140032fd0     rtl:rtl370.bpl
 0002:00010fd8       __imp__ZN6System8Sysutils13TStringHelper8TrimLeftEv 0000000140032fd8     rtl:rtl370.bpl
 0002:00010fe0       __imp__ZN6System8Sysutils13TStringHelper9CompareToENS_13UnicodeStringE 0000000140032fe0     rtl:rtl370.bpl
 0002:00010fe8       __imp__ZN6System8Sysutils13TStringHelper9CountCharEw 0000000140032fe8     rtl:rtl370.bpl
 0002:00010ff0       __imp__ZN6System8Sysutils13TStringHelper9TrimRightEPKwx 0000000140032ff0     rtl:rtl370.bpl
 0002:00010ff8       __imp__ZN6System8Sysutils13TStringHelper9TrimRightEv 0000000140032ff8     rtl:rtl370.bpl
 0002:00011000       __imp__ZN6System8Sysutils13TStringHelper9TrimStartEPKwx 0000000140033000     rtl:rtl370.bpl
 0002:00011008       __imp__ZN6System8Sysutils13TryStrToFloatENS_13UnicodeStringERe 0000000140033008     rtl:rtl370.bpl
 0002:00011010       __imp__ZN6System8Sysutils13TryStrToFloatENS_13UnicodeStringEReRKNS0_15TFormatSettingsE 0000000140033010     rtl:rtl370.bpl
 0002:00011018       __imp__ZN6System8Sysutils13TryStrToInt64ENS_13UnicodeStringERx 0000000140033018     rtl:rtl370.bpl
 0002:00011020       __imp__ZN6System8Sysutils14FormatDateTimeENS_13UnicodeStringENS_9TDateTimeERKNS0_15TFormatSettingsE 0000000140033020     rtl:rtl370.bpl
 0002:00011028       _ZN6System8Sysutils14FormatSettingsE 0000000140033028     rtl:rtl370.bpl
 0002:00011028       __imp__ZN6System8Sysutils14FormatSettingsE 0000000140033028     rtl:rtl370.bpl
 0002:00011030       __imp__ZN6System8Sysutils14TIntegerHelper5ParseENS_13UnicodeStringE 0000000140033030     rtl:rtl370.bpl
 0002:00011038       __imp__ZN6System8Sysutils14TryStrToUInt64ENS_13UnicodeStringERy 0000000140033038     rtl:rtl370.bpl
 0002:00011040       __imp__ZN6System8Sysutils14initializationEv 0000000140033040     rtl:rtl370.bpl
 0002:00011048       __imp__ZN6System8Sysutils15IsPathDelimiterENS_13UnicodeStringEi 0000000140033048     rtl:rtl370.bpl
 0002:00011050       __imp__ZN6System8Sysutils15TCurrencyHelper4FracEv 0000000140033050     rtl:rtl370.bpl
 0002:00011058       __imp__ZN6System8Sysutils15TCurrencyHelper5ParseENS_13UnicodeStringERKNS0_15TFormatSettingsE 0000000140033058     rtl:rtl370.bpl
 0002:00011060       __imp__ZN6System8Sysutils15TCurrencyHelper5TruncEv 0000000140033060     rtl:rtl370.bpl
 0002:00011068       __imp__ZN6System8Sysutils15TExtendedHelper5ParseENS_13UnicodeStringE 0000000140033068     rtl:rtl370.bpl
 0002:00011070       __imp__ZN6System8Sysutils16DateTimeToStringERNS_13UnicodeStringES1_NS_9TDateTimeERKNS0_15TFormatSettingsE 0000000140033070     rtl:rtl370.bpl
 0002:00011078       __imp__ZN6System8Sysutils3NowEv 0000000140033078     rtl:rtl370.bpl
 0002:00011080       __imp__ZN6System8Sysutils4TrimENS_13UnicodeStringE 0000000140033080     rtl:rtl370.bpl
 0002:00011088       __imp__ZN6System8Sysutils6FormatENS_13UnicodeStringEPKNS_7TVarRecEx 0000000140033088     rtl:rtl370.bpl
 0002:00011090       __imp__ZN6System8Sysutils7BytesOfENS_11AnsiStringTILt65535EEE 0000000140033090     rtl:rtl370.bpl
 0002:00011098       __imp__ZN6System8Sysutils7BytesOfENS_13UnicodeStringE 0000000140033098     rtl:rtl370.bpl
 0002:000110a0       __imp__ZN6System8Sysutils7LoadStrEy 00000001400330a0     rtl:rtl370.bpl
 0002:000110a8       __imp__ZN6System8Sysutils8ByteTypeENS_13UnicodeStringEi 00000001400330a8     rtl:rtl370.bpl
 0002:000110b0       __imp__ZN6System8Sysutils8IncMonthENS_9TDateTimeEi 00000001400330b0     rtl:rtl370.bpl
 0002:000110b8       __imp__ZN6System8Sysutils8IntToHexEii 00000001400330b8     rtl:rtl370.bpl
 0002:000110c0       __imp__ZN6System8Sysutils8IntToHexEji 00000001400330c0     rtl:rtl370.bpl
 0002:000110c8       __imp__ZN6System8Sysutils8IntToHexEyi 00000001400330c8     rtl:rtl370.bpl
 0002:000110d0       __imp__ZN6System8Sysutils8IntToStrEi 00000001400330d0     rtl:rtl370.bpl
 0002:000110d8       __imp__ZN6System8Sysutils8IntToStrEx 00000001400330d8     rtl:rtl370.bpl
 0002:000110e0       __imp__ZN6System8Sysutils8StrToIntENS_13UnicodeStringE 00000001400330e0     rtl:rtl370.bpl
 0002:000110e8       __imp__ZN6System8Sysutils8TrimLeftENS_13UnicodeStringE 00000001400330e8     rtl:rtl370.bpl
 0002:000110f0       __imp__ZN6System8Sysutils9BoolToStrEbb 00000001400330f0     rtl:rtl370.bpl
 0002:000110f8       __imp__ZN6System8Sysutils9CurrToStrENS_8CurrencyE 00000001400330f8     rtl:rtl370.bpl
 0002:00011100       __imp__ZN6System8Sysutils9CurrToStrENS_8CurrencyERKNS0_15TFormatSettingsE 0000000140033100     rtl:rtl370.bpl
 0002:00011108       __imp__ZN6System8Sysutils9ExceptionC3ENS_13UnicodeStringE 0000000140033108     rtl:rtl370.bpl
 0002:00011110       __imp__ZN6System8Sysutils9ExceptionD0Ev 0000000140033110     rtl:rtl370.bpl
 0002:00011118       __imp__ZN6System8Sysutils9LowerCaseENS_13UnicodeStringE 0000000140033118     rtl:rtl370.bpl
 0002:00011120       __imp__ZN6System8Sysutils9StrToBoolENS_13UnicodeStringE 0000000140033120     rtl:rtl370.bpl
 0002:00011128       __imp__ZN6System8Sysutils9StrToCurrENS_13UnicodeStringERKNS0_15TFormatSettingsE 0000000140033128     rtl:rtl370.bpl
 0002:00011130       _ZN6System8Sysutils9SysLocaleE 0000000140033130     rtl:rtl370.bpl
 0002:00011130       __imp__ZN6System8Sysutils9SysLocaleE 0000000140033130     rtl:rtl370.bpl
 0002:00011138       __imp__ZN6System8Sysutils9TrimRightENS_13UnicodeStringE 0000000140033138     rtl:rtl370.bpl
 0002:00011140       __imp__ZN6System8Sysutils9UIntToStrEj 0000000140033140     rtl:rtl370.bpl
 0002:00011148       __imp__ZN6System8Sysutils9UIntToStrEy 0000000140033148     rtl:rtl370.bpl
 0002:00011150       __imp__ZN6System8Sysutils9UpperCaseENS_13UnicodeStringE 0000000140033150     rtl:rtl370.bpl
 0002:00011158       __imp__ZN6System8_LStrAsgERNS_11AnsiStringTILt0EEES1_ 0000000140033158     rtl:rtl370.bpl
 0002:00011160       __imp__ZN6System8_LStrCatERNS_11AnsiStringTILt0EEES1_ 0000000140033160     rtl:rtl370.bpl
 0002:00011168       __imp__ZN6System8_LStrClrEPv 0000000140033168     rtl:rtl370.bpl
 0002:00011170       __imp__ZN6System8_LStrCmpENS_11AnsiStringTILt0EEES1_ 0000000140033170     rtl:rtl370.bpl
 0002:00011178       __imp__ZN6System8_LStrPosEPcS0_i 0000000140033178     rtl:rtl370.bpl
 0002:00011180       __imp__ZN6System8_UStrAsgERNS_13UnicodeStringES0_ 0000000140033180     rtl:rtl370.bpl
 0002:00011188       __imp__ZN6System8_UStrCatERNS_13UnicodeStringES0_ 0000000140033188     rtl:rtl370.bpl
 0002:00011190       __imp__ZN6System8_UStrClrEPv 0000000140033190     rtl:rtl370.bpl
 0002:00011198       __imp__ZN6System8_UStrCmpENS_13UnicodeStringES0_ 0000000140033198     rtl:rtl370.bpl
 0002:000111a0       __imp__ZN6System8_UStrPosEPwS0_i 00000001400331a0     rtl:rtl370.bpl
 0002:000111a8       __imp__ZN6System8_ValLongENS_13UnicodeStringERi 00000001400331a8     rtl:rtl370.bpl
 0002:000111b0       __imp__ZN6System8_WStrAsgERNS_10WideStringES0_ 00000001400331b0     rtl:rtl370.bpl
 0002:000111b8       __imp__ZN6System8_WStrCatERNS_10WideStringES0_ 00000001400331b8     rtl:rtl370.bpl
 0002:000111c0       __imp__ZN6System8_WStrClrEPv 00000001400331c0     rtl:rtl370.bpl
 0002:000111c8       __imp__ZN6System8_WStrCmpENS_10WideStringES0_ 00000001400331c8     rtl:rtl370.bpl
 0002:000111d0       __imp__ZN6System8_WStrPosEPwS0_i 00000001400331d0     rtl:rtl370.bpl
 0002:000111d8       __imp__ZN6System9Dateutils10MinuteSpanENS_9TDateTimeES1_ 00000001400331d8     rtl:rtl370.bpl
 0002:000111e0       __imp__ZN6System9Dateutils10RecodeDateENS_9TDateTimeEttt 00000001400331e0     rtl:rtl370.bpl
 0002:000111e8       __imp__ZN6System9Dateutils10RecodeHourENS_9TDateTimeEt 00000001400331e8     rtl:rtl370.bpl
 0002:000111f0       __imp__ZN6System9Dateutils10RecodeTimeENS_9TDateTimeEtttt 00000001400331f0     rtl:rtl370.bpl
 0002:000111f8       __imp__ZN6System9Dateutils10RecodeYearENS_9TDateTimeEt 00000001400331f8     rtl:rtl370.bpl
 0002:00011200       __imp__ZN6System9Dateutils10SecondSpanENS_9TDateTimeES1_ 0000000140033200     rtl:rtl370.bpl
 0002:00011208       __imp__ZN6System9Dateutils11CompareDateENS_9TDateTimeES1_ 0000000140033208     rtl:rtl370.bpl
 0002:00011210       __imp__ZN6System9Dateutils11CompareTimeENS_9TDateTimeES1_ 0000000140033210     rtl:rtl370.bpl
 0002:00011218       __imp__ZN6System9Dateutils11DateInRangeENS_9TDateTimeES1_S1_b 0000000140033218     rtl:rtl370.bpl
 0002:00011220       __imp__ZN6System9Dateutils11DaysBetweenENS_9TDateTimeES1_ 0000000140033220     rtl:rtl370.bpl
 0002:00011228       __imp__ZN6System9Dateutils11DaysInAYearEt 0000000140033228     rtl:rtl370.bpl
 0002:00011230       __imp__ZN6System9Dateutils11EndOfTheDayENS_9TDateTimeE 0000000140033230     rtl:rtl370.bpl
 0002:00011238       __imp__ZN6System9Dateutils11RecodeMonthENS_9TDateTimeEt 0000000140033238     rtl:rtl370.bpl
 0002:00011240       __imp__ZN6System9Dateutils11TimeInRangeENS_9TDateTimeES1_S1_b 0000000140033240     rtl:rtl370.bpl
 0002:00011248       __imp__ZN6System9Dateutils12DayOfTheWeekENS_9TDateTimeE 0000000140033248     rtl:rtl370.bpl
 0002:00011250       __imp__ZN6System9Dateutils12DayOfTheYearENS_9TDateTimeE 0000000140033250     rtl:rtl370.bpl
 0002:00011258       __imp__ZN6System9Dateutils12EndOfTheWeekENS_9TDateTimeE 0000000140033258     rtl:rtl370.bpl
 0002:00011260       __imp__ZN6System9Dateutils12EndOfTheYearENS_9TDateTimeE 0000000140033260     rtl:rtl370.bpl
 0002:00011268       __imp__ZN6System9Dateutils12HoursBetweenENS_9TDateTimeES1_ 0000000140033268     rtl:rtl370.bpl
 0002:00011270       __imp__ZN6System9Dateutils12IsInLeapYearENS_9TDateTimeE 0000000140033270     rtl:rtl370.bpl
 0002:00011278       __imp__ZN6System9Dateutils12NthDayOfWeekENS_9TDateTimeE 0000000140033278     rtl:rtl370.bpl
 0002:00011280       __imp__ZN6System9Dateutils12RecodeMinuteENS_9TDateTimeEt 0000000140033280     rtl:rtl370.bpl
 0002:00011288       __imp__ZN6System9Dateutils12RecodeSecondENS_9TDateTimeEt 0000000140033288     rtl:rtl370.bpl
 0002:00011290       __imp__ZN6System9Dateutils12SameDateTimeENS_9TDateTimeES1_ 0000000140033290     rtl:rtl370.bpl
 0002:00011298       __imp__ZN6System9Dateutils12WeeksBetweenENS_9TDateTimeES1_ 0000000140033298     rtl:rtl370.bpl
 0002:000112a0       __imp__ZN6System9Dateutils12WeeksInAYearEt 00000001400332a0     rtl:rtl370.bpl
 0002:000112a8       __imp__ZN6System9Dateutils12YearsBetweenENS_9TDateTimeES1_ 00000001400332a8     rtl:rtl370.bpl
 0002:000112b0       __imp__ZN6System9Dateutils13DateToISO8601ENS_9TDateTimeEb 00000001400332b0     rtl:rtl370.bpl
 0002:000112b8       __imp__ZN6System9Dateutils13DecodeDateDayENS_9TDateTimeERtS2_ 00000001400332b8     rtl:rtl370.bpl
 0002:000112c0       __imp__ZN6System9Dateutils13EncodeDateDayEtt 00000001400332c0     rtl:rtl370.bpl
 0002:000112c8       __imp__ZN6System9Dateutils13EndOfTheMonthENS_9TDateTimeE 00000001400332c8     rtl:rtl370.bpl
 0002:000112d0       __imp__ZN6System9Dateutils13HourOfTheWeekENS_9TDateTimeE 00000001400332d0     rtl:rtl370.bpl
 0002:000112d8       __imp__ZN6System9Dateutils13HourOfTheYearENS_9TDateTimeE 00000001400332d8     rtl:rtl370.bpl
 0002:000112e0       __imp__ZN6System9Dateutils13ISO8601ToDateENS_13UnicodeStringEb 00000001400332e0     rtl:rtl370.bpl
 0002:000112e8       __imp__ZN6System9Dateutils13MilliSecondOfENS_9TDateTimeE 00000001400332e8     rtl:rtl370.bpl
 0002:000112f0       __imp__ZN6System9Dateutils13MonthsBetweenENS_9TDateTimeES1_ 00000001400332f0     rtl:rtl370.bpl
 0002:000112f8       __imp__ZN6System9Dateutils13WeekOfTheYearENS_9TDateTimeE 00000001400332f8     rtl:rtl370.bpl
 0002:00011300       __imp__ZN6System9Dateutils14DateTimeToUnixENS_9TDateTimeEb 0000000140033300     rtl:rtl370.bpl
 0002:00011308       __imp__ZN6System9Dateutils14DecodeDateTimeENS_9TDateTimeERtS2_S2_S2_S2_S2_S2_ 0000000140033308     rtl:rtl370.bpl
 0002:00011310       __imp__ZN6System9Dateutils14DecodeDateWeekENS_9TDateTimeERtS2_S2_ 0000000140033310     rtl:rtl370.bpl
 0002:00011318       __imp__ZN6System9Dateutils14EncodeDateTimeEttttttt 0000000140033318     rtl:rtl370.bpl
 0002:00011320       __imp__ZN6System9Dateutils14EncodeDateWeekEttt 0000000140033320     rtl:rtl370.bpl
 0002:00011328       __imp__ZN6System9Dateutils14HourOfTheMonthENS_9TDateTimeE 0000000140033328     rtl:rtl370.bpl
 0002:00011330       __imp__ZN6System9Dateutils14IncMilliSecondENS_9TDateTimeEx 0000000140033330     rtl:rtl370.bpl
 0002:00011338       __imp__ZN6System9Dateutils14MinuteOfTheDayENS_9TDateTimeE 0000000140033338     rtl:rtl370.bpl
 0002:00011340       __imp__ZN6System9Dateutils14MinutesBetweenENS_9TDateTimeES1_ 0000000140033340     rtl:rtl370.bpl
 0002:00011348       __imp__ZN6System9Dateutils14RecodeDateTimeENS_9TDateTimeEttttttt 0000000140033348     rtl:rtl370.bpl
 0002:00011350       __imp__ZN6System9Dateutils14SecondOfTheDayENS_9TDateTimeE 0000000140033350     rtl:rtl370.bpl
 0002:00011358       __imp__ZN6System9Dateutils14SecondsBetweenENS_9TDateTimeES1_ 0000000140033358     rtl:rtl370.bpl
 0002:00011360       __imp__ZN6System9Dateutils14StartOfTheWeekENS_9TDateTimeE 0000000140033360     rtl:rtl370.bpl
 0002:00011368       __imp__ZN6System9Dateutils14StartOfTheYearENS_9TDateTimeE 0000000140033368     rtl:rtl370.bpl
 0002:00011370       __imp__ZN6System9Dateutils14UnixToDateTimeExb 0000000140033370     rtl:rtl370.bpl
 0002:00011378       __imp__ZN6System9Dateutils14WeekOfTheMonthENS_9TDateTimeE 0000000140033378     rtl:rtl370.bpl
 0002:00011380       __imp__ZN6System9Dateutils14initializationEv 0000000140033380     rtl:rtl370.bpl
 0002:00011388       __imp__ZN6System9Dateutils15CompareDateTimeENS_9TDateTimeES1_ 0000000140033388     rtl:rtl370.bpl
 0002:00011390       __imp__ZN6System9Dateutils15DateTimeInRangeENS_9TDateTimeES1_S1_b 0000000140033390     rtl:rtl370.bpl
 0002:00011398       __imp__ZN6System9Dateutils15MilliSecondSpanENS_9TDateTimeES1_ 0000000140033398     rtl:rtl370.bpl
 0002:000113a0       __imp__ZN6System9Dateutils15MinuteOfTheWeekENS_9TDateTimeE 00000001400333a0     rtl:rtl370.bpl
 0002:000113a8       __imp__ZN6System9Dateutils15MinuteOfTheYearENS_9TDateTimeE 00000001400333a8     rtl:rtl370.bpl
 0002:000113b0       __imp__ZN6System9Dateutils15SecondOfTheHourENS_9TDateTimeE 00000001400333b0     rtl:rtl370.bpl
 0002:000113b8       __imp__ZN6System9Dateutils15SecondOfTheWeekENS_9TDateTimeE 00000001400333b8     rtl:rtl370.bpl
 0002:000113c0       __imp__ZN6System9Dateutils15SecondOfTheYearENS_9TDateTimeE 00000001400333c0     rtl:rtl370.bpl
 0002:000113c8       __imp__ZN6System9Dateutils15StartOfTheMonthENS_9TDateTimeE 00000001400333c8     rtl:rtl370.bpl
 0002:000113d0       __imp__ZN6System9Dateutils15TDateTimeHelper11DaysInMonthEv 00000001400333d0     rtl:rtl370.bpl
 0002:000113d8       __imp__ZN6System9Dateutils15TDateTimeHelper11SetHttpDateENS_13UnicodeStringEb 00000001400333d8     rtl:rtl370.bpl
 0002:000113e0       __imp__ZN6System9Dateutils15TDateTimeHelper14IncMilliSecondEx 00000001400333e0     rtl:rtl370.bpl
 0002:000113e8       __imp__ZN6System9Dateutils15TDateTimeHelper6IncDayEi 00000001400333e8     rtl:rtl370.bpl
 0002:000113f0       __imp__ZN6System9Dateutils15TDateTimeHelper6NowUTCEv 00000001400333f0     rtl:rtl370.bpl
 0002:000113f8       __imp__ZN6System9Dateutils15TDateTimeHelper7IncHourEx 00000001400333f8     rtl:rtl370.bpl
 0002:00011400       __imp__ZN6System9Dateutils15TDateTimeHelper7IncWeekEi 0000000140033400     rtl:rtl370.bpl
 0002:00011408       __imp__ZN6System9Dateutils15TDateTimeHelper7IncYearEi 0000000140033408     rtl:rtl370.bpl
 0002:00011410       __imp__ZN6System9Dateutils15TDateTimeHelper8IncMonthEi 0000000140033410     rtl:rtl370.bpl
 0002:00011418       __imp__ZN6System9Dateutils15TDateTimeHelper9IncMinuteEx 0000000140033418     rtl:rtl370.bpl
 0002:00011420       __imp__ZN6System9Dateutils15TDateTimeHelper9IncSecondEx 0000000140033420     rtl:rtl370.bpl
 0002:00011428       __imp__ZN6System9Dateutils16MinuteOfTheMonthENS_9TDateTimeE 0000000140033428     rtl:rtl370.bpl
 0002:00011430       __imp__ZN6System9Dateutils16SecondOfTheMonthENS_9TDateTimeE 0000000140033430     rtl:rtl370.bpl
 0002:00011438       __imp__ZN6System9Dateutils16TryEncodeDateDayEttRNS_9TDateTimeE 0000000140033438     rtl:rtl370.bpl
 0002:00011440       __imp__ZN6System9Dateutils16TryISO8601ToDateENS_13UnicodeStringERNS_9TDateTimeEb 0000000140033440     rtl:rtl370.bpl
 0002:00011448       __imp__ZN6System9Dateutils17RecodeMilliSecondENS_9TDateTimeEt 0000000140033448     rtl:rtl370.bpl
 0002:00011450       __imp__ZN6System9Dateutils17TryEncodeDateTimeEtttttttRNS_9TDateTimeE 0000000140033450     rtl:rtl370.bpl
 0002:00011458       __imp__ZN6System9Dateutils17TryEncodeDateWeekEttRNS_9TDateTimeEt 0000000140033458     rtl:rtl370.bpl
 0002:00011460       __imp__ZN6System9Dateutils18TimeToMillisecondsENS_9TDateTimeE 0000000140033460     rtl:rtl370.bpl
 0002:00011468       __imp__ZN6System9Dateutils19DecodeDateMonthWeekENS_9TDateTimeERtS2_S2_S2_ 0000000140033468     rtl:rtl370.bpl
 0002:00011470       __imp__ZN6System9Dateutils19EncodeDateMonthWeekEtttt 0000000140033470     rtl:rtl370.bpl
 0002:00011478       __imp__ZN6System9Dateutils19MilliSecondOfTheDayENS_9TDateTimeE 0000000140033478     rtl:rtl370.bpl
 0002:00011480       __imp__ZN6System9Dateutils19MilliSecondsBetweenENS_9TDateTimeES1_ 0000000140033480     rtl:rtl370.bpl
 0002:00011488       __imp__ZN6System9Dateutils20DateTimeToJulianDateENS_9TDateTimeE 0000000140033488     rtl:rtl370.bpl
 0002:00011490       __imp__ZN6System9Dateutils20JulianDateToDateTimeEd 0000000140033490     rtl:rtl370.bpl
 0002:00011498       __imp__ZN6System9Dateutils20MilliSecondOfTheHourENS_9TDateTimeE 0000000140033498     rtl:rtl370.bpl
 0002:000114a0       __imp__ZN6System9Dateutils20MilliSecondOfTheWeekENS_9TDateTimeE 00000001400334a0     rtl:rtl370.bpl
 0002:000114a8       __imp__ZN6System9Dateutils20MilliSecondOfTheYearENS_9TDateTimeE 00000001400334a8     rtl:rtl370.bpl
 0002:000114b0       __imp__ZN6System9Dateutils21MilliSecondOfTheMonthENS_9TDateTimeE 00000001400334b0     rtl:rtl370.bpl
 0002:000114b8       __imp__ZN6System9Dateutils22DateTimeToMillisecondsENS_9TDateTimeE 00000001400334b8     rtl:rtl370.bpl
 0002:000114c0       __imp__ZN6System9Dateutils22DecodeDayOfWeekInMonthENS_9TDateTimeERtS2_S2_S2_ 00000001400334c0     rtl:rtl370.bpl
 0002:000114c8       __imp__ZN6System9Dateutils22EncodeDayOfWeekInMonthEtttt 00000001400334c8     rtl:rtl370.bpl
 0002:000114d0       __imp__ZN6System9Dateutils22MilliSecondOfTheMinuteENS_9TDateTimeE 00000001400334d0     rtl:rtl370.bpl
 0002:000114d8       __imp__ZN6System9Dateutils22TryEncodeDateMonthWeekEttttRNS_9TDateTimeE 00000001400334d8     rtl:rtl370.bpl
 0002:000114e0       __imp__ZN6System9Dateutils23TryJulianDateToDateTimeEdRNS_9TDateTimeE 00000001400334e0     rtl:rtl370.bpl
 0002:000114e8       __imp__ZN6System9Dateutils25TryEncodeDayOfWeekInMonthEttttRNS_9TDateTimeE 00000001400334e8     rtl:rtl370.bpl
 0002:000114f0       __imp__ZN6System9Dateutils28DateTimeToModifiedJulianDateENS_9TDateTimeE 00000001400334f0     rtl:rtl370.bpl
 0002:000114f8       __imp__ZN6System9Dateutils28ModifiedJulianDateToDateTimeEd 00000001400334f8     rtl:rtl370.bpl
 0002:00011500       __imp__ZN6System9Dateutils31TryModifiedJulianDateToDateTimeEdRNS_9TDateTimeE 0000000140033500     rtl:rtl370.bpl
 0002:00011508       __imp__ZN6System9Dateutils4IsAMENS_9TDateTimeE 0000000140033508     rtl:rtl370.bpl
 0002:00011510       __imp__ZN6System9Dateutils5DayOfENS_9TDateTimeE 0000000140033510     rtl:rtl370.bpl
 0002:00011518       __imp__ZN6System9Dateutils5TodayEv 0000000140033518     rtl:rtl370.bpl
 0002:00011520       __imp__ZN6System9Dateutils6HourOfENS_9TDateTimeE 0000000140033520     rtl:rtl370.bpl
 0002:00011528       __imp__ZN6System9Dateutils6IncDayENS_9TDateTimeEi 0000000140033528     rtl:rtl370.bpl
 0002:00011530       __imp__ZN6System9Dateutils6WeekOfENS_9TDateTimeE 0000000140033530     rtl:rtl370.bpl
 0002:00011538       __imp__ZN6System9Dateutils6YearOfENS_9TDateTimeE 0000000140033538     rtl:rtl370.bpl
 0002:00011540       __imp__ZN6System9Dateutils7DaySpanENS_9TDateTimeES1_ 0000000140033540     rtl:rtl370.bpl
 0002:00011548       __imp__ZN6System9Dateutils7IncHourENS_9TDateTimeEx 0000000140033548     rtl:rtl370.bpl
 0002:00011550       __imp__ZN6System9Dateutils7IsTodayENS_9TDateTimeE 0000000140033550     rtl:rtl370.bpl
 0002:00011558       __imp__ZN6System9Dateutils7MonthOfENS_9TDateTimeE 0000000140033558     rtl:rtl370.bpl
 0002:00011560       __imp__ZN6System9Dateutils8HourSpanENS_9TDateTimeES1_ 0000000140033560     rtl:rtl370.bpl
 0002:00011568       __imp__ZN6System9Dateutils8MinuteOfENS_9TDateTimeE 0000000140033568     rtl:rtl370.bpl
 0002:00011570       __imp__ZN6System9Dateutils8SameDateENS_9TDateTimeES1_ 0000000140033570     rtl:rtl370.bpl
 0002:00011578       __imp__ZN6System9Dateutils8SameTimeENS_9TDateTimeES1_ 0000000140033578     rtl:rtl370.bpl
 0002:00011580       __imp__ZN6System9Dateutils8SecondOfENS_9TDateTimeE 0000000140033580     rtl:rtl370.bpl
 0002:00011588       __imp__ZN6System9Dateutils8TomorrowEv 0000000140033588     rtl:rtl370.bpl
 0002:00011590       __imp__ZN6System9Dateutils8WeekSpanENS_9TDateTimeES1_ 0000000140033590     rtl:rtl370.bpl
 0002:00011598       __imp__ZN6System9Dateutils8YearSpanENS_9TDateTimeES1_ 0000000140033598     rtl:rtl370.bpl
 0002:000115a0       __imp__ZN6System9Dateutils9IncMinuteENS_9TDateTimeEx 00000001400335a0     rtl:rtl370.bpl
 0002:000115a8       __imp__ZN6System9Dateutils9IncSecondENS_9TDateTimeEx 00000001400335a8     rtl:rtl370.bpl
 0002:000115b0       __imp__ZN6System9Dateutils9IsSameDayENS_9TDateTimeES1_ 00000001400335b0     rtl:rtl370.bpl
 0002:000115b8       __imp__ZN6System9Dateutils9MonthSpanENS_9TDateTimeES1_ 00000001400335b8     rtl:rtl370.bpl
 0002:000115c0       __imp__ZN6System9Dateutils9RecodeDayENS_9TDateTimeEt 00000001400335c0     rtl:rtl370.bpl
 0002:000115c8       __imp__ZN6System9Dateutils9YesterdayEv 00000001400335c8     rtl:rtl370.bpl
 0002:000115d0       _ZN6System9IsConsoleE      00000001400335d0     rtl:rtl370.bpl
 0002:000115d0       __imp__ZN6System9IsConsoleE 00000001400335d0     rtl:rtl370.bpl
 0002:000115d8       _ZN6System9IsLibraryE      00000001400335d8     rtl:rtl370.bpl
 0002:000115d8       __imp__ZN6System9IsLibraryE 00000001400335d8     rtl:rtl370.bpl
 0002:000115e0       __imp__ZN6System9RaiseListEv 00000001400335e0     rtl:rtl370.bpl
 0002:000115e8       __imp__ZN6System9Threading5TTask3RunENS_15DelphiInterfaceINS_8Sysutils5TProcEEE 00000001400335e8     rtl:rtl370.bpl
 0002:000115f0       __imp__ZN6System9_LStrCat3ERNS_11AnsiStringTILt0EEES1_S1_ 00000001400335f0     rtl:rtl370.bpl
 0002:000115f8       __imp__ZN6System9_LStrCopyENS_11AnsiStringTILt0EEEii 00000001400335f8     rtl:rtl370.bpl
 0002:00011600       __imp__ZN6System9_RunErrorEh 0000000140033600     rtl:rtl370.bpl
 0002:00011608       __imp__ZN6System9_StartExeEPNS_16PackageInfoTableEPNS_10TLibModuleE 0000000140033608     rtl:rtl370.bpl
 0002:00011610       __imp__ZN6System9_StartLibEPNS_12TInitContextEPNS_16PackageInfoTableEPNS_10TLibModuleEPvPFviS6_EyjS6_ 0000000140033610     rtl:rtl370.bpl
 0002:00011618       __imp__ZN6System9_UStrCat3ERNS_13UnicodeStringES0_S0_ 0000000140033618     rtl:rtl370.bpl
 0002:00011620       __imp__ZN6System9_UStrCopyENS_13UnicodeStringEii 0000000140033620     rtl:rtl370.bpl
 0002:00011628       __imp__ZN6System9_ValInt64ENS_13UnicodeStringERi 0000000140033628     rtl:rtl370.bpl
 0002:00011630       __imp__ZN6System9_WStrCat3ERNS_10WideStringES0_S0_ 0000000140033630     rtl:rtl370.bpl
 0002:00011638       __imp__ZN6System9_WStrCopyENS_10WideStringEii 0000000140033638     rtl:rtl370.bpl
 0002:00011640       _ZTRN6System11IEnumerableE 0000000140033640     rtl:rtl370.bpl
 0002:00011640       __imp__ZTRN6System11IEnumerableE 0000000140033640     rtl:rtl370.bpl
 0002:00011648       _ZTRN6System11IEnumeratorE 0000000140033648     rtl:rtl370.bpl
 0002:00011648       __imp__ZTRN6System11IEnumeratorE 0000000140033648     rtl:rtl370.bpl
 0002:00011650       _ZTRN6System12RefAttributeE 0000000140033650     rtl:rtl370.bpl
 0002:00011650       __imp__ZTRN6System12RefAttributeE 0000000140033650     rtl:rtl370.bpl
 0002:00011658       _ZTRN6System13PPointerArrayE 0000000140033658     rtl:rtl370.bpl
 0002:00011658       __imp__ZTRN6System13PPointerArrayE 0000000140033658     rtl:rtl370.bpl
 0002:00011660       _ZTRN6System17TInterfacedObjectE 0000000140033660     rtl:rtl370.bpl
 0002:00011660       __imp__ZTRN6System17TInterfacedObjectE 0000000140033660     rtl:rtl370.bpl
 0002:00011668       _ZTRN6System3Net19Httpclientcomponent14TNetHTTPClientE 0000000140033668     rtl:rtl370.bpl
 0002:00011668       __imp__ZTRN6System3Net19Httpclientcomponent14TNetHTTPClientE 0000000140033668     rtl:rtl370.bpl
 0002:00011670       _ZTRN6System4ByteE         0000000140033670     rtl:rtl370.bpl
 0002:00011670       __imp__ZTRN6System4ByteE   0000000140033670     rtl:rtl370.bpl
 0002:00011678       _ZTRN6System4CharE         0000000140033678     rtl:rtl370.bpl
 0002:00011678       __imp__ZTRN6System4CharE   0000000140033678     rtl:rtl370.bpl
 0002:00011680       _ZTRN6System4WordE         0000000140033680     rtl:rtl370.bpl
 0002:00011680       __imp__ZTRN6System4WordE   0000000140033680     rtl:rtl370.bpl
 0002:00011688       _ZTRN6System5Int64E        0000000140033688     rtl:rtl370.bpl
 0002:00011688       __imp__ZTRN6System5Int64E  0000000140033688     rtl:rtl370.bpl
 0002:00011690       _ZTRN6System5TDateE        0000000140033690     rtl:rtl370.bpl
 0002:00011690       __imp__ZTRN6System5TDateE  0000000140033690     rtl:rtl370.bpl
 0002:00011698       _ZTRN6System5TGUIDE        0000000140033698     rtl:rtl370.bpl
 0002:00011698       __imp__ZTRN6System5TGUIDE  0000000140033698     rtl:rtl370.bpl
 0002:000116a0       _ZTRN6System5TTimeE        00000001400336a0     rtl:rtl370.bpl
 0002:000116a0       __imp__ZTRN6System5TTimeE  00000001400336a0     rtl:rtl370.bpl
 0002:000116a8       _ZTRN6System5Types18TValueRelationshipE 00000001400336a8     rtl:rtl370.bpl
 0002:000116a8       __imp__ZTRN6System5Types18TValueRelationshipE 00000001400336a8     rtl:rtl370.bpl
 0002:000116b0       _ZTRN6System5Types7TEndianE 00000001400336b0     rtl:rtl370.bpl
 0002:000116b0       __imp__ZTRN6System5Types7TEndianE 00000001400336b0     rtl:rtl370.bpl
 0002:000116b8       _ZTRN6System6DoubleE       00000001400336b8     rtl:rtl370.bpl
 0002:000116b8       __imp__ZTRN6System6DoubleE 00000001400336b8     rtl:rtl370.bpl
 0002:000116c0       _ZTRN6System6SingleE       00000001400336c0     rtl:rtl370.bpl
 0002:000116c0       __imp__ZTRN6System6SingleE 00000001400336c0     rtl:rtl370.bpl
 0002:000116c8       _ZTRN6System6UInt64E       00000001400336c8     rtl:rtl370.bpl
 0002:000116c8       __imp__ZTRN6System6UInt64E 00000001400336c8     rtl:rtl370.bpl
 0002:000116d0       _ZTRN6System6stringE       00000001400336d0     rtl:rtl370.bpl
 0002:000116d0       __imp__ZTRN6System6stringE 00000001400336d0     rtl:rtl370.bpl
 0002:000116d8       _ZTRN6System7BooleanE      00000001400336d8     rtl:rtl370.bpl
 0002:000116d8       __imp__ZTRN6System7BooleanE 00000001400336d8     rtl:rtl370.bpl
 0002:000116e0       _ZTRN6System7IntegerE      00000001400336e0     rtl:rtl370.bpl
 0002:000116e0       __imp__ZTRN6System7IntegerE 00000001400336e0     rtl:rtl370.bpl
 0002:000116e8       _ZTRN6System7PointerE      00000001400336e8     rtl:rtl370.bpl
 0002:000116e8       __imp__ZTRN6System7PointerE 00000001400336e8     rtl:rtl370.bpl
 0002:000116f0       _ZTRN6System7TObjectE      00000001400336f0     rtl:rtl370.bpl
 0002:000116f0       __imp__ZTRN6System7TObjectE 00000001400336f0     rtl:rtl370.bpl
 0002:000116f8       _ZTRN6System7TVarRecE      00000001400336f8     rtl:rtl370.bpl
 0002:000116f8       __imp__ZTRN6System7TVarRecE 00000001400336f8     rtl:rtl370.bpl
 0002:00011700       _ZTRN6System8CardinalE     0000000140033700     rtl:rtl370.bpl
 0002:00011700       __imp__ZTRN6System8CardinalE 0000000140033700     rtl:rtl370.bpl
 0002:00011708       _ZTRN6System8CurrencyE     0000000140033708     rtl:rtl370.bpl
 0002:00011708       __imp__ZTRN6System8CurrencyE 0000000140033708     rtl:rtl370.bpl
 0002:00011710       _ZTRN6System8ExtendedE     0000000140033710     rtl:rtl370.bpl
 0002:00011710       __imp__ZTRN6System8ExtendedE 0000000140033710     rtl:rtl370.bpl
 0002:00011718       _ZTRN6System8LongBoolE     0000000140033718     rtl:rtl370.bpl
 0002:00011718       __imp__ZTRN6System8LongBoolE 0000000140033718     rtl:rtl370.bpl
 0002:00011720       _ZTRN6System8PPointerE     0000000140033720     rtl:rtl370.bpl
 0002:00011720       __imp__ZTRN6System8PPointerE 0000000140033720     rtl:rtl370.bpl
 0002:00011728       _ZTRN6System8SmallIntE     0000000140033728     rtl:rtl370.bpl
 0002:00011728       __imp__ZTRN6System8SmallIntE 0000000140033728     rtl:rtl370.bpl
 0002:00011730       _ZTRN6System8Sysutils11ERangeErrorE 0000000140033730     rtl:rtl370.bpl
 0002:00011730       __imp__ZTRN6System8Sysutils11ERangeErrorE 0000000140033730     rtl:rtl370.bpl
 0002:00011738       _ZTRN6System8Sysutils11TSysCharSetE 0000000140033738     rtl:rtl370.bpl
 0002:00011738       __imp__ZTRN6System8Sysutils11TSysCharSetE 0000000140033738     rtl:rtl370.bpl
 0002:00011740       _ZTRN6System8Sysutils13TReplaceFlagsE 0000000140033740     rtl:rtl370.bpl
 0002:00011740       __imp__ZTRN6System8Sysutils13TReplaceFlagsE 0000000140033740     rtl:rtl370.bpl
 0002:00011748       _ZTRN6System8Sysutils14TLocaleOptionsE 0000000140033748     rtl:rtl370.bpl
 0002:00011748       __imp__ZTRN6System8Sysutils14TLocaleOptionsE 0000000140033748     rtl:rtl370.bpl
 0002:00011750       _ZTRN6System8Sysutils15TCompareOptionsE 0000000140033750     rtl:rtl370.bpl
 0002:00011750       __imp__ZTRN6System8Sysutils15TCompareOptionsE 0000000140033750     rtl:rtl370.bpl
 0002:00011758       _ZTRN6System8Sysutils15TFormatSettingsE 0000000140033758     rtl:rtl370.bpl
 0002:00011758       __imp__ZTRN6System8Sysutils15TFormatSettingsE 0000000140033758     rtl:rtl370.bpl
 0002:00011760       _ZTRN6System8Sysutils19TStringSplitOptionsE 0000000140033760     rtl:rtl370.bpl
 0002:00011760       __imp__ZTRN6System8Sysutils19TStringSplitOptionsE 0000000140033760     rtl:rtl370.bpl
 0002:00011768       _ZTRN6System8Sysutils9ExceptionE 0000000140033768     rtl:rtl370.bpl
 0002:00011768       __imp__ZTRN6System8Sysutils9ExceptionE 0000000140033768     rtl:rtl370.bpl
 0002:00011770       _ZTRN6System9PAnsiCharE    0000000140033770     rtl:rtl370.bpl
 0002:00011770       __imp__ZTRN6System9PAnsiCharE 0000000140033770     rtl:rtl370.bpl
 0002:00011778       _ZTRN6System9PWideCharE    0000000140033778     rtl:rtl370.bpl
 0002:00011778       __imp__ZTRN6System9PWideCharE 0000000140033778     rtl:rtl370.bpl
 0002:00011780       _ZTRN6System9TDateTimeE    0000000140033780     rtl:rtl370.bpl
 0002:00011780       __imp__ZTRN6System9TDateTimeE 0000000140033780     rtl:rtl370.bpl
 0002:00011788       _ZTVN6System17TInterfacedObjectE 0000000140033788     rtl:rtl370.bpl
 0002:00011788       __imp__ZTVN6System17TInterfacedObjectE 0000000140033788     rtl:rtl370.bpl
 0002:00011790       _ZTVN6System3Net19Httpclientcomponent14TNetHTTPClientE 0000000140033790     rtl:rtl370.bpl
 0002:00011790       __imp__ZTVN6System3Net19Httpclientcomponent14TNetHTTPClientE 0000000140033790     rtl:rtl370.bpl
 0002:00011798       _ZTVN6System7Classes11TStringListE 0000000140033798     rtl:rtl370.bpl
 0002:00011798       __imp__ZTVN6System7Classes11TStringListE 0000000140033798     rtl:rtl370.bpl
 0002:000117a0       _ZTVN6System7Classes13TStringStreamE 00000001400337a0     rtl:rtl370.bpl
 0002:000117a0       __imp__ZTVN6System7Classes13TStringStreamE 00000001400337a0     rtl:rtl370.bpl
 0002:000117a8       _ZTVN6System8Sysutils11ERangeErrorE 00000001400337a8     rtl:rtl370.bpl
 0002:000117a8       __imp__ZTVN6System8Sysutils11ERangeErrorE 00000001400337a8     rtl:rtl370.bpl
 0002:000117b0       _ZTVN6System8Sysutils9ExceptionE 00000001400337b0     rtl:rtl370.bpl
 0002:000117b0       __imp__ZTVN6System8Sysutils9ExceptionE 00000001400337b0     rtl:rtl370.bpl
